
bm:     file format elf64-x86-64


Disassembly of section .init:

0000000000000838 <_init>:
 838:	48 83 ec 08          	sub    $0x8,%rsp
 83c:	48 8d 05 cd 00 00 00 	lea    0xcd(%rip),%rax        # 910 <__gmon_start__>
 843:	48 85 c0             	test   %rax,%rax
 846:	74 02                	je     84a <_init+0x12>
 848:	ff d0                	callq  *%rax
 84a:	48 83 c4 08          	add    $0x8,%rsp
 84e:	c3                   	retq   

Disassembly of section .plt:

0000000000000850 <.plt>:
 850:	ff 35 2a c7 20 00    	pushq  0x20c72a(%rip)        # 20cf80 <_GLOBAL_OFFSET_TABLE_+0x8>
 856:	ff 25 2c c7 20 00    	jmpq   *0x20c72c(%rip)        # 20cf88 <_GLOBAL_OFFSET_TABLE_+0x10>
 85c:	0f 1f 40 00          	nopl   0x0(%rax)

0000000000000860 <__cxa_atexit@plt>:
 860:	ff 25 2a c7 20 00    	jmpq   *0x20c72a(%rip)        # 20cf90 <__cxa_atexit@GLIBC_2.2.5>
 866:	68 00 00 00 00       	pushq  $0x0
 86b:	e9 e0 ff ff ff       	jmpq   850 <.plt>

0000000000000870 <_ZNSolsEy@plt>:
 870:	ff 25 22 c7 20 00    	jmpq   *0x20c722(%rip)        # 20cf98 <_ZNSolsEy@GLIBCXX_3.4>
 876:	68 01 00 00 00       	pushq  $0x1
 87b:	e9 d0 ff ff ff       	jmpq   850 <.plt>

0000000000000880 <_ZStlsISt11char_traitsIcEERSt13basic_ostreamIcT_ES5_PKc@plt>:
 880:	ff 25 1a c7 20 00    	jmpq   *0x20c71a(%rip)        # 20cfa0 <_ZStlsISt11char_traitsIcEERSt13basic_ostreamIcT_ES5_PKc@GLIBCXX_3.4>
 886:	68 02 00 00 00       	pushq  $0x2
 88b:	e9 c0 ff ff ff       	jmpq   850 <.plt>

0000000000000890 <__monstartup@plt>:
 890:	ff 25 12 c7 20 00    	jmpq   *0x20c712(%rip)        # 20cfa8 <__monstartup@GLIBC_2.2.5>
 896:	68 03 00 00 00       	pushq  $0x3
 89b:	e9 b0 ff ff ff       	jmpq   850 <.plt>

00000000000008a0 <_ZNSolsEPFRSoS_E@plt>:
 8a0:	ff 25 0a c7 20 00    	jmpq   *0x20c70a(%rip)        # 20cfb0 <_ZNSolsEPFRSoS_E@GLIBCXX_3.4>
 8a6:	68 04 00 00 00       	pushq  $0x4
 8ab:	e9 a0 ff ff ff       	jmpq   850 <.plt>

00000000000008b0 <__stack_chk_fail@plt>:
 8b0:	ff 25 02 c7 20 00    	jmpq   *0x20c702(%rip)        # 20cfb8 <__stack_chk_fail@GLIBC_2.4>
 8b6:	68 05 00 00 00       	pushq  $0x5
 8bb:	e9 90 ff ff ff       	jmpq   850 <.plt>

00000000000008c0 <_ZNSt8ios_base4InitC1Ev@plt>:
 8c0:	ff 25 fa c6 20 00    	jmpq   *0x20c6fa(%rip)        # 20cfc0 <_ZNSt8ios_base4InitC1Ev@GLIBCXX_3.4>
 8c6:	68 06 00 00 00       	pushq  $0x6
 8cb:	e9 80 ff ff ff       	jmpq   850 <.plt>

Disassembly of section .plt.got:

00000000000008d0 <__cxa_finalize@plt>:
 8d0:	ff 25 f2 c6 20 00    	jmpq   *0x20c6f2(%rip)        # 20cfc8 <__cxa_finalize@GLIBC_2.2.5>
 8d6:	66 90                	xchg   %ax,%ax

Disassembly of section .text:

00000000000008e0 <_start>:
     8e0:	31 ed                	xor    %ebp,%ebp
     8e2:	49 89 d1             	mov    %rdx,%r9
     8e5:	5e                   	pop    %rsi
     8e6:	48 89 e2             	mov    %rsp,%rdx
     8e9:	48 83 e4 f0          	and    $0xfffffffffffffff0,%rsp
     8ed:	50                   	push   %rax
     8ee:	54                   	push   %rsp
     8ef:	4c 8d 05 ba b2 00 00 	lea    0xb2ba(%rip),%r8        # bbb0 <__libc_csu_fini>
     8f6:	48 8d 0d 43 b2 00 00 	lea    0xb243(%rip),%rcx        # bb40 <__libc_csu_init>
     8fd:	48 8d 3d 8a 01 00 00 	lea    0x18a(%rip),%rdi        # a8e <main>
     904:	ff 15 de c6 20 00    	callq  *0x20c6de(%rip)        # 20cfe8 <__libc_start_main@GLIBC_2.2.5>
     90a:	f4                   	hlt    
     90b:	0f 1f 44 00 00       	nopl   0x0(%rax,%rax,1)

0000000000000910 <__gmon_start__>:
     910:	8b 05 1a c8 20 00    	mov    0x20c81a(%rip),%eax        # 20d130 <called.4604>
     916:	85 c0                	test   %eax,%eax
     918:	74 06                	je     920 <__gmon_start__+0x10>
     91a:	f3 c3                	repz retq 
     91c:	0f 1f 40 00          	nopl   0x0(%rax)
     920:	48 83 ec 08          	sub    $0x8,%rsp
     924:	48 8d 3d b5 ff ff ff 	lea    -0x4b(%rip),%rdi        # 8e0 <_start>
     92b:	48 8d 35 a7 b2 00 00 	lea    0xb2a7(%rip),%rsi        # bbd9 <etext>
     932:	c7 05 f4 c7 20 00 01 	movl   $0x1,0x20c7f4(%rip)        # 20d130 <called.4604>
     939:	00 00 00 
     93c:	e8 4f ff ff ff       	callq  890 <__monstartup@plt>
     941:	48 8b 3d 90 c6 20 00 	mov    0x20c690(%rip),%rdi        # 20cfd8 <_mcleanup@GLIBC_2.2.5>
     948:	48 83 c4 08          	add    $0x8,%rsp
     94c:	e9 6f b2 00 00       	jmpq   bbc0 <atexit>
     951:	66 2e 0f 1f 84 00 00 	nopw   %cs:0x0(%rax,%rax,1)
     958:	00 00 00 
     95b:	0f 1f 44 00 00       	nopl   0x0(%rax,%rax,1)

0000000000000960 <_dl_relocate_static_pie>:
     960:	f3 c3                	repz retq 
     962:	66 2e 0f 1f 84 00 00 	nopw   %cs:0x0(%rax,%rax,1)
     969:	00 00 00 
     96c:	0f 1f 40 00          	nopl   0x0(%rax)

0000000000000970 <deregister_tm_clones>:
     970:	48 8d 3d 99 c6 20 00 	lea    0x20c699(%rip),%rdi        # 20d010 <__TMC_END__>
     977:	55                   	push   %rbp
     978:	48 8d 05 91 c6 20 00 	lea    0x20c691(%rip),%rax        # 20d010 <__TMC_END__>
     97f:	48 39 f8             	cmp    %rdi,%rax
     982:	48 89 e5             	mov    %rsp,%rbp
     985:	74 19                	je     9a0 <deregister_tm_clones+0x30>
     987:	48 8b 05 52 c6 20 00 	mov    0x20c652(%rip),%rax        # 20cfe0 <_ITM_deregisterTMCloneTable>
     98e:	48 85 c0             	test   %rax,%rax
     991:	74 0d                	je     9a0 <deregister_tm_clones+0x30>
     993:	5d                   	pop    %rbp
     994:	ff e0                	jmpq   *%rax
     996:	66 2e 0f 1f 84 00 00 	nopw   %cs:0x0(%rax,%rax,1)
     99d:	00 00 00 
     9a0:	5d                   	pop    %rbp
     9a1:	c3                   	retq   
     9a2:	0f 1f 40 00          	nopl   0x0(%rax)
     9a6:	66 2e 0f 1f 84 00 00 	nopw   %cs:0x0(%rax,%rax,1)
     9ad:	00 00 00 

00000000000009b0 <register_tm_clones>:
     9b0:	48 8d 3d 59 c6 20 00 	lea    0x20c659(%rip),%rdi        # 20d010 <__TMC_END__>
     9b7:	48 8d 35 52 c6 20 00 	lea    0x20c652(%rip),%rsi        # 20d010 <__TMC_END__>
     9be:	55                   	push   %rbp
     9bf:	48 29 fe             	sub    %rdi,%rsi
     9c2:	48 89 e5             	mov    %rsp,%rbp
     9c5:	48 c1 fe 03          	sar    $0x3,%rsi
     9c9:	48 89 f0             	mov    %rsi,%rax
     9cc:	48 c1 e8 3f          	shr    $0x3f,%rax
     9d0:	48 01 c6             	add    %rax,%rsi
     9d3:	48 d1 fe             	sar    %rsi
     9d6:	74 18                	je     9f0 <register_tm_clones+0x40>
     9d8:	48 8b 05 11 c6 20 00 	mov    0x20c611(%rip),%rax        # 20cff0 <_ITM_registerTMCloneTable>
     9df:	48 85 c0             	test   %rax,%rax
     9e2:	74 0c                	je     9f0 <register_tm_clones+0x40>
     9e4:	5d                   	pop    %rbp
     9e5:	ff e0                	jmpq   *%rax
     9e7:	66 0f 1f 84 00 00 00 	nopw   0x0(%rax,%rax,1)
     9ee:	00 00 
     9f0:	5d                   	pop    %rbp
     9f1:	c3                   	retq   
     9f2:	0f 1f 40 00          	nopl   0x0(%rax)
     9f6:	66 2e 0f 1f 84 00 00 	nopw   %cs:0x0(%rax,%rax,1)
     9fd:	00 00 00 

0000000000000a00 <__do_global_dtors_aux>:
     a00:	80 3d 2d c7 20 00 00 	cmpb   $0x0,0x20c72d(%rip)        # 20d134 <completed.7696>
     a07:	75 2f                	jne    a38 <__do_global_dtors_aux+0x38>
     a09:	48 83 3d b7 c5 20 00 	cmpq   $0x0,0x20c5b7(%rip)        # 20cfc8 <__cxa_finalize@GLIBC_2.2.5>
     a10:	00 
     a11:	55                   	push   %rbp
     a12:	48 89 e5             	mov    %rsp,%rbp
     a15:	74 0c                	je     a23 <__do_global_dtors_aux+0x23>
     a17:	48 8b 3d ea c5 20 00 	mov    0x20c5ea(%rip),%rdi        # 20d008 <__dso_handle>
     a1e:	e8 ad fe ff ff       	callq  8d0 <__cxa_finalize@plt>
     a23:	e8 48 ff ff ff       	callq  970 <deregister_tm_clones>
     a28:	c6 05 05 c7 20 00 01 	movb   $0x1,0x20c705(%rip)        # 20d134 <completed.7696>
     a2f:	5d                   	pop    %rbp
     a30:	c3                   	retq   
     a31:	0f 1f 80 00 00 00 00 	nopl   0x0(%rax)
     a38:	f3 c3                	repz retq 
     a3a:	66 0f 1f 44 00 00    	nopw   0x0(%rax,%rax,1)

0000000000000a40 <frame_dummy>:
     a40:	55                   	push   %rbp
     a41:	48 89 e5             	mov    %rsp,%rbp
     a44:	5d                   	pop    %rbp
     a45:	e9 66 ff ff ff       	jmpq   9b0 <register_tm_clones>

0000000000000a4a <_Z10init_gridsP4Grid>:
     a4a:	55                   	push   %rbp
     a4b:	48 89 e5             	mov    %rsp,%rbp
     a4e:	48 89 7d e8          	mov    %rdi,-0x18(%rbp)
     a52:	c7 45 fc 00 00 00 00 	movl   $0x0,-0x4(%rbp)
     a59:	81 7d fc 8f 01 00 00 	cmpl   $0x18f,-0x4(%rbp)
     a60:	7f 29                	jg     a8b <_Z10init_gridsP4Grid+0x41>
     a62:	8b 45 fc             	mov    -0x4(%rbp),%eax
     a65:	48 63 d0             	movslq %eax,%rdx
     a68:	48 89 d0             	mov    %rdx,%rax
     a6b:	48 01 c0             	add    %rax,%rax
     a6e:	48 01 d0             	add    %rdx,%rax
     a71:	48 c1 e0 02          	shl    $0x2,%rax
     a75:	48 89 c2             	mov    %rax,%rdx
     a78:	48 8b 45 e8          	mov    -0x18(%rbp),%rax
     a7c:	48 01 c2             	add    %rax,%rdx
     a7f:	8b 45 fc             	mov    -0x4(%rbp),%eax
     a82:	89 42 04             	mov    %eax,0x4(%rdx)
     a85:	83 45 fc 01          	addl   $0x1,-0x4(%rbp)
     a89:	eb ce                	jmp    a59 <_Z10init_gridsP4Grid+0xf>
     a8b:	90                   	nop
     a8c:	5d                   	pop    %rbp
     a8d:	c3                   	retq   

0000000000000a8e <main>:
     a8e:	55                   	push   %rbp
     a8f:	48 89 e5             	mov    %rsp,%rbp
     a92:	48 81 ec f0 12 20 00 	sub    $0x2012f0,%rsp
     a99:	64 48 8b 04 25 28 00 	mov    %fs:0x28,%rax
     aa0:	00 00 
     aa2:	48 89 45 f8          	mov    %rax,-0x8(%rbp)
     aa6:	31 c0                	xor    %eax,%eax
     aa8:	48 8d 85 f0 ff df ff 	lea    -0x200010(%rbp),%rax
     aaf:	48 89 c7             	mov    %rax,%rdi
     ab2:	e8 4b ad 00 00       	callq  b802 <_ZN4HeapC1Ev>
     ab7:	48 8d 85 30 ed df ff 	lea    -0x2012d0(%rbp),%rax
     abe:	48 89 c7             	mov    %rax,%rdi
     ac1:	e8 84 ff ff ff       	callq  a4a <_Z10init_gridsP4Grid>
     ac6:	c7 85 1c ed df ff 02 	movl   $0x2,-0x2012e4(%rbp)
     acd:	00 00 00 
     ad0:	81 bd 1c ed df ff 90 	cmpl   $0x190,-0x2012e4(%rbp)
     ad7:	01 00 00 
     ada:	7f 3c                	jg     b18 <main+0x8a>
     adc:	48 8d 8d 30 ed df ff 	lea    -0x2012d0(%rbp),%rcx
     ae3:	8b 85 1c ed df ff    	mov    -0x2012e4(%rbp),%eax
     ae9:	48 63 d0             	movslq %eax,%rdx
     aec:	48 89 d0             	mov    %rdx,%rax
     aef:	48 01 c0             	add    %rax,%rax
     af2:	48 01 d0             	add    %rdx,%rax
     af5:	48 c1 e0 02          	shl    $0x2,%rax
     af9:	48 8d 14 01          	lea    (%rcx,%rax,1),%rdx
     afd:	48 8d 85 f0 ff df ff 	lea    -0x200010(%rbp),%rax
     b04:	48 89 d6             	mov    %rdx,%rsi
     b07:	48 89 c7             	mov    %rax,%rdi
     b0a:	e8 2f ad 00 00       	callq  b83e <_ZN4Heap4pushEP4Grid>
     b0f:	83 85 1c ed df ff 01 	addl   $0x1,-0x2012e4(%rbp)
     b16:	eb b8                	jmp    ad0 <main+0x42>
     b18:	e8 ff af 00 00       	callq  bb1c <_Z5rdtscv>
     b1d:	48 89 85 20 ed df ff 	mov    %rax,-0x2012e0(%rbp)
     b24:	48 8d 85 30 ed df ff 	lea    -0x2012d0(%rbp),%rax
     b2b:	48 8d 50 0c          	lea    0xc(%rax),%rdx
     b2f:	48 8d 85 f0 ff df ff 	lea    -0x200010(%rbp),%rax
     b36:	48 89 d6             	mov    %rdx,%rsi
     b39:	48 89 c7             	mov    %rax,%rdi
     b3c:	e8 fd ac 00 00       	callq  b83e <_ZN4Heap4pushEP4Grid>
     b41:	48 8d 85 f0 ff df ff 	lea    -0x200010(%rbp),%rax
     b48:	48 89 c7             	mov    %rax,%rdi
     b4b:	e8 24 ae 00 00       	callq  b974 <_ZN4Heap3popEv>
     b50:	48 8d 85 30 ed df ff 	lea    -0x2012d0(%rbp),%rax
     b57:	48 8d 50 0c          	lea    0xc(%rax),%rdx
     b5b:	48 8d 85 f0 ff df ff 	lea    -0x200010(%rbp),%rax
     b62:	48 89 d6             	mov    %rdx,%rsi
     b65:	48 89 c7             	mov    %rax,%rdi
     b68:	e8 d1 ac 00 00       	callq  b83e <_ZN4Heap4pushEP4Grid>
     b6d:	48 8d 85 f0 ff df ff 	lea    -0x200010(%rbp),%rax
     b74:	48 89 c7             	mov    %rax,%rdi
     b77:	e8 f8 ad 00 00       	callq  b974 <_ZN4Heap3popEv>
     b7c:	48 8d 85 30 ed df ff 	lea    -0x2012d0(%rbp),%rax
     b83:	48 8d 50 0c          	lea    0xc(%rax),%rdx
     b87:	48 8d 85 f0 ff df ff 	lea    -0x200010(%rbp),%rax
     b8e:	48 89 d6             	mov    %rdx,%rsi
     b91:	48 89 c7             	mov    %rax,%rdi
     b94:	e8 a5 ac 00 00       	callq  b83e <_ZN4Heap4pushEP4Grid>
     b99:	48 8d 85 f0 ff df ff 	lea    -0x200010(%rbp),%rax
     ba0:	48 89 c7             	mov    %rax,%rdi
     ba3:	e8 cc ad 00 00       	callq  b974 <_ZN4Heap3popEv>
     ba8:	48 8d 85 30 ed df ff 	lea    -0x2012d0(%rbp),%rax
     baf:	48 8d 50 0c          	lea    0xc(%rax),%rdx
     bb3:	48 8d 85 f0 ff df ff 	lea    -0x200010(%rbp),%rax
     bba:	48 89 d6             	mov    %rdx,%rsi
     bbd:	48 89 c7             	mov    %rax,%rdi
     bc0:	e8 79 ac 00 00       	callq  b83e <_ZN4Heap4pushEP4Grid>
     bc5:	48 8d 85 f0 ff df ff 	lea    -0x200010(%rbp),%rax
     bcc:	48 89 c7             	mov    %rax,%rdi
     bcf:	e8 a0 ad 00 00       	callq  b974 <_ZN4Heap3popEv>
     bd4:	48 8d 85 30 ed df ff 	lea    -0x2012d0(%rbp),%rax
     bdb:	48 8d 50 0c          	lea    0xc(%rax),%rdx
     bdf:	48 8d 85 f0 ff df ff 	lea    -0x200010(%rbp),%rax
     be6:	48 89 d6             	mov    %rdx,%rsi
     be9:	48 89 c7             	mov    %rax,%rdi
     bec:	e8 4d ac 00 00       	callq  b83e <_ZN4Heap4pushEP4Grid>
     bf1:	48 8d 85 f0 ff df ff 	lea    -0x200010(%rbp),%rax
     bf8:	48 89 c7             	mov    %rax,%rdi
     bfb:	e8 74 ad 00 00       	callq  b974 <_ZN4Heap3popEv>
     c00:	48 8d 85 30 ed df ff 	lea    -0x2012d0(%rbp),%rax
     c07:	48 8d 50 0c          	lea    0xc(%rax),%rdx
     c0b:	48 8d 85 f0 ff df ff 	lea    -0x200010(%rbp),%rax
     c12:	48 89 d6             	mov    %rdx,%rsi
     c15:	48 89 c7             	mov    %rax,%rdi
     c18:	e8 21 ac 00 00       	callq  b83e <_ZN4Heap4pushEP4Grid>
     c1d:	48 8d 85 f0 ff df ff 	lea    -0x200010(%rbp),%rax
     c24:	48 89 c7             	mov    %rax,%rdi
     c27:	e8 48 ad 00 00       	callq  b974 <_ZN4Heap3popEv>
     c2c:	48 8d 85 30 ed df ff 	lea    -0x2012d0(%rbp),%rax
     c33:	48 8d 50 0c          	lea    0xc(%rax),%rdx
     c37:	48 8d 85 f0 ff df ff 	lea    -0x200010(%rbp),%rax
     c3e:	48 89 d6             	mov    %rdx,%rsi
     c41:	48 89 c7             	mov    %rax,%rdi
     c44:	e8 f5 ab 00 00       	callq  b83e <_ZN4Heap4pushEP4Grid>
     c49:	48 8d 85 f0 ff df ff 	lea    -0x200010(%rbp),%rax
     c50:	48 89 c7             	mov    %rax,%rdi
     c53:	e8 1c ad 00 00       	callq  b974 <_ZN4Heap3popEv>
     c58:	48 8d 85 30 ed df ff 	lea    -0x2012d0(%rbp),%rax
     c5f:	48 8d 50 0c          	lea    0xc(%rax),%rdx
     c63:	48 8d 85 f0 ff df ff 	lea    -0x200010(%rbp),%rax
     c6a:	48 89 d6             	mov    %rdx,%rsi
     c6d:	48 89 c7             	mov    %rax,%rdi
     c70:	e8 c9 ab 00 00       	callq  b83e <_ZN4Heap4pushEP4Grid>
     c75:	48 8d 85 f0 ff df ff 	lea    -0x200010(%rbp),%rax
     c7c:	48 89 c7             	mov    %rax,%rdi
     c7f:	e8 f0 ac 00 00       	callq  b974 <_ZN4Heap3popEv>
     c84:	48 8d 85 30 ed df ff 	lea    -0x2012d0(%rbp),%rax
     c8b:	48 8d 50 0c          	lea    0xc(%rax),%rdx
     c8f:	48 8d 85 f0 ff df ff 	lea    -0x200010(%rbp),%rax
     c96:	48 89 d6             	mov    %rdx,%rsi
     c99:	48 89 c7             	mov    %rax,%rdi
     c9c:	e8 9d ab 00 00       	callq  b83e <_ZN4Heap4pushEP4Grid>
     ca1:	48 8d 85 f0 ff df ff 	lea    -0x200010(%rbp),%rax
     ca8:	48 89 c7             	mov    %rax,%rdi
     cab:	e8 c4 ac 00 00       	callq  b974 <_ZN4Heap3popEv>
     cb0:	48 8d 85 30 ed df ff 	lea    -0x2012d0(%rbp),%rax
     cb7:	48 8d 50 0c          	lea    0xc(%rax),%rdx
     cbb:	48 8d 85 f0 ff df ff 	lea    -0x200010(%rbp),%rax
     cc2:	48 89 d6             	mov    %rdx,%rsi
     cc5:	48 89 c7             	mov    %rax,%rdi
     cc8:	e8 71 ab 00 00       	callq  b83e <_ZN4Heap4pushEP4Grid>
     ccd:	48 8d 85 f0 ff df ff 	lea    -0x200010(%rbp),%rax
     cd4:	48 89 c7             	mov    %rax,%rdi
     cd7:	e8 98 ac 00 00       	callq  b974 <_ZN4Heap3popEv>
     cdc:	48 8d 85 30 ed df ff 	lea    -0x2012d0(%rbp),%rax
     ce3:	48 8d 50 0c          	lea    0xc(%rax),%rdx
     ce7:	48 8d 85 f0 ff df ff 	lea    -0x200010(%rbp),%rax
     cee:	48 89 d6             	mov    %rdx,%rsi
     cf1:	48 89 c7             	mov    %rax,%rdi
     cf4:	e8 45 ab 00 00       	callq  b83e <_ZN4Heap4pushEP4Grid>
     cf9:	48 8d 85 f0 ff df ff 	lea    -0x200010(%rbp),%rax
     d00:	48 89 c7             	mov    %rax,%rdi
     d03:	e8 6c ac 00 00       	callq  b974 <_ZN4Heap3popEv>
     d08:	48 8d 85 30 ed df ff 	lea    -0x2012d0(%rbp),%rax
     d0f:	48 8d 50 0c          	lea    0xc(%rax),%rdx
     d13:	48 8d 85 f0 ff df ff 	lea    -0x200010(%rbp),%rax
     d1a:	48 89 d6             	mov    %rdx,%rsi
     d1d:	48 89 c7             	mov    %rax,%rdi
     d20:	e8 19 ab 00 00       	callq  b83e <_ZN4Heap4pushEP4Grid>
     d25:	48 8d 85 f0 ff df ff 	lea    -0x200010(%rbp),%rax
     d2c:	48 89 c7             	mov    %rax,%rdi
     d2f:	e8 40 ac 00 00       	callq  b974 <_ZN4Heap3popEv>
     d34:	48 8d 85 30 ed df ff 	lea    -0x2012d0(%rbp),%rax
     d3b:	48 8d 50 0c          	lea    0xc(%rax),%rdx
     d3f:	48 8d 85 f0 ff df ff 	lea    -0x200010(%rbp),%rax
     d46:	48 89 d6             	mov    %rdx,%rsi
     d49:	48 89 c7             	mov    %rax,%rdi
     d4c:	e8 ed aa 00 00       	callq  b83e <_ZN4Heap4pushEP4Grid>
     d51:	48 8d 85 f0 ff df ff 	lea    -0x200010(%rbp),%rax
     d58:	48 89 c7             	mov    %rax,%rdi
     d5b:	e8 14 ac 00 00       	callq  b974 <_ZN4Heap3popEv>
     d60:	48 8d 85 30 ed df ff 	lea    -0x2012d0(%rbp),%rax
     d67:	48 8d 50 0c          	lea    0xc(%rax),%rdx
     d6b:	48 8d 85 f0 ff df ff 	lea    -0x200010(%rbp),%rax
     d72:	48 89 d6             	mov    %rdx,%rsi
     d75:	48 89 c7             	mov    %rax,%rdi
     d78:	e8 c1 aa 00 00       	callq  b83e <_ZN4Heap4pushEP4Grid>
     d7d:	48 8d 85 f0 ff df ff 	lea    -0x200010(%rbp),%rax
     d84:	48 89 c7             	mov    %rax,%rdi
     d87:	e8 e8 ab 00 00       	callq  b974 <_ZN4Heap3popEv>
     d8c:	48 8d 85 30 ed df ff 	lea    -0x2012d0(%rbp),%rax
     d93:	48 8d 50 0c          	lea    0xc(%rax),%rdx
     d97:	48 8d 85 f0 ff df ff 	lea    -0x200010(%rbp),%rax
     d9e:	48 89 d6             	mov    %rdx,%rsi
     da1:	48 89 c7             	mov    %rax,%rdi
     da4:	e8 95 aa 00 00       	callq  b83e <_ZN4Heap4pushEP4Grid>
     da9:	48 8d 85 f0 ff df ff 	lea    -0x200010(%rbp),%rax
     db0:	48 89 c7             	mov    %rax,%rdi
     db3:	e8 bc ab 00 00       	callq  b974 <_ZN4Heap3popEv>
     db8:	48 8d 85 30 ed df ff 	lea    -0x2012d0(%rbp),%rax
     dbf:	48 8d 50 0c          	lea    0xc(%rax),%rdx
     dc3:	48 8d 85 f0 ff df ff 	lea    -0x200010(%rbp),%rax
     dca:	48 89 d6             	mov    %rdx,%rsi
     dcd:	48 89 c7             	mov    %rax,%rdi
     dd0:	e8 69 aa 00 00       	callq  b83e <_ZN4Heap4pushEP4Grid>
     dd5:	48 8d 85 f0 ff df ff 	lea    -0x200010(%rbp),%rax
     ddc:	48 89 c7             	mov    %rax,%rdi
     ddf:	e8 90 ab 00 00       	callq  b974 <_ZN4Heap3popEv>
     de4:	48 8d 85 30 ed df ff 	lea    -0x2012d0(%rbp),%rax
     deb:	48 8d 50 0c          	lea    0xc(%rax),%rdx
     def:	48 8d 85 f0 ff df ff 	lea    -0x200010(%rbp),%rax
     df6:	48 89 d6             	mov    %rdx,%rsi
     df9:	48 89 c7             	mov    %rax,%rdi
     dfc:	e8 3d aa 00 00       	callq  b83e <_ZN4Heap4pushEP4Grid>
     e01:	48 8d 85 f0 ff df ff 	lea    -0x200010(%rbp),%rax
     e08:	48 89 c7             	mov    %rax,%rdi
     e0b:	e8 64 ab 00 00       	callq  b974 <_ZN4Heap3popEv>
     e10:	48 8d 85 30 ed df ff 	lea    -0x2012d0(%rbp),%rax
     e17:	48 8d 50 0c          	lea    0xc(%rax),%rdx
     e1b:	48 8d 85 f0 ff df ff 	lea    -0x200010(%rbp),%rax
     e22:	48 89 d6             	mov    %rdx,%rsi
     e25:	48 89 c7             	mov    %rax,%rdi
     e28:	e8 11 aa 00 00       	callq  b83e <_ZN4Heap4pushEP4Grid>
     e2d:	48 8d 85 f0 ff df ff 	lea    -0x200010(%rbp),%rax
     e34:	48 89 c7             	mov    %rax,%rdi
     e37:	e8 38 ab 00 00       	callq  b974 <_ZN4Heap3popEv>
     e3c:	48 8d 85 30 ed df ff 	lea    -0x2012d0(%rbp),%rax
     e43:	48 8d 50 0c          	lea    0xc(%rax),%rdx
     e47:	48 8d 85 f0 ff df ff 	lea    -0x200010(%rbp),%rax
     e4e:	48 89 d6             	mov    %rdx,%rsi
     e51:	48 89 c7             	mov    %rax,%rdi
     e54:	e8 e5 a9 00 00       	callq  b83e <_ZN4Heap4pushEP4Grid>
     e59:	48 8d 85 f0 ff df ff 	lea    -0x200010(%rbp),%rax
     e60:	48 89 c7             	mov    %rax,%rdi
     e63:	e8 0c ab 00 00       	callq  b974 <_ZN4Heap3popEv>
     e68:	48 8d 85 30 ed df ff 	lea    -0x2012d0(%rbp),%rax
     e6f:	48 8d 50 0c          	lea    0xc(%rax),%rdx
     e73:	48 8d 85 f0 ff df ff 	lea    -0x200010(%rbp),%rax
     e7a:	48 89 d6             	mov    %rdx,%rsi
     e7d:	48 89 c7             	mov    %rax,%rdi
     e80:	e8 b9 a9 00 00       	callq  b83e <_ZN4Heap4pushEP4Grid>
     e85:	48 8d 85 f0 ff df ff 	lea    -0x200010(%rbp),%rax
     e8c:	48 89 c7             	mov    %rax,%rdi
     e8f:	e8 e0 aa 00 00       	callq  b974 <_ZN4Heap3popEv>
     e94:	48 8d 85 30 ed df ff 	lea    -0x2012d0(%rbp),%rax
     e9b:	48 8d 50 0c          	lea    0xc(%rax),%rdx
     e9f:	48 8d 85 f0 ff df ff 	lea    -0x200010(%rbp),%rax
     ea6:	48 89 d6             	mov    %rdx,%rsi
     ea9:	48 89 c7             	mov    %rax,%rdi
     eac:	e8 8d a9 00 00       	callq  b83e <_ZN4Heap4pushEP4Grid>
     eb1:	48 8d 85 f0 ff df ff 	lea    -0x200010(%rbp),%rax
     eb8:	48 89 c7             	mov    %rax,%rdi
     ebb:	e8 b4 aa 00 00       	callq  b974 <_ZN4Heap3popEv>
     ec0:	48 8d 85 30 ed df ff 	lea    -0x2012d0(%rbp),%rax
     ec7:	48 8d 50 0c          	lea    0xc(%rax),%rdx
     ecb:	48 8d 85 f0 ff df ff 	lea    -0x200010(%rbp),%rax
     ed2:	48 89 d6             	mov    %rdx,%rsi
     ed5:	48 89 c7             	mov    %rax,%rdi
     ed8:	e8 61 a9 00 00       	callq  b83e <_ZN4Heap4pushEP4Grid>
     edd:	48 8d 85 f0 ff df ff 	lea    -0x200010(%rbp),%rax
     ee4:	48 89 c7             	mov    %rax,%rdi
     ee7:	e8 88 aa 00 00       	callq  b974 <_ZN4Heap3popEv>
     eec:	48 8d 85 30 ed df ff 	lea    -0x2012d0(%rbp),%rax
     ef3:	48 8d 50 0c          	lea    0xc(%rax),%rdx
     ef7:	48 8d 85 f0 ff df ff 	lea    -0x200010(%rbp),%rax
     efe:	48 89 d6             	mov    %rdx,%rsi
     f01:	48 89 c7             	mov    %rax,%rdi
     f04:	e8 35 a9 00 00       	callq  b83e <_ZN4Heap4pushEP4Grid>
     f09:	48 8d 85 f0 ff df ff 	lea    -0x200010(%rbp),%rax
     f10:	48 89 c7             	mov    %rax,%rdi
     f13:	e8 5c aa 00 00       	callq  b974 <_ZN4Heap3popEv>
     f18:	48 8d 85 30 ed df ff 	lea    -0x2012d0(%rbp),%rax
     f1f:	48 8d 50 0c          	lea    0xc(%rax),%rdx
     f23:	48 8d 85 f0 ff df ff 	lea    -0x200010(%rbp),%rax
     f2a:	48 89 d6             	mov    %rdx,%rsi
     f2d:	48 89 c7             	mov    %rax,%rdi
     f30:	e8 09 a9 00 00       	callq  b83e <_ZN4Heap4pushEP4Grid>
     f35:	48 8d 85 f0 ff df ff 	lea    -0x200010(%rbp),%rax
     f3c:	48 89 c7             	mov    %rax,%rdi
     f3f:	e8 30 aa 00 00       	callq  b974 <_ZN4Heap3popEv>
     f44:	48 8d 85 30 ed df ff 	lea    -0x2012d0(%rbp),%rax
     f4b:	48 8d 50 0c          	lea    0xc(%rax),%rdx
     f4f:	48 8d 85 f0 ff df ff 	lea    -0x200010(%rbp),%rax
     f56:	48 89 d6             	mov    %rdx,%rsi
     f59:	48 89 c7             	mov    %rax,%rdi
     f5c:	e8 dd a8 00 00       	callq  b83e <_ZN4Heap4pushEP4Grid>
     f61:	48 8d 85 f0 ff df ff 	lea    -0x200010(%rbp),%rax
     f68:	48 89 c7             	mov    %rax,%rdi
     f6b:	e8 04 aa 00 00       	callq  b974 <_ZN4Heap3popEv>
     f70:	48 8d 85 30 ed df ff 	lea    -0x2012d0(%rbp),%rax
     f77:	48 8d 50 0c          	lea    0xc(%rax),%rdx
     f7b:	48 8d 85 f0 ff df ff 	lea    -0x200010(%rbp),%rax
     f82:	48 89 d6             	mov    %rdx,%rsi
     f85:	48 89 c7             	mov    %rax,%rdi
     f88:	e8 b1 a8 00 00       	callq  b83e <_ZN4Heap4pushEP4Grid>
     f8d:	48 8d 85 f0 ff df ff 	lea    -0x200010(%rbp),%rax
     f94:	48 89 c7             	mov    %rax,%rdi
     f97:	e8 d8 a9 00 00       	callq  b974 <_ZN4Heap3popEv>
     f9c:	48 8d 85 30 ed df ff 	lea    -0x2012d0(%rbp),%rax
     fa3:	48 8d 50 0c          	lea    0xc(%rax),%rdx
     fa7:	48 8d 85 f0 ff df ff 	lea    -0x200010(%rbp),%rax
     fae:	48 89 d6             	mov    %rdx,%rsi
     fb1:	48 89 c7             	mov    %rax,%rdi
     fb4:	e8 85 a8 00 00       	callq  b83e <_ZN4Heap4pushEP4Grid>
     fb9:	48 8d 85 f0 ff df ff 	lea    -0x200010(%rbp),%rax
     fc0:	48 89 c7             	mov    %rax,%rdi
     fc3:	e8 ac a9 00 00       	callq  b974 <_ZN4Heap3popEv>
     fc8:	48 8d 85 30 ed df ff 	lea    -0x2012d0(%rbp),%rax
     fcf:	48 8d 50 0c          	lea    0xc(%rax),%rdx
     fd3:	48 8d 85 f0 ff df ff 	lea    -0x200010(%rbp),%rax
     fda:	48 89 d6             	mov    %rdx,%rsi
     fdd:	48 89 c7             	mov    %rax,%rdi
     fe0:	e8 59 a8 00 00       	callq  b83e <_ZN4Heap4pushEP4Grid>
     fe5:	48 8d 85 f0 ff df ff 	lea    -0x200010(%rbp),%rax
     fec:	48 89 c7             	mov    %rax,%rdi
     fef:	e8 80 a9 00 00       	callq  b974 <_ZN4Heap3popEv>
     ff4:	48 8d 85 30 ed df ff 	lea    -0x2012d0(%rbp),%rax
     ffb:	48 8d 50 0c          	lea    0xc(%rax),%rdx
     fff:	48 8d 85 f0 ff df ff 	lea    -0x200010(%rbp),%rax
    1006:	48 89 d6             	mov    %rdx,%rsi
    1009:	48 89 c7             	mov    %rax,%rdi
    100c:	e8 2d a8 00 00       	callq  b83e <_ZN4Heap4pushEP4Grid>
    1011:	48 8d 85 f0 ff df ff 	lea    -0x200010(%rbp),%rax
    1018:	48 89 c7             	mov    %rax,%rdi
    101b:	e8 54 a9 00 00       	callq  b974 <_ZN4Heap3popEv>
    1020:	48 8d 85 30 ed df ff 	lea    -0x2012d0(%rbp),%rax
    1027:	48 8d 50 0c          	lea    0xc(%rax),%rdx
    102b:	48 8d 85 f0 ff df ff 	lea    -0x200010(%rbp),%rax
    1032:	48 89 d6             	mov    %rdx,%rsi
    1035:	48 89 c7             	mov    %rax,%rdi
    1038:	e8 01 a8 00 00       	callq  b83e <_ZN4Heap4pushEP4Grid>
    103d:	48 8d 85 f0 ff df ff 	lea    -0x200010(%rbp),%rax
    1044:	48 89 c7             	mov    %rax,%rdi
    1047:	e8 28 a9 00 00       	callq  b974 <_ZN4Heap3popEv>
    104c:	48 8d 85 30 ed df ff 	lea    -0x2012d0(%rbp),%rax
    1053:	48 8d 50 0c          	lea    0xc(%rax),%rdx
    1057:	48 8d 85 f0 ff df ff 	lea    -0x200010(%rbp),%rax
    105e:	48 89 d6             	mov    %rdx,%rsi
    1061:	48 89 c7             	mov    %rax,%rdi
    1064:	e8 d5 a7 00 00       	callq  b83e <_ZN4Heap4pushEP4Grid>
    1069:	48 8d 85 f0 ff df ff 	lea    -0x200010(%rbp),%rax
    1070:	48 89 c7             	mov    %rax,%rdi
    1073:	e8 fc a8 00 00       	callq  b974 <_ZN4Heap3popEv>
    1078:	48 8d 85 30 ed df ff 	lea    -0x2012d0(%rbp),%rax
    107f:	48 8d 50 0c          	lea    0xc(%rax),%rdx
    1083:	48 8d 85 f0 ff df ff 	lea    -0x200010(%rbp),%rax
    108a:	48 89 d6             	mov    %rdx,%rsi
    108d:	48 89 c7             	mov    %rax,%rdi
    1090:	e8 a9 a7 00 00       	callq  b83e <_ZN4Heap4pushEP4Grid>
    1095:	48 8d 85 f0 ff df ff 	lea    -0x200010(%rbp),%rax
    109c:	48 89 c7             	mov    %rax,%rdi
    109f:	e8 d0 a8 00 00       	callq  b974 <_ZN4Heap3popEv>
    10a4:	48 8d 85 30 ed df ff 	lea    -0x2012d0(%rbp),%rax
    10ab:	48 8d 50 0c          	lea    0xc(%rax),%rdx
    10af:	48 8d 85 f0 ff df ff 	lea    -0x200010(%rbp),%rax
    10b6:	48 89 d6             	mov    %rdx,%rsi
    10b9:	48 89 c7             	mov    %rax,%rdi
    10bc:	e8 7d a7 00 00       	callq  b83e <_ZN4Heap4pushEP4Grid>
    10c1:	48 8d 85 f0 ff df ff 	lea    -0x200010(%rbp),%rax
    10c8:	48 89 c7             	mov    %rax,%rdi
    10cb:	e8 a4 a8 00 00       	callq  b974 <_ZN4Heap3popEv>
    10d0:	48 8d 85 30 ed df ff 	lea    -0x2012d0(%rbp),%rax
    10d7:	48 8d 50 0c          	lea    0xc(%rax),%rdx
    10db:	48 8d 85 f0 ff df ff 	lea    -0x200010(%rbp),%rax
    10e2:	48 89 d6             	mov    %rdx,%rsi
    10e5:	48 89 c7             	mov    %rax,%rdi
    10e8:	e8 51 a7 00 00       	callq  b83e <_ZN4Heap4pushEP4Grid>
    10ed:	48 8d 85 f0 ff df ff 	lea    -0x200010(%rbp),%rax
    10f4:	48 89 c7             	mov    %rax,%rdi
    10f7:	e8 78 a8 00 00       	callq  b974 <_ZN4Heap3popEv>
    10fc:	48 8d 85 30 ed df ff 	lea    -0x2012d0(%rbp),%rax
    1103:	48 8d 50 0c          	lea    0xc(%rax),%rdx
    1107:	48 8d 85 f0 ff df ff 	lea    -0x200010(%rbp),%rax
    110e:	48 89 d6             	mov    %rdx,%rsi
    1111:	48 89 c7             	mov    %rax,%rdi
    1114:	e8 25 a7 00 00       	callq  b83e <_ZN4Heap4pushEP4Grid>
    1119:	48 8d 85 f0 ff df ff 	lea    -0x200010(%rbp),%rax
    1120:	48 89 c7             	mov    %rax,%rdi
    1123:	e8 4c a8 00 00       	callq  b974 <_ZN4Heap3popEv>
    1128:	48 8d 85 30 ed df ff 	lea    -0x2012d0(%rbp),%rax
    112f:	48 8d 50 0c          	lea    0xc(%rax),%rdx
    1133:	48 8d 85 f0 ff df ff 	lea    -0x200010(%rbp),%rax
    113a:	48 89 d6             	mov    %rdx,%rsi
    113d:	48 89 c7             	mov    %rax,%rdi
    1140:	e8 f9 a6 00 00       	callq  b83e <_ZN4Heap4pushEP4Grid>
    1145:	48 8d 85 f0 ff df ff 	lea    -0x200010(%rbp),%rax
    114c:	48 89 c7             	mov    %rax,%rdi
    114f:	e8 20 a8 00 00       	callq  b974 <_ZN4Heap3popEv>
    1154:	48 8d 85 30 ed df ff 	lea    -0x2012d0(%rbp),%rax
    115b:	48 8d 50 0c          	lea    0xc(%rax),%rdx
    115f:	48 8d 85 f0 ff df ff 	lea    -0x200010(%rbp),%rax
    1166:	48 89 d6             	mov    %rdx,%rsi
    1169:	48 89 c7             	mov    %rax,%rdi
    116c:	e8 cd a6 00 00       	callq  b83e <_ZN4Heap4pushEP4Grid>
    1171:	48 8d 85 f0 ff df ff 	lea    -0x200010(%rbp),%rax
    1178:	48 89 c7             	mov    %rax,%rdi
    117b:	e8 f4 a7 00 00       	callq  b974 <_ZN4Heap3popEv>
    1180:	48 8d 85 30 ed df ff 	lea    -0x2012d0(%rbp),%rax
    1187:	48 8d 50 0c          	lea    0xc(%rax),%rdx
    118b:	48 8d 85 f0 ff df ff 	lea    -0x200010(%rbp),%rax
    1192:	48 89 d6             	mov    %rdx,%rsi
    1195:	48 89 c7             	mov    %rax,%rdi
    1198:	e8 a1 a6 00 00       	callq  b83e <_ZN4Heap4pushEP4Grid>
    119d:	48 8d 85 f0 ff df ff 	lea    -0x200010(%rbp),%rax
    11a4:	48 89 c7             	mov    %rax,%rdi
    11a7:	e8 c8 a7 00 00       	callq  b974 <_ZN4Heap3popEv>
    11ac:	48 8d 85 30 ed df ff 	lea    -0x2012d0(%rbp),%rax
    11b3:	48 8d 50 0c          	lea    0xc(%rax),%rdx
    11b7:	48 8d 85 f0 ff df ff 	lea    -0x200010(%rbp),%rax
    11be:	48 89 d6             	mov    %rdx,%rsi
    11c1:	48 89 c7             	mov    %rax,%rdi
    11c4:	e8 75 a6 00 00       	callq  b83e <_ZN4Heap4pushEP4Grid>
    11c9:	48 8d 85 f0 ff df ff 	lea    -0x200010(%rbp),%rax
    11d0:	48 89 c7             	mov    %rax,%rdi
    11d3:	e8 9c a7 00 00       	callq  b974 <_ZN4Heap3popEv>
    11d8:	48 8d 85 30 ed df ff 	lea    -0x2012d0(%rbp),%rax
    11df:	48 8d 50 0c          	lea    0xc(%rax),%rdx
    11e3:	48 8d 85 f0 ff df ff 	lea    -0x200010(%rbp),%rax
    11ea:	48 89 d6             	mov    %rdx,%rsi
    11ed:	48 89 c7             	mov    %rax,%rdi
    11f0:	e8 49 a6 00 00       	callq  b83e <_ZN4Heap4pushEP4Grid>
    11f5:	48 8d 85 f0 ff df ff 	lea    -0x200010(%rbp),%rax
    11fc:	48 89 c7             	mov    %rax,%rdi
    11ff:	e8 70 a7 00 00       	callq  b974 <_ZN4Heap3popEv>
    1204:	48 8d 85 30 ed df ff 	lea    -0x2012d0(%rbp),%rax
    120b:	48 8d 50 0c          	lea    0xc(%rax),%rdx
    120f:	48 8d 85 f0 ff df ff 	lea    -0x200010(%rbp),%rax
    1216:	48 89 d6             	mov    %rdx,%rsi
    1219:	48 89 c7             	mov    %rax,%rdi
    121c:	e8 1d a6 00 00       	callq  b83e <_ZN4Heap4pushEP4Grid>
    1221:	48 8d 85 f0 ff df ff 	lea    -0x200010(%rbp),%rax
    1228:	48 89 c7             	mov    %rax,%rdi
    122b:	e8 44 a7 00 00       	callq  b974 <_ZN4Heap3popEv>
    1230:	48 8d 85 30 ed df ff 	lea    -0x2012d0(%rbp),%rax
    1237:	48 8d 50 0c          	lea    0xc(%rax),%rdx
    123b:	48 8d 85 f0 ff df ff 	lea    -0x200010(%rbp),%rax
    1242:	48 89 d6             	mov    %rdx,%rsi
    1245:	48 89 c7             	mov    %rax,%rdi
    1248:	e8 f1 a5 00 00       	callq  b83e <_ZN4Heap4pushEP4Grid>
    124d:	48 8d 85 f0 ff df ff 	lea    -0x200010(%rbp),%rax
    1254:	48 89 c7             	mov    %rax,%rdi
    1257:	e8 18 a7 00 00       	callq  b974 <_ZN4Heap3popEv>
    125c:	48 8d 85 30 ed df ff 	lea    -0x2012d0(%rbp),%rax
    1263:	48 8d 50 0c          	lea    0xc(%rax),%rdx
    1267:	48 8d 85 f0 ff df ff 	lea    -0x200010(%rbp),%rax
    126e:	48 89 d6             	mov    %rdx,%rsi
    1271:	48 89 c7             	mov    %rax,%rdi
    1274:	e8 c5 a5 00 00       	callq  b83e <_ZN4Heap4pushEP4Grid>
    1279:	48 8d 85 f0 ff df ff 	lea    -0x200010(%rbp),%rax
    1280:	48 89 c7             	mov    %rax,%rdi
    1283:	e8 ec a6 00 00       	callq  b974 <_ZN4Heap3popEv>
    1288:	48 8d 85 30 ed df ff 	lea    -0x2012d0(%rbp),%rax
    128f:	48 8d 50 0c          	lea    0xc(%rax),%rdx
    1293:	48 8d 85 f0 ff df ff 	lea    -0x200010(%rbp),%rax
    129a:	48 89 d6             	mov    %rdx,%rsi
    129d:	48 89 c7             	mov    %rax,%rdi
    12a0:	e8 99 a5 00 00       	callq  b83e <_ZN4Heap4pushEP4Grid>
    12a5:	48 8d 85 f0 ff df ff 	lea    -0x200010(%rbp),%rax
    12ac:	48 89 c7             	mov    %rax,%rdi
    12af:	e8 c0 a6 00 00       	callq  b974 <_ZN4Heap3popEv>
    12b4:	48 8d 85 30 ed df ff 	lea    -0x2012d0(%rbp),%rax
    12bb:	48 8d 50 0c          	lea    0xc(%rax),%rdx
    12bf:	48 8d 85 f0 ff df ff 	lea    -0x200010(%rbp),%rax
    12c6:	48 89 d6             	mov    %rdx,%rsi
    12c9:	48 89 c7             	mov    %rax,%rdi
    12cc:	e8 6d a5 00 00       	callq  b83e <_ZN4Heap4pushEP4Grid>
    12d1:	48 8d 85 f0 ff df ff 	lea    -0x200010(%rbp),%rax
    12d8:	48 89 c7             	mov    %rax,%rdi
    12db:	e8 94 a6 00 00       	callq  b974 <_ZN4Heap3popEv>
    12e0:	48 8d 85 30 ed df ff 	lea    -0x2012d0(%rbp),%rax
    12e7:	48 8d 50 0c          	lea    0xc(%rax),%rdx
    12eb:	48 8d 85 f0 ff df ff 	lea    -0x200010(%rbp),%rax
    12f2:	48 89 d6             	mov    %rdx,%rsi
    12f5:	48 89 c7             	mov    %rax,%rdi
    12f8:	e8 41 a5 00 00       	callq  b83e <_ZN4Heap4pushEP4Grid>
    12fd:	48 8d 85 f0 ff df ff 	lea    -0x200010(%rbp),%rax
    1304:	48 89 c7             	mov    %rax,%rdi
    1307:	e8 68 a6 00 00       	callq  b974 <_ZN4Heap3popEv>
    130c:	48 8d 85 30 ed df ff 	lea    -0x2012d0(%rbp),%rax
    1313:	48 8d 50 0c          	lea    0xc(%rax),%rdx
    1317:	48 8d 85 f0 ff df ff 	lea    -0x200010(%rbp),%rax
    131e:	48 89 d6             	mov    %rdx,%rsi
    1321:	48 89 c7             	mov    %rax,%rdi
    1324:	e8 15 a5 00 00       	callq  b83e <_ZN4Heap4pushEP4Grid>
    1329:	48 8d 85 f0 ff df ff 	lea    -0x200010(%rbp),%rax
    1330:	48 89 c7             	mov    %rax,%rdi
    1333:	e8 3c a6 00 00       	callq  b974 <_ZN4Heap3popEv>
    1338:	48 8d 85 30 ed df ff 	lea    -0x2012d0(%rbp),%rax
    133f:	48 8d 50 0c          	lea    0xc(%rax),%rdx
    1343:	48 8d 85 f0 ff df ff 	lea    -0x200010(%rbp),%rax
    134a:	48 89 d6             	mov    %rdx,%rsi
    134d:	48 89 c7             	mov    %rax,%rdi
    1350:	e8 e9 a4 00 00       	callq  b83e <_ZN4Heap4pushEP4Grid>
    1355:	48 8d 85 f0 ff df ff 	lea    -0x200010(%rbp),%rax
    135c:	48 89 c7             	mov    %rax,%rdi
    135f:	e8 10 a6 00 00       	callq  b974 <_ZN4Heap3popEv>
    1364:	48 8d 85 30 ed df ff 	lea    -0x2012d0(%rbp),%rax
    136b:	48 8d 50 0c          	lea    0xc(%rax),%rdx
    136f:	48 8d 85 f0 ff df ff 	lea    -0x200010(%rbp),%rax
    1376:	48 89 d6             	mov    %rdx,%rsi
    1379:	48 89 c7             	mov    %rax,%rdi
    137c:	e8 bd a4 00 00       	callq  b83e <_ZN4Heap4pushEP4Grid>
    1381:	48 8d 85 f0 ff df ff 	lea    -0x200010(%rbp),%rax
    1388:	48 89 c7             	mov    %rax,%rdi
    138b:	e8 e4 a5 00 00       	callq  b974 <_ZN4Heap3popEv>
    1390:	48 8d 85 30 ed df ff 	lea    -0x2012d0(%rbp),%rax
    1397:	48 8d 50 0c          	lea    0xc(%rax),%rdx
    139b:	48 8d 85 f0 ff df ff 	lea    -0x200010(%rbp),%rax
    13a2:	48 89 d6             	mov    %rdx,%rsi
    13a5:	48 89 c7             	mov    %rax,%rdi
    13a8:	e8 91 a4 00 00       	callq  b83e <_ZN4Heap4pushEP4Grid>
    13ad:	48 8d 85 f0 ff df ff 	lea    -0x200010(%rbp),%rax
    13b4:	48 89 c7             	mov    %rax,%rdi
    13b7:	e8 b8 a5 00 00       	callq  b974 <_ZN4Heap3popEv>
    13bc:	48 8d 85 30 ed df ff 	lea    -0x2012d0(%rbp),%rax
    13c3:	48 8d 50 0c          	lea    0xc(%rax),%rdx
    13c7:	48 8d 85 f0 ff df ff 	lea    -0x200010(%rbp),%rax
    13ce:	48 89 d6             	mov    %rdx,%rsi
    13d1:	48 89 c7             	mov    %rax,%rdi
    13d4:	e8 65 a4 00 00       	callq  b83e <_ZN4Heap4pushEP4Grid>
    13d9:	48 8d 85 f0 ff df ff 	lea    -0x200010(%rbp),%rax
    13e0:	48 89 c7             	mov    %rax,%rdi
    13e3:	e8 8c a5 00 00       	callq  b974 <_ZN4Heap3popEv>
    13e8:	48 8d 85 30 ed df ff 	lea    -0x2012d0(%rbp),%rax
    13ef:	48 8d 50 0c          	lea    0xc(%rax),%rdx
    13f3:	48 8d 85 f0 ff df ff 	lea    -0x200010(%rbp),%rax
    13fa:	48 89 d6             	mov    %rdx,%rsi
    13fd:	48 89 c7             	mov    %rax,%rdi
    1400:	e8 39 a4 00 00       	callq  b83e <_ZN4Heap4pushEP4Grid>
    1405:	48 8d 85 f0 ff df ff 	lea    -0x200010(%rbp),%rax
    140c:	48 89 c7             	mov    %rax,%rdi
    140f:	e8 60 a5 00 00       	callq  b974 <_ZN4Heap3popEv>
    1414:	48 8d 85 30 ed df ff 	lea    -0x2012d0(%rbp),%rax
    141b:	48 8d 50 0c          	lea    0xc(%rax),%rdx
    141f:	48 8d 85 f0 ff df ff 	lea    -0x200010(%rbp),%rax
    1426:	48 89 d6             	mov    %rdx,%rsi
    1429:	48 89 c7             	mov    %rax,%rdi
    142c:	e8 0d a4 00 00       	callq  b83e <_ZN4Heap4pushEP4Grid>
    1431:	48 8d 85 f0 ff df ff 	lea    -0x200010(%rbp),%rax
    1438:	48 89 c7             	mov    %rax,%rdi
    143b:	e8 34 a5 00 00       	callq  b974 <_ZN4Heap3popEv>
    1440:	48 8d 85 30 ed df ff 	lea    -0x2012d0(%rbp),%rax
    1447:	48 8d 50 0c          	lea    0xc(%rax),%rdx
    144b:	48 8d 85 f0 ff df ff 	lea    -0x200010(%rbp),%rax
    1452:	48 89 d6             	mov    %rdx,%rsi
    1455:	48 89 c7             	mov    %rax,%rdi
    1458:	e8 e1 a3 00 00       	callq  b83e <_ZN4Heap4pushEP4Grid>
    145d:	48 8d 85 f0 ff df ff 	lea    -0x200010(%rbp),%rax
    1464:	48 89 c7             	mov    %rax,%rdi
    1467:	e8 08 a5 00 00       	callq  b974 <_ZN4Heap3popEv>
    146c:	48 8d 85 30 ed df ff 	lea    -0x2012d0(%rbp),%rax
    1473:	48 8d 50 0c          	lea    0xc(%rax),%rdx
    1477:	48 8d 85 f0 ff df ff 	lea    -0x200010(%rbp),%rax
    147e:	48 89 d6             	mov    %rdx,%rsi
    1481:	48 89 c7             	mov    %rax,%rdi
    1484:	e8 b5 a3 00 00       	callq  b83e <_ZN4Heap4pushEP4Grid>
    1489:	48 8d 85 f0 ff df ff 	lea    -0x200010(%rbp),%rax
    1490:	48 89 c7             	mov    %rax,%rdi
    1493:	e8 dc a4 00 00       	callq  b974 <_ZN4Heap3popEv>
    1498:	48 8d 85 30 ed df ff 	lea    -0x2012d0(%rbp),%rax
    149f:	48 8d 50 0c          	lea    0xc(%rax),%rdx
    14a3:	48 8d 85 f0 ff df ff 	lea    -0x200010(%rbp),%rax
    14aa:	48 89 d6             	mov    %rdx,%rsi
    14ad:	48 89 c7             	mov    %rax,%rdi
    14b0:	e8 89 a3 00 00       	callq  b83e <_ZN4Heap4pushEP4Grid>
    14b5:	48 8d 85 f0 ff df ff 	lea    -0x200010(%rbp),%rax
    14bc:	48 89 c7             	mov    %rax,%rdi
    14bf:	e8 b0 a4 00 00       	callq  b974 <_ZN4Heap3popEv>
    14c4:	48 8d 85 30 ed df ff 	lea    -0x2012d0(%rbp),%rax
    14cb:	48 8d 50 0c          	lea    0xc(%rax),%rdx
    14cf:	48 8d 85 f0 ff df ff 	lea    -0x200010(%rbp),%rax
    14d6:	48 89 d6             	mov    %rdx,%rsi
    14d9:	48 89 c7             	mov    %rax,%rdi
    14dc:	e8 5d a3 00 00       	callq  b83e <_ZN4Heap4pushEP4Grid>
    14e1:	48 8d 85 f0 ff df ff 	lea    -0x200010(%rbp),%rax
    14e8:	48 89 c7             	mov    %rax,%rdi
    14eb:	e8 84 a4 00 00       	callq  b974 <_ZN4Heap3popEv>
    14f0:	48 8d 85 30 ed df ff 	lea    -0x2012d0(%rbp),%rax
    14f7:	48 8d 50 0c          	lea    0xc(%rax),%rdx
    14fb:	48 8d 85 f0 ff df ff 	lea    -0x200010(%rbp),%rax
    1502:	48 89 d6             	mov    %rdx,%rsi
    1505:	48 89 c7             	mov    %rax,%rdi
    1508:	e8 31 a3 00 00       	callq  b83e <_ZN4Heap4pushEP4Grid>
    150d:	48 8d 85 f0 ff df ff 	lea    -0x200010(%rbp),%rax
    1514:	48 89 c7             	mov    %rax,%rdi
    1517:	e8 58 a4 00 00       	callq  b974 <_ZN4Heap3popEv>
    151c:	48 8d 85 30 ed df ff 	lea    -0x2012d0(%rbp),%rax
    1523:	48 8d 50 0c          	lea    0xc(%rax),%rdx
    1527:	48 8d 85 f0 ff df ff 	lea    -0x200010(%rbp),%rax
    152e:	48 89 d6             	mov    %rdx,%rsi
    1531:	48 89 c7             	mov    %rax,%rdi
    1534:	e8 05 a3 00 00       	callq  b83e <_ZN4Heap4pushEP4Grid>
    1539:	48 8d 85 f0 ff df ff 	lea    -0x200010(%rbp),%rax
    1540:	48 89 c7             	mov    %rax,%rdi
    1543:	e8 2c a4 00 00       	callq  b974 <_ZN4Heap3popEv>
    1548:	48 8d 85 30 ed df ff 	lea    -0x2012d0(%rbp),%rax
    154f:	48 8d 50 0c          	lea    0xc(%rax),%rdx
    1553:	48 8d 85 f0 ff df ff 	lea    -0x200010(%rbp),%rax
    155a:	48 89 d6             	mov    %rdx,%rsi
    155d:	48 89 c7             	mov    %rax,%rdi
    1560:	e8 d9 a2 00 00       	callq  b83e <_ZN4Heap4pushEP4Grid>
    1565:	48 8d 85 f0 ff df ff 	lea    -0x200010(%rbp),%rax
    156c:	48 89 c7             	mov    %rax,%rdi
    156f:	e8 00 a4 00 00       	callq  b974 <_ZN4Heap3popEv>
    1574:	48 8d 85 30 ed df ff 	lea    -0x2012d0(%rbp),%rax
    157b:	48 8d 50 0c          	lea    0xc(%rax),%rdx
    157f:	48 8d 85 f0 ff df ff 	lea    -0x200010(%rbp),%rax
    1586:	48 89 d6             	mov    %rdx,%rsi
    1589:	48 89 c7             	mov    %rax,%rdi
    158c:	e8 ad a2 00 00       	callq  b83e <_ZN4Heap4pushEP4Grid>
    1591:	48 8d 85 f0 ff df ff 	lea    -0x200010(%rbp),%rax
    1598:	48 89 c7             	mov    %rax,%rdi
    159b:	e8 d4 a3 00 00       	callq  b974 <_ZN4Heap3popEv>
    15a0:	48 8d 85 30 ed df ff 	lea    -0x2012d0(%rbp),%rax
    15a7:	48 8d 50 0c          	lea    0xc(%rax),%rdx
    15ab:	48 8d 85 f0 ff df ff 	lea    -0x200010(%rbp),%rax
    15b2:	48 89 d6             	mov    %rdx,%rsi
    15b5:	48 89 c7             	mov    %rax,%rdi
    15b8:	e8 81 a2 00 00       	callq  b83e <_ZN4Heap4pushEP4Grid>
    15bd:	48 8d 85 f0 ff df ff 	lea    -0x200010(%rbp),%rax
    15c4:	48 89 c7             	mov    %rax,%rdi
    15c7:	e8 a8 a3 00 00       	callq  b974 <_ZN4Heap3popEv>
    15cc:	48 8d 85 30 ed df ff 	lea    -0x2012d0(%rbp),%rax
    15d3:	48 8d 50 0c          	lea    0xc(%rax),%rdx
    15d7:	48 8d 85 f0 ff df ff 	lea    -0x200010(%rbp),%rax
    15de:	48 89 d6             	mov    %rdx,%rsi
    15e1:	48 89 c7             	mov    %rax,%rdi
    15e4:	e8 55 a2 00 00       	callq  b83e <_ZN4Heap4pushEP4Grid>
    15e9:	48 8d 85 f0 ff df ff 	lea    -0x200010(%rbp),%rax
    15f0:	48 89 c7             	mov    %rax,%rdi
    15f3:	e8 7c a3 00 00       	callq  b974 <_ZN4Heap3popEv>
    15f8:	48 8d 85 30 ed df ff 	lea    -0x2012d0(%rbp),%rax
    15ff:	48 8d 50 0c          	lea    0xc(%rax),%rdx
    1603:	48 8d 85 f0 ff df ff 	lea    -0x200010(%rbp),%rax
    160a:	48 89 d6             	mov    %rdx,%rsi
    160d:	48 89 c7             	mov    %rax,%rdi
    1610:	e8 29 a2 00 00       	callq  b83e <_ZN4Heap4pushEP4Grid>
    1615:	48 8d 85 f0 ff df ff 	lea    -0x200010(%rbp),%rax
    161c:	48 89 c7             	mov    %rax,%rdi
    161f:	e8 50 a3 00 00       	callq  b974 <_ZN4Heap3popEv>
    1624:	48 8d 85 30 ed df ff 	lea    -0x2012d0(%rbp),%rax
    162b:	48 8d 50 0c          	lea    0xc(%rax),%rdx
    162f:	48 8d 85 f0 ff df ff 	lea    -0x200010(%rbp),%rax
    1636:	48 89 d6             	mov    %rdx,%rsi
    1639:	48 89 c7             	mov    %rax,%rdi
    163c:	e8 fd a1 00 00       	callq  b83e <_ZN4Heap4pushEP4Grid>
    1641:	48 8d 85 f0 ff df ff 	lea    -0x200010(%rbp),%rax
    1648:	48 89 c7             	mov    %rax,%rdi
    164b:	e8 24 a3 00 00       	callq  b974 <_ZN4Heap3popEv>
    1650:	48 8d 85 30 ed df ff 	lea    -0x2012d0(%rbp),%rax
    1657:	48 8d 50 0c          	lea    0xc(%rax),%rdx
    165b:	48 8d 85 f0 ff df ff 	lea    -0x200010(%rbp),%rax
    1662:	48 89 d6             	mov    %rdx,%rsi
    1665:	48 89 c7             	mov    %rax,%rdi
    1668:	e8 d1 a1 00 00       	callq  b83e <_ZN4Heap4pushEP4Grid>
    166d:	48 8d 85 f0 ff df ff 	lea    -0x200010(%rbp),%rax
    1674:	48 89 c7             	mov    %rax,%rdi
    1677:	e8 f8 a2 00 00       	callq  b974 <_ZN4Heap3popEv>
    167c:	48 8d 85 30 ed df ff 	lea    -0x2012d0(%rbp),%rax
    1683:	48 8d 50 0c          	lea    0xc(%rax),%rdx
    1687:	48 8d 85 f0 ff df ff 	lea    -0x200010(%rbp),%rax
    168e:	48 89 d6             	mov    %rdx,%rsi
    1691:	48 89 c7             	mov    %rax,%rdi
    1694:	e8 a5 a1 00 00       	callq  b83e <_ZN4Heap4pushEP4Grid>
    1699:	48 8d 85 f0 ff df ff 	lea    -0x200010(%rbp),%rax
    16a0:	48 89 c7             	mov    %rax,%rdi
    16a3:	e8 cc a2 00 00       	callq  b974 <_ZN4Heap3popEv>
    16a8:	48 8d 85 30 ed df ff 	lea    -0x2012d0(%rbp),%rax
    16af:	48 8d 50 0c          	lea    0xc(%rax),%rdx
    16b3:	48 8d 85 f0 ff df ff 	lea    -0x200010(%rbp),%rax
    16ba:	48 89 d6             	mov    %rdx,%rsi
    16bd:	48 89 c7             	mov    %rax,%rdi
    16c0:	e8 79 a1 00 00       	callq  b83e <_ZN4Heap4pushEP4Grid>
    16c5:	48 8d 85 f0 ff df ff 	lea    -0x200010(%rbp),%rax
    16cc:	48 89 c7             	mov    %rax,%rdi
    16cf:	e8 a0 a2 00 00       	callq  b974 <_ZN4Heap3popEv>
    16d4:	48 8d 85 30 ed df ff 	lea    -0x2012d0(%rbp),%rax
    16db:	48 8d 50 0c          	lea    0xc(%rax),%rdx
    16df:	48 8d 85 f0 ff df ff 	lea    -0x200010(%rbp),%rax
    16e6:	48 89 d6             	mov    %rdx,%rsi
    16e9:	48 89 c7             	mov    %rax,%rdi
    16ec:	e8 4d a1 00 00       	callq  b83e <_ZN4Heap4pushEP4Grid>
    16f1:	48 8d 85 f0 ff df ff 	lea    -0x200010(%rbp),%rax
    16f8:	48 89 c7             	mov    %rax,%rdi
    16fb:	e8 74 a2 00 00       	callq  b974 <_ZN4Heap3popEv>
    1700:	48 8d 85 30 ed df ff 	lea    -0x2012d0(%rbp),%rax
    1707:	48 8d 50 0c          	lea    0xc(%rax),%rdx
    170b:	48 8d 85 f0 ff df ff 	lea    -0x200010(%rbp),%rax
    1712:	48 89 d6             	mov    %rdx,%rsi
    1715:	48 89 c7             	mov    %rax,%rdi
    1718:	e8 21 a1 00 00       	callq  b83e <_ZN4Heap4pushEP4Grid>
    171d:	48 8d 85 f0 ff df ff 	lea    -0x200010(%rbp),%rax
    1724:	48 89 c7             	mov    %rax,%rdi
    1727:	e8 48 a2 00 00       	callq  b974 <_ZN4Heap3popEv>
    172c:	48 8d 85 30 ed df ff 	lea    -0x2012d0(%rbp),%rax
    1733:	48 8d 50 0c          	lea    0xc(%rax),%rdx
    1737:	48 8d 85 f0 ff df ff 	lea    -0x200010(%rbp),%rax
    173e:	48 89 d6             	mov    %rdx,%rsi
    1741:	48 89 c7             	mov    %rax,%rdi
    1744:	e8 f5 a0 00 00       	callq  b83e <_ZN4Heap4pushEP4Grid>
    1749:	48 8d 85 f0 ff df ff 	lea    -0x200010(%rbp),%rax
    1750:	48 89 c7             	mov    %rax,%rdi
    1753:	e8 1c a2 00 00       	callq  b974 <_ZN4Heap3popEv>
    1758:	48 8d 85 30 ed df ff 	lea    -0x2012d0(%rbp),%rax
    175f:	48 8d 50 0c          	lea    0xc(%rax),%rdx
    1763:	48 8d 85 f0 ff df ff 	lea    -0x200010(%rbp),%rax
    176a:	48 89 d6             	mov    %rdx,%rsi
    176d:	48 89 c7             	mov    %rax,%rdi
    1770:	e8 c9 a0 00 00       	callq  b83e <_ZN4Heap4pushEP4Grid>
    1775:	48 8d 85 f0 ff df ff 	lea    -0x200010(%rbp),%rax
    177c:	48 89 c7             	mov    %rax,%rdi
    177f:	e8 f0 a1 00 00       	callq  b974 <_ZN4Heap3popEv>
    1784:	48 8d 85 30 ed df ff 	lea    -0x2012d0(%rbp),%rax
    178b:	48 8d 50 0c          	lea    0xc(%rax),%rdx
    178f:	48 8d 85 f0 ff df ff 	lea    -0x200010(%rbp),%rax
    1796:	48 89 d6             	mov    %rdx,%rsi
    1799:	48 89 c7             	mov    %rax,%rdi
    179c:	e8 9d a0 00 00       	callq  b83e <_ZN4Heap4pushEP4Grid>
    17a1:	48 8d 85 f0 ff df ff 	lea    -0x200010(%rbp),%rax
    17a8:	48 89 c7             	mov    %rax,%rdi
    17ab:	e8 c4 a1 00 00       	callq  b974 <_ZN4Heap3popEv>
    17b0:	48 8d 85 30 ed df ff 	lea    -0x2012d0(%rbp),%rax
    17b7:	48 8d 50 0c          	lea    0xc(%rax),%rdx
    17bb:	48 8d 85 f0 ff df ff 	lea    -0x200010(%rbp),%rax
    17c2:	48 89 d6             	mov    %rdx,%rsi
    17c5:	48 89 c7             	mov    %rax,%rdi
    17c8:	e8 71 a0 00 00       	callq  b83e <_ZN4Heap4pushEP4Grid>
    17cd:	48 8d 85 f0 ff df ff 	lea    -0x200010(%rbp),%rax
    17d4:	48 89 c7             	mov    %rax,%rdi
    17d7:	e8 98 a1 00 00       	callq  b974 <_ZN4Heap3popEv>
    17dc:	48 8d 85 30 ed df ff 	lea    -0x2012d0(%rbp),%rax
    17e3:	48 8d 50 0c          	lea    0xc(%rax),%rdx
    17e7:	48 8d 85 f0 ff df ff 	lea    -0x200010(%rbp),%rax
    17ee:	48 89 d6             	mov    %rdx,%rsi
    17f1:	48 89 c7             	mov    %rax,%rdi
    17f4:	e8 45 a0 00 00       	callq  b83e <_ZN4Heap4pushEP4Grid>
    17f9:	48 8d 85 f0 ff df ff 	lea    -0x200010(%rbp),%rax
    1800:	48 89 c7             	mov    %rax,%rdi
    1803:	e8 6c a1 00 00       	callq  b974 <_ZN4Heap3popEv>
    1808:	48 8d 85 30 ed df ff 	lea    -0x2012d0(%rbp),%rax
    180f:	48 8d 50 0c          	lea    0xc(%rax),%rdx
    1813:	48 8d 85 f0 ff df ff 	lea    -0x200010(%rbp),%rax
    181a:	48 89 d6             	mov    %rdx,%rsi
    181d:	48 89 c7             	mov    %rax,%rdi
    1820:	e8 19 a0 00 00       	callq  b83e <_ZN4Heap4pushEP4Grid>
    1825:	48 8d 85 f0 ff df ff 	lea    -0x200010(%rbp),%rax
    182c:	48 89 c7             	mov    %rax,%rdi
    182f:	e8 40 a1 00 00       	callq  b974 <_ZN4Heap3popEv>
    1834:	48 8d 85 30 ed df ff 	lea    -0x2012d0(%rbp),%rax
    183b:	48 8d 50 0c          	lea    0xc(%rax),%rdx
    183f:	48 8d 85 f0 ff df ff 	lea    -0x200010(%rbp),%rax
    1846:	48 89 d6             	mov    %rdx,%rsi
    1849:	48 89 c7             	mov    %rax,%rdi
    184c:	e8 ed 9f 00 00       	callq  b83e <_ZN4Heap4pushEP4Grid>
    1851:	48 8d 85 f0 ff df ff 	lea    -0x200010(%rbp),%rax
    1858:	48 89 c7             	mov    %rax,%rdi
    185b:	e8 14 a1 00 00       	callq  b974 <_ZN4Heap3popEv>
    1860:	48 8d 85 30 ed df ff 	lea    -0x2012d0(%rbp),%rax
    1867:	48 8d 50 0c          	lea    0xc(%rax),%rdx
    186b:	48 8d 85 f0 ff df ff 	lea    -0x200010(%rbp),%rax
    1872:	48 89 d6             	mov    %rdx,%rsi
    1875:	48 89 c7             	mov    %rax,%rdi
    1878:	e8 c1 9f 00 00       	callq  b83e <_ZN4Heap4pushEP4Grid>
    187d:	48 8d 85 f0 ff df ff 	lea    -0x200010(%rbp),%rax
    1884:	48 89 c7             	mov    %rax,%rdi
    1887:	e8 e8 a0 00 00       	callq  b974 <_ZN4Heap3popEv>
    188c:	48 8d 85 30 ed df ff 	lea    -0x2012d0(%rbp),%rax
    1893:	48 8d 50 0c          	lea    0xc(%rax),%rdx
    1897:	48 8d 85 f0 ff df ff 	lea    -0x200010(%rbp),%rax
    189e:	48 89 d6             	mov    %rdx,%rsi
    18a1:	48 89 c7             	mov    %rax,%rdi
    18a4:	e8 95 9f 00 00       	callq  b83e <_ZN4Heap4pushEP4Grid>
    18a9:	48 8d 85 f0 ff df ff 	lea    -0x200010(%rbp),%rax
    18b0:	48 89 c7             	mov    %rax,%rdi
    18b3:	e8 bc a0 00 00       	callq  b974 <_ZN4Heap3popEv>
    18b8:	48 8d 85 30 ed df ff 	lea    -0x2012d0(%rbp),%rax
    18bf:	48 8d 50 0c          	lea    0xc(%rax),%rdx
    18c3:	48 8d 85 f0 ff df ff 	lea    -0x200010(%rbp),%rax
    18ca:	48 89 d6             	mov    %rdx,%rsi
    18cd:	48 89 c7             	mov    %rax,%rdi
    18d0:	e8 69 9f 00 00       	callq  b83e <_ZN4Heap4pushEP4Grid>
    18d5:	48 8d 85 f0 ff df ff 	lea    -0x200010(%rbp),%rax
    18dc:	48 89 c7             	mov    %rax,%rdi
    18df:	e8 90 a0 00 00       	callq  b974 <_ZN4Heap3popEv>
    18e4:	48 8d 85 30 ed df ff 	lea    -0x2012d0(%rbp),%rax
    18eb:	48 8d 50 0c          	lea    0xc(%rax),%rdx
    18ef:	48 8d 85 f0 ff df ff 	lea    -0x200010(%rbp),%rax
    18f6:	48 89 d6             	mov    %rdx,%rsi
    18f9:	48 89 c7             	mov    %rax,%rdi
    18fc:	e8 3d 9f 00 00       	callq  b83e <_ZN4Heap4pushEP4Grid>
    1901:	48 8d 85 f0 ff df ff 	lea    -0x200010(%rbp),%rax
    1908:	48 89 c7             	mov    %rax,%rdi
    190b:	e8 64 a0 00 00       	callq  b974 <_ZN4Heap3popEv>
    1910:	48 8d 85 30 ed df ff 	lea    -0x2012d0(%rbp),%rax
    1917:	48 8d 50 0c          	lea    0xc(%rax),%rdx
    191b:	48 8d 85 f0 ff df ff 	lea    -0x200010(%rbp),%rax
    1922:	48 89 d6             	mov    %rdx,%rsi
    1925:	48 89 c7             	mov    %rax,%rdi
    1928:	e8 11 9f 00 00       	callq  b83e <_ZN4Heap4pushEP4Grid>
    192d:	48 8d 85 f0 ff df ff 	lea    -0x200010(%rbp),%rax
    1934:	48 89 c7             	mov    %rax,%rdi
    1937:	e8 38 a0 00 00       	callq  b974 <_ZN4Heap3popEv>
    193c:	48 8d 85 30 ed df ff 	lea    -0x2012d0(%rbp),%rax
    1943:	48 8d 50 0c          	lea    0xc(%rax),%rdx
    1947:	48 8d 85 f0 ff df ff 	lea    -0x200010(%rbp),%rax
    194e:	48 89 d6             	mov    %rdx,%rsi
    1951:	48 89 c7             	mov    %rax,%rdi
    1954:	e8 e5 9e 00 00       	callq  b83e <_ZN4Heap4pushEP4Grid>
    1959:	48 8d 85 f0 ff df ff 	lea    -0x200010(%rbp),%rax
    1960:	48 89 c7             	mov    %rax,%rdi
    1963:	e8 0c a0 00 00       	callq  b974 <_ZN4Heap3popEv>
    1968:	48 8d 85 30 ed df ff 	lea    -0x2012d0(%rbp),%rax
    196f:	48 8d 50 0c          	lea    0xc(%rax),%rdx
    1973:	48 8d 85 f0 ff df ff 	lea    -0x200010(%rbp),%rax
    197a:	48 89 d6             	mov    %rdx,%rsi
    197d:	48 89 c7             	mov    %rax,%rdi
    1980:	e8 b9 9e 00 00       	callq  b83e <_ZN4Heap4pushEP4Grid>
    1985:	48 8d 85 f0 ff df ff 	lea    -0x200010(%rbp),%rax
    198c:	48 89 c7             	mov    %rax,%rdi
    198f:	e8 e0 9f 00 00       	callq  b974 <_ZN4Heap3popEv>
    1994:	48 8d 85 30 ed df ff 	lea    -0x2012d0(%rbp),%rax
    199b:	48 8d 50 0c          	lea    0xc(%rax),%rdx
    199f:	48 8d 85 f0 ff df ff 	lea    -0x200010(%rbp),%rax
    19a6:	48 89 d6             	mov    %rdx,%rsi
    19a9:	48 89 c7             	mov    %rax,%rdi
    19ac:	e8 8d 9e 00 00       	callq  b83e <_ZN4Heap4pushEP4Grid>
    19b1:	48 8d 85 f0 ff df ff 	lea    -0x200010(%rbp),%rax
    19b8:	48 89 c7             	mov    %rax,%rdi
    19bb:	e8 b4 9f 00 00       	callq  b974 <_ZN4Heap3popEv>
    19c0:	48 8d 85 30 ed df ff 	lea    -0x2012d0(%rbp),%rax
    19c7:	48 8d 50 0c          	lea    0xc(%rax),%rdx
    19cb:	48 8d 85 f0 ff df ff 	lea    -0x200010(%rbp),%rax
    19d2:	48 89 d6             	mov    %rdx,%rsi
    19d5:	48 89 c7             	mov    %rax,%rdi
    19d8:	e8 61 9e 00 00       	callq  b83e <_ZN4Heap4pushEP4Grid>
    19dd:	48 8d 85 f0 ff df ff 	lea    -0x200010(%rbp),%rax
    19e4:	48 89 c7             	mov    %rax,%rdi
    19e7:	e8 88 9f 00 00       	callq  b974 <_ZN4Heap3popEv>
    19ec:	48 8d 85 30 ed df ff 	lea    -0x2012d0(%rbp),%rax
    19f3:	48 8d 50 0c          	lea    0xc(%rax),%rdx
    19f7:	48 8d 85 f0 ff df ff 	lea    -0x200010(%rbp),%rax
    19fe:	48 89 d6             	mov    %rdx,%rsi
    1a01:	48 89 c7             	mov    %rax,%rdi
    1a04:	e8 35 9e 00 00       	callq  b83e <_ZN4Heap4pushEP4Grid>
    1a09:	48 8d 85 f0 ff df ff 	lea    -0x200010(%rbp),%rax
    1a10:	48 89 c7             	mov    %rax,%rdi
    1a13:	e8 5c 9f 00 00       	callq  b974 <_ZN4Heap3popEv>
    1a18:	48 8d 85 30 ed df ff 	lea    -0x2012d0(%rbp),%rax
    1a1f:	48 8d 50 0c          	lea    0xc(%rax),%rdx
    1a23:	48 8d 85 f0 ff df ff 	lea    -0x200010(%rbp),%rax
    1a2a:	48 89 d6             	mov    %rdx,%rsi
    1a2d:	48 89 c7             	mov    %rax,%rdi
    1a30:	e8 09 9e 00 00       	callq  b83e <_ZN4Heap4pushEP4Grid>
    1a35:	48 8d 85 f0 ff df ff 	lea    -0x200010(%rbp),%rax
    1a3c:	48 89 c7             	mov    %rax,%rdi
    1a3f:	e8 30 9f 00 00       	callq  b974 <_ZN4Heap3popEv>
    1a44:	48 8d 85 30 ed df ff 	lea    -0x2012d0(%rbp),%rax
    1a4b:	48 8d 50 0c          	lea    0xc(%rax),%rdx
    1a4f:	48 8d 85 f0 ff df ff 	lea    -0x200010(%rbp),%rax
    1a56:	48 89 d6             	mov    %rdx,%rsi
    1a59:	48 89 c7             	mov    %rax,%rdi
    1a5c:	e8 dd 9d 00 00       	callq  b83e <_ZN4Heap4pushEP4Grid>
    1a61:	48 8d 85 f0 ff df ff 	lea    -0x200010(%rbp),%rax
    1a68:	48 89 c7             	mov    %rax,%rdi
    1a6b:	e8 04 9f 00 00       	callq  b974 <_ZN4Heap3popEv>
    1a70:	48 8d 85 30 ed df ff 	lea    -0x2012d0(%rbp),%rax
    1a77:	48 8d 50 0c          	lea    0xc(%rax),%rdx
    1a7b:	48 8d 85 f0 ff df ff 	lea    -0x200010(%rbp),%rax
    1a82:	48 89 d6             	mov    %rdx,%rsi
    1a85:	48 89 c7             	mov    %rax,%rdi
    1a88:	e8 b1 9d 00 00       	callq  b83e <_ZN4Heap4pushEP4Grid>
    1a8d:	48 8d 85 f0 ff df ff 	lea    -0x200010(%rbp),%rax
    1a94:	48 89 c7             	mov    %rax,%rdi
    1a97:	e8 d8 9e 00 00       	callq  b974 <_ZN4Heap3popEv>
    1a9c:	48 8d 85 30 ed df ff 	lea    -0x2012d0(%rbp),%rax
    1aa3:	48 8d 50 0c          	lea    0xc(%rax),%rdx
    1aa7:	48 8d 85 f0 ff df ff 	lea    -0x200010(%rbp),%rax
    1aae:	48 89 d6             	mov    %rdx,%rsi
    1ab1:	48 89 c7             	mov    %rax,%rdi
    1ab4:	e8 85 9d 00 00       	callq  b83e <_ZN4Heap4pushEP4Grid>
    1ab9:	48 8d 85 f0 ff df ff 	lea    -0x200010(%rbp),%rax
    1ac0:	48 89 c7             	mov    %rax,%rdi
    1ac3:	e8 ac 9e 00 00       	callq  b974 <_ZN4Heap3popEv>
    1ac8:	48 8d 85 30 ed df ff 	lea    -0x2012d0(%rbp),%rax
    1acf:	48 8d 50 0c          	lea    0xc(%rax),%rdx
    1ad3:	48 8d 85 f0 ff df ff 	lea    -0x200010(%rbp),%rax
    1ada:	48 89 d6             	mov    %rdx,%rsi
    1add:	48 89 c7             	mov    %rax,%rdi
    1ae0:	e8 59 9d 00 00       	callq  b83e <_ZN4Heap4pushEP4Grid>
    1ae5:	48 8d 85 f0 ff df ff 	lea    -0x200010(%rbp),%rax
    1aec:	48 89 c7             	mov    %rax,%rdi
    1aef:	e8 80 9e 00 00       	callq  b974 <_ZN4Heap3popEv>
    1af4:	48 8d 85 30 ed df ff 	lea    -0x2012d0(%rbp),%rax
    1afb:	48 8d 50 0c          	lea    0xc(%rax),%rdx
    1aff:	48 8d 85 f0 ff df ff 	lea    -0x200010(%rbp),%rax
    1b06:	48 89 d6             	mov    %rdx,%rsi
    1b09:	48 89 c7             	mov    %rax,%rdi
    1b0c:	e8 2d 9d 00 00       	callq  b83e <_ZN4Heap4pushEP4Grid>
    1b11:	48 8d 85 f0 ff df ff 	lea    -0x200010(%rbp),%rax
    1b18:	48 89 c7             	mov    %rax,%rdi
    1b1b:	e8 54 9e 00 00       	callq  b974 <_ZN4Heap3popEv>
    1b20:	48 8d 85 30 ed df ff 	lea    -0x2012d0(%rbp),%rax
    1b27:	48 8d 50 0c          	lea    0xc(%rax),%rdx
    1b2b:	48 8d 85 f0 ff df ff 	lea    -0x200010(%rbp),%rax
    1b32:	48 89 d6             	mov    %rdx,%rsi
    1b35:	48 89 c7             	mov    %rax,%rdi
    1b38:	e8 01 9d 00 00       	callq  b83e <_ZN4Heap4pushEP4Grid>
    1b3d:	48 8d 85 f0 ff df ff 	lea    -0x200010(%rbp),%rax
    1b44:	48 89 c7             	mov    %rax,%rdi
    1b47:	e8 28 9e 00 00       	callq  b974 <_ZN4Heap3popEv>
    1b4c:	48 8d 85 30 ed df ff 	lea    -0x2012d0(%rbp),%rax
    1b53:	48 8d 50 0c          	lea    0xc(%rax),%rdx
    1b57:	48 8d 85 f0 ff df ff 	lea    -0x200010(%rbp),%rax
    1b5e:	48 89 d6             	mov    %rdx,%rsi
    1b61:	48 89 c7             	mov    %rax,%rdi
    1b64:	e8 d5 9c 00 00       	callq  b83e <_ZN4Heap4pushEP4Grid>
    1b69:	48 8d 85 f0 ff df ff 	lea    -0x200010(%rbp),%rax
    1b70:	48 89 c7             	mov    %rax,%rdi
    1b73:	e8 fc 9d 00 00       	callq  b974 <_ZN4Heap3popEv>
    1b78:	48 8d 85 30 ed df ff 	lea    -0x2012d0(%rbp),%rax
    1b7f:	48 8d 50 0c          	lea    0xc(%rax),%rdx
    1b83:	48 8d 85 f0 ff df ff 	lea    -0x200010(%rbp),%rax
    1b8a:	48 89 d6             	mov    %rdx,%rsi
    1b8d:	48 89 c7             	mov    %rax,%rdi
    1b90:	e8 a9 9c 00 00       	callq  b83e <_ZN4Heap4pushEP4Grid>
    1b95:	48 8d 85 f0 ff df ff 	lea    -0x200010(%rbp),%rax
    1b9c:	48 89 c7             	mov    %rax,%rdi
    1b9f:	e8 d0 9d 00 00       	callq  b974 <_ZN4Heap3popEv>
    1ba4:	48 8d 85 30 ed df ff 	lea    -0x2012d0(%rbp),%rax
    1bab:	48 8d 50 0c          	lea    0xc(%rax),%rdx
    1baf:	48 8d 85 f0 ff df ff 	lea    -0x200010(%rbp),%rax
    1bb6:	48 89 d6             	mov    %rdx,%rsi
    1bb9:	48 89 c7             	mov    %rax,%rdi
    1bbc:	e8 7d 9c 00 00       	callq  b83e <_ZN4Heap4pushEP4Grid>
    1bc1:	48 8d 85 f0 ff df ff 	lea    -0x200010(%rbp),%rax
    1bc8:	48 89 c7             	mov    %rax,%rdi
    1bcb:	e8 a4 9d 00 00       	callq  b974 <_ZN4Heap3popEv>
    1bd0:	48 8d 85 30 ed df ff 	lea    -0x2012d0(%rbp),%rax
    1bd7:	48 8d 50 0c          	lea    0xc(%rax),%rdx
    1bdb:	48 8d 85 f0 ff df ff 	lea    -0x200010(%rbp),%rax
    1be2:	48 89 d6             	mov    %rdx,%rsi
    1be5:	48 89 c7             	mov    %rax,%rdi
    1be8:	e8 51 9c 00 00       	callq  b83e <_ZN4Heap4pushEP4Grid>
    1bed:	48 8d 85 f0 ff df ff 	lea    -0x200010(%rbp),%rax
    1bf4:	48 89 c7             	mov    %rax,%rdi
    1bf7:	e8 78 9d 00 00       	callq  b974 <_ZN4Heap3popEv>
    1bfc:	48 8d 85 30 ed df ff 	lea    -0x2012d0(%rbp),%rax
    1c03:	48 8d 50 0c          	lea    0xc(%rax),%rdx
    1c07:	48 8d 85 f0 ff df ff 	lea    -0x200010(%rbp),%rax
    1c0e:	48 89 d6             	mov    %rdx,%rsi
    1c11:	48 89 c7             	mov    %rax,%rdi
    1c14:	e8 25 9c 00 00       	callq  b83e <_ZN4Heap4pushEP4Grid>
    1c19:	48 8d 85 f0 ff df ff 	lea    -0x200010(%rbp),%rax
    1c20:	48 89 c7             	mov    %rax,%rdi
    1c23:	e8 4c 9d 00 00       	callq  b974 <_ZN4Heap3popEv>
    1c28:	48 8d 85 30 ed df ff 	lea    -0x2012d0(%rbp),%rax
    1c2f:	48 8d 50 0c          	lea    0xc(%rax),%rdx
    1c33:	48 8d 85 f0 ff df ff 	lea    -0x200010(%rbp),%rax
    1c3a:	48 89 d6             	mov    %rdx,%rsi
    1c3d:	48 89 c7             	mov    %rax,%rdi
    1c40:	e8 f9 9b 00 00       	callq  b83e <_ZN4Heap4pushEP4Grid>
    1c45:	48 8d 85 f0 ff df ff 	lea    -0x200010(%rbp),%rax
    1c4c:	48 89 c7             	mov    %rax,%rdi
    1c4f:	e8 20 9d 00 00       	callq  b974 <_ZN4Heap3popEv>
    1c54:	48 8d 85 30 ed df ff 	lea    -0x2012d0(%rbp),%rax
    1c5b:	48 8d 50 0c          	lea    0xc(%rax),%rdx
    1c5f:	48 8d 85 f0 ff df ff 	lea    -0x200010(%rbp),%rax
    1c66:	48 89 d6             	mov    %rdx,%rsi
    1c69:	48 89 c7             	mov    %rax,%rdi
    1c6c:	e8 cd 9b 00 00       	callq  b83e <_ZN4Heap4pushEP4Grid>
    1c71:	48 8d 85 f0 ff df ff 	lea    -0x200010(%rbp),%rax
    1c78:	48 89 c7             	mov    %rax,%rdi
    1c7b:	e8 f4 9c 00 00       	callq  b974 <_ZN4Heap3popEv>
    1c80:	48 8d 85 30 ed df ff 	lea    -0x2012d0(%rbp),%rax
    1c87:	48 8d 50 0c          	lea    0xc(%rax),%rdx
    1c8b:	48 8d 85 f0 ff df ff 	lea    -0x200010(%rbp),%rax
    1c92:	48 89 d6             	mov    %rdx,%rsi
    1c95:	48 89 c7             	mov    %rax,%rdi
    1c98:	e8 a1 9b 00 00       	callq  b83e <_ZN4Heap4pushEP4Grid>
    1c9d:	48 8d 85 f0 ff df ff 	lea    -0x200010(%rbp),%rax
    1ca4:	48 89 c7             	mov    %rax,%rdi
    1ca7:	e8 c8 9c 00 00       	callq  b974 <_ZN4Heap3popEv>
    1cac:	48 8d 85 30 ed df ff 	lea    -0x2012d0(%rbp),%rax
    1cb3:	48 8d 50 0c          	lea    0xc(%rax),%rdx
    1cb7:	48 8d 85 f0 ff df ff 	lea    -0x200010(%rbp),%rax
    1cbe:	48 89 d6             	mov    %rdx,%rsi
    1cc1:	48 89 c7             	mov    %rax,%rdi
    1cc4:	e8 75 9b 00 00       	callq  b83e <_ZN4Heap4pushEP4Grid>
    1cc9:	48 8d 85 f0 ff df ff 	lea    -0x200010(%rbp),%rax
    1cd0:	48 89 c7             	mov    %rax,%rdi
    1cd3:	e8 9c 9c 00 00       	callq  b974 <_ZN4Heap3popEv>
    1cd8:	48 8d 85 30 ed df ff 	lea    -0x2012d0(%rbp),%rax
    1cdf:	48 8d 50 0c          	lea    0xc(%rax),%rdx
    1ce3:	48 8d 85 f0 ff df ff 	lea    -0x200010(%rbp),%rax
    1cea:	48 89 d6             	mov    %rdx,%rsi
    1ced:	48 89 c7             	mov    %rax,%rdi
    1cf0:	e8 49 9b 00 00       	callq  b83e <_ZN4Heap4pushEP4Grid>
    1cf5:	48 8d 85 f0 ff df ff 	lea    -0x200010(%rbp),%rax
    1cfc:	48 89 c7             	mov    %rax,%rdi
    1cff:	e8 70 9c 00 00       	callq  b974 <_ZN4Heap3popEv>
    1d04:	48 8d 85 30 ed df ff 	lea    -0x2012d0(%rbp),%rax
    1d0b:	48 8d 50 0c          	lea    0xc(%rax),%rdx
    1d0f:	48 8d 85 f0 ff df ff 	lea    -0x200010(%rbp),%rax
    1d16:	48 89 d6             	mov    %rdx,%rsi
    1d19:	48 89 c7             	mov    %rax,%rdi
    1d1c:	e8 1d 9b 00 00       	callq  b83e <_ZN4Heap4pushEP4Grid>
    1d21:	48 8d 85 f0 ff df ff 	lea    -0x200010(%rbp),%rax
    1d28:	48 89 c7             	mov    %rax,%rdi
    1d2b:	e8 44 9c 00 00       	callq  b974 <_ZN4Heap3popEv>
    1d30:	48 8d 85 30 ed df ff 	lea    -0x2012d0(%rbp),%rax
    1d37:	48 8d 50 0c          	lea    0xc(%rax),%rdx
    1d3b:	48 8d 85 f0 ff df ff 	lea    -0x200010(%rbp),%rax
    1d42:	48 89 d6             	mov    %rdx,%rsi
    1d45:	48 89 c7             	mov    %rax,%rdi
    1d48:	e8 f1 9a 00 00       	callq  b83e <_ZN4Heap4pushEP4Grid>
    1d4d:	48 8d 85 f0 ff df ff 	lea    -0x200010(%rbp),%rax
    1d54:	48 89 c7             	mov    %rax,%rdi
    1d57:	e8 18 9c 00 00       	callq  b974 <_ZN4Heap3popEv>
    1d5c:	48 8d 85 30 ed df ff 	lea    -0x2012d0(%rbp),%rax
    1d63:	48 8d 50 0c          	lea    0xc(%rax),%rdx
    1d67:	48 8d 85 f0 ff df ff 	lea    -0x200010(%rbp),%rax
    1d6e:	48 89 d6             	mov    %rdx,%rsi
    1d71:	48 89 c7             	mov    %rax,%rdi
    1d74:	e8 c5 9a 00 00       	callq  b83e <_ZN4Heap4pushEP4Grid>
    1d79:	48 8d 85 f0 ff df ff 	lea    -0x200010(%rbp),%rax
    1d80:	48 89 c7             	mov    %rax,%rdi
    1d83:	e8 ec 9b 00 00       	callq  b974 <_ZN4Heap3popEv>
    1d88:	48 8d 85 30 ed df ff 	lea    -0x2012d0(%rbp),%rax
    1d8f:	48 8d 50 0c          	lea    0xc(%rax),%rdx
    1d93:	48 8d 85 f0 ff df ff 	lea    -0x200010(%rbp),%rax
    1d9a:	48 89 d6             	mov    %rdx,%rsi
    1d9d:	48 89 c7             	mov    %rax,%rdi
    1da0:	e8 99 9a 00 00       	callq  b83e <_ZN4Heap4pushEP4Grid>
    1da5:	48 8d 85 f0 ff df ff 	lea    -0x200010(%rbp),%rax
    1dac:	48 89 c7             	mov    %rax,%rdi
    1daf:	e8 c0 9b 00 00       	callq  b974 <_ZN4Heap3popEv>
    1db4:	48 8d 85 30 ed df ff 	lea    -0x2012d0(%rbp),%rax
    1dbb:	48 8d 50 0c          	lea    0xc(%rax),%rdx
    1dbf:	48 8d 85 f0 ff df ff 	lea    -0x200010(%rbp),%rax
    1dc6:	48 89 d6             	mov    %rdx,%rsi
    1dc9:	48 89 c7             	mov    %rax,%rdi
    1dcc:	e8 6d 9a 00 00       	callq  b83e <_ZN4Heap4pushEP4Grid>
    1dd1:	48 8d 85 f0 ff df ff 	lea    -0x200010(%rbp),%rax
    1dd8:	48 89 c7             	mov    %rax,%rdi
    1ddb:	e8 94 9b 00 00       	callq  b974 <_ZN4Heap3popEv>
    1de0:	48 8d 85 30 ed df ff 	lea    -0x2012d0(%rbp),%rax
    1de7:	48 8d 50 0c          	lea    0xc(%rax),%rdx
    1deb:	48 8d 85 f0 ff df ff 	lea    -0x200010(%rbp),%rax
    1df2:	48 89 d6             	mov    %rdx,%rsi
    1df5:	48 89 c7             	mov    %rax,%rdi
    1df8:	e8 41 9a 00 00       	callq  b83e <_ZN4Heap4pushEP4Grid>
    1dfd:	48 8d 85 f0 ff df ff 	lea    -0x200010(%rbp),%rax
    1e04:	48 89 c7             	mov    %rax,%rdi
    1e07:	e8 68 9b 00 00       	callq  b974 <_ZN4Heap3popEv>
    1e0c:	48 8d 85 30 ed df ff 	lea    -0x2012d0(%rbp),%rax
    1e13:	48 8d 50 0c          	lea    0xc(%rax),%rdx
    1e17:	48 8d 85 f0 ff df ff 	lea    -0x200010(%rbp),%rax
    1e1e:	48 89 d6             	mov    %rdx,%rsi
    1e21:	48 89 c7             	mov    %rax,%rdi
    1e24:	e8 15 9a 00 00       	callq  b83e <_ZN4Heap4pushEP4Grid>
    1e29:	48 8d 85 f0 ff df ff 	lea    -0x200010(%rbp),%rax
    1e30:	48 89 c7             	mov    %rax,%rdi
    1e33:	e8 3c 9b 00 00       	callq  b974 <_ZN4Heap3popEv>
    1e38:	48 8d 85 30 ed df ff 	lea    -0x2012d0(%rbp),%rax
    1e3f:	48 8d 50 0c          	lea    0xc(%rax),%rdx
    1e43:	48 8d 85 f0 ff df ff 	lea    -0x200010(%rbp),%rax
    1e4a:	48 89 d6             	mov    %rdx,%rsi
    1e4d:	48 89 c7             	mov    %rax,%rdi
    1e50:	e8 e9 99 00 00       	callq  b83e <_ZN4Heap4pushEP4Grid>
    1e55:	48 8d 85 f0 ff df ff 	lea    -0x200010(%rbp),%rax
    1e5c:	48 89 c7             	mov    %rax,%rdi
    1e5f:	e8 10 9b 00 00       	callq  b974 <_ZN4Heap3popEv>
    1e64:	48 8d 85 30 ed df ff 	lea    -0x2012d0(%rbp),%rax
    1e6b:	48 8d 50 0c          	lea    0xc(%rax),%rdx
    1e6f:	48 8d 85 f0 ff df ff 	lea    -0x200010(%rbp),%rax
    1e76:	48 89 d6             	mov    %rdx,%rsi
    1e79:	48 89 c7             	mov    %rax,%rdi
    1e7c:	e8 bd 99 00 00       	callq  b83e <_ZN4Heap4pushEP4Grid>
    1e81:	48 8d 85 f0 ff df ff 	lea    -0x200010(%rbp),%rax
    1e88:	48 89 c7             	mov    %rax,%rdi
    1e8b:	e8 e4 9a 00 00       	callq  b974 <_ZN4Heap3popEv>
    1e90:	48 8d 85 30 ed df ff 	lea    -0x2012d0(%rbp),%rax
    1e97:	48 8d 50 0c          	lea    0xc(%rax),%rdx
    1e9b:	48 8d 85 f0 ff df ff 	lea    -0x200010(%rbp),%rax
    1ea2:	48 89 d6             	mov    %rdx,%rsi
    1ea5:	48 89 c7             	mov    %rax,%rdi
    1ea8:	e8 91 99 00 00       	callq  b83e <_ZN4Heap4pushEP4Grid>
    1ead:	48 8d 85 f0 ff df ff 	lea    -0x200010(%rbp),%rax
    1eb4:	48 89 c7             	mov    %rax,%rdi
    1eb7:	e8 b8 9a 00 00       	callq  b974 <_ZN4Heap3popEv>
    1ebc:	48 8d 85 30 ed df ff 	lea    -0x2012d0(%rbp),%rax
    1ec3:	48 8d 50 0c          	lea    0xc(%rax),%rdx
    1ec7:	48 8d 85 f0 ff df ff 	lea    -0x200010(%rbp),%rax
    1ece:	48 89 d6             	mov    %rdx,%rsi
    1ed1:	48 89 c7             	mov    %rax,%rdi
    1ed4:	e8 65 99 00 00       	callq  b83e <_ZN4Heap4pushEP4Grid>
    1ed9:	48 8d 85 f0 ff df ff 	lea    -0x200010(%rbp),%rax
    1ee0:	48 89 c7             	mov    %rax,%rdi
    1ee3:	e8 8c 9a 00 00       	callq  b974 <_ZN4Heap3popEv>
    1ee8:	48 8d 85 30 ed df ff 	lea    -0x2012d0(%rbp),%rax
    1eef:	48 8d 50 0c          	lea    0xc(%rax),%rdx
    1ef3:	48 8d 85 f0 ff df ff 	lea    -0x200010(%rbp),%rax
    1efa:	48 89 d6             	mov    %rdx,%rsi
    1efd:	48 89 c7             	mov    %rax,%rdi
    1f00:	e8 39 99 00 00       	callq  b83e <_ZN4Heap4pushEP4Grid>
    1f05:	48 8d 85 f0 ff df ff 	lea    -0x200010(%rbp),%rax
    1f0c:	48 89 c7             	mov    %rax,%rdi
    1f0f:	e8 60 9a 00 00       	callq  b974 <_ZN4Heap3popEv>
    1f14:	48 8d 85 30 ed df ff 	lea    -0x2012d0(%rbp),%rax
    1f1b:	48 8d 50 0c          	lea    0xc(%rax),%rdx
    1f1f:	48 8d 85 f0 ff df ff 	lea    -0x200010(%rbp),%rax
    1f26:	48 89 d6             	mov    %rdx,%rsi
    1f29:	48 89 c7             	mov    %rax,%rdi
    1f2c:	e8 0d 99 00 00       	callq  b83e <_ZN4Heap4pushEP4Grid>
    1f31:	48 8d 85 f0 ff df ff 	lea    -0x200010(%rbp),%rax
    1f38:	48 89 c7             	mov    %rax,%rdi
    1f3b:	e8 34 9a 00 00       	callq  b974 <_ZN4Heap3popEv>
    1f40:	48 8d 85 30 ed df ff 	lea    -0x2012d0(%rbp),%rax
    1f47:	48 8d 50 0c          	lea    0xc(%rax),%rdx
    1f4b:	48 8d 85 f0 ff df ff 	lea    -0x200010(%rbp),%rax
    1f52:	48 89 d6             	mov    %rdx,%rsi
    1f55:	48 89 c7             	mov    %rax,%rdi
    1f58:	e8 e1 98 00 00       	callq  b83e <_ZN4Heap4pushEP4Grid>
    1f5d:	48 8d 85 f0 ff df ff 	lea    -0x200010(%rbp),%rax
    1f64:	48 89 c7             	mov    %rax,%rdi
    1f67:	e8 08 9a 00 00       	callq  b974 <_ZN4Heap3popEv>
    1f6c:	48 8d 85 30 ed df ff 	lea    -0x2012d0(%rbp),%rax
    1f73:	48 8d 50 0c          	lea    0xc(%rax),%rdx
    1f77:	48 8d 85 f0 ff df ff 	lea    -0x200010(%rbp),%rax
    1f7e:	48 89 d6             	mov    %rdx,%rsi
    1f81:	48 89 c7             	mov    %rax,%rdi
    1f84:	e8 b5 98 00 00       	callq  b83e <_ZN4Heap4pushEP4Grid>
    1f89:	48 8d 85 f0 ff df ff 	lea    -0x200010(%rbp),%rax
    1f90:	48 89 c7             	mov    %rax,%rdi
    1f93:	e8 dc 99 00 00       	callq  b974 <_ZN4Heap3popEv>
    1f98:	48 8d 85 30 ed df ff 	lea    -0x2012d0(%rbp),%rax
    1f9f:	48 8d 50 0c          	lea    0xc(%rax),%rdx
    1fa3:	48 8d 85 f0 ff df ff 	lea    -0x200010(%rbp),%rax
    1faa:	48 89 d6             	mov    %rdx,%rsi
    1fad:	48 89 c7             	mov    %rax,%rdi
    1fb0:	e8 89 98 00 00       	callq  b83e <_ZN4Heap4pushEP4Grid>
    1fb5:	48 8d 85 f0 ff df ff 	lea    -0x200010(%rbp),%rax
    1fbc:	48 89 c7             	mov    %rax,%rdi
    1fbf:	e8 b0 99 00 00       	callq  b974 <_ZN4Heap3popEv>
    1fc4:	48 8d 85 30 ed df ff 	lea    -0x2012d0(%rbp),%rax
    1fcb:	48 8d 50 0c          	lea    0xc(%rax),%rdx
    1fcf:	48 8d 85 f0 ff df ff 	lea    -0x200010(%rbp),%rax
    1fd6:	48 89 d6             	mov    %rdx,%rsi
    1fd9:	48 89 c7             	mov    %rax,%rdi
    1fdc:	e8 5d 98 00 00       	callq  b83e <_ZN4Heap4pushEP4Grid>
    1fe1:	48 8d 85 f0 ff df ff 	lea    -0x200010(%rbp),%rax
    1fe8:	48 89 c7             	mov    %rax,%rdi
    1feb:	e8 84 99 00 00       	callq  b974 <_ZN4Heap3popEv>
    1ff0:	48 8d 85 30 ed df ff 	lea    -0x2012d0(%rbp),%rax
    1ff7:	48 8d 50 0c          	lea    0xc(%rax),%rdx
    1ffb:	48 8d 85 f0 ff df ff 	lea    -0x200010(%rbp),%rax
    2002:	48 89 d6             	mov    %rdx,%rsi
    2005:	48 89 c7             	mov    %rax,%rdi
    2008:	e8 31 98 00 00       	callq  b83e <_ZN4Heap4pushEP4Grid>
    200d:	48 8d 85 f0 ff df ff 	lea    -0x200010(%rbp),%rax
    2014:	48 89 c7             	mov    %rax,%rdi
    2017:	e8 58 99 00 00       	callq  b974 <_ZN4Heap3popEv>
    201c:	48 8d 85 30 ed df ff 	lea    -0x2012d0(%rbp),%rax
    2023:	48 8d 50 0c          	lea    0xc(%rax),%rdx
    2027:	48 8d 85 f0 ff df ff 	lea    -0x200010(%rbp),%rax
    202e:	48 89 d6             	mov    %rdx,%rsi
    2031:	48 89 c7             	mov    %rax,%rdi
    2034:	e8 05 98 00 00       	callq  b83e <_ZN4Heap4pushEP4Grid>
    2039:	48 8d 85 f0 ff df ff 	lea    -0x200010(%rbp),%rax
    2040:	48 89 c7             	mov    %rax,%rdi
    2043:	e8 2c 99 00 00       	callq  b974 <_ZN4Heap3popEv>
    2048:	48 8d 85 30 ed df ff 	lea    -0x2012d0(%rbp),%rax
    204f:	48 8d 50 0c          	lea    0xc(%rax),%rdx
    2053:	48 8d 85 f0 ff df ff 	lea    -0x200010(%rbp),%rax
    205a:	48 89 d6             	mov    %rdx,%rsi
    205d:	48 89 c7             	mov    %rax,%rdi
    2060:	e8 d9 97 00 00       	callq  b83e <_ZN4Heap4pushEP4Grid>
    2065:	48 8d 85 f0 ff df ff 	lea    -0x200010(%rbp),%rax
    206c:	48 89 c7             	mov    %rax,%rdi
    206f:	e8 00 99 00 00       	callq  b974 <_ZN4Heap3popEv>
    2074:	48 8d 85 30 ed df ff 	lea    -0x2012d0(%rbp),%rax
    207b:	48 8d 50 0c          	lea    0xc(%rax),%rdx
    207f:	48 8d 85 f0 ff df ff 	lea    -0x200010(%rbp),%rax
    2086:	48 89 d6             	mov    %rdx,%rsi
    2089:	48 89 c7             	mov    %rax,%rdi
    208c:	e8 ad 97 00 00       	callq  b83e <_ZN4Heap4pushEP4Grid>
    2091:	48 8d 85 f0 ff df ff 	lea    -0x200010(%rbp),%rax
    2098:	48 89 c7             	mov    %rax,%rdi
    209b:	e8 d4 98 00 00       	callq  b974 <_ZN4Heap3popEv>
    20a0:	48 8d 85 30 ed df ff 	lea    -0x2012d0(%rbp),%rax
    20a7:	48 8d 50 0c          	lea    0xc(%rax),%rdx
    20ab:	48 8d 85 f0 ff df ff 	lea    -0x200010(%rbp),%rax
    20b2:	48 89 d6             	mov    %rdx,%rsi
    20b5:	48 89 c7             	mov    %rax,%rdi
    20b8:	e8 81 97 00 00       	callq  b83e <_ZN4Heap4pushEP4Grid>
    20bd:	48 8d 85 f0 ff df ff 	lea    -0x200010(%rbp),%rax
    20c4:	48 89 c7             	mov    %rax,%rdi
    20c7:	e8 a8 98 00 00       	callq  b974 <_ZN4Heap3popEv>
    20cc:	48 8d 85 30 ed df ff 	lea    -0x2012d0(%rbp),%rax
    20d3:	48 8d 50 0c          	lea    0xc(%rax),%rdx
    20d7:	48 8d 85 f0 ff df ff 	lea    -0x200010(%rbp),%rax
    20de:	48 89 d6             	mov    %rdx,%rsi
    20e1:	48 89 c7             	mov    %rax,%rdi
    20e4:	e8 55 97 00 00       	callq  b83e <_ZN4Heap4pushEP4Grid>
    20e9:	48 8d 85 f0 ff df ff 	lea    -0x200010(%rbp),%rax
    20f0:	48 89 c7             	mov    %rax,%rdi
    20f3:	e8 7c 98 00 00       	callq  b974 <_ZN4Heap3popEv>
    20f8:	48 8d 85 30 ed df ff 	lea    -0x2012d0(%rbp),%rax
    20ff:	48 8d 50 0c          	lea    0xc(%rax),%rdx
    2103:	48 8d 85 f0 ff df ff 	lea    -0x200010(%rbp),%rax
    210a:	48 89 d6             	mov    %rdx,%rsi
    210d:	48 89 c7             	mov    %rax,%rdi
    2110:	e8 29 97 00 00       	callq  b83e <_ZN4Heap4pushEP4Grid>
    2115:	48 8d 85 f0 ff df ff 	lea    -0x200010(%rbp),%rax
    211c:	48 89 c7             	mov    %rax,%rdi
    211f:	e8 50 98 00 00       	callq  b974 <_ZN4Heap3popEv>
    2124:	48 8d 85 30 ed df ff 	lea    -0x2012d0(%rbp),%rax
    212b:	48 8d 50 0c          	lea    0xc(%rax),%rdx
    212f:	48 8d 85 f0 ff df ff 	lea    -0x200010(%rbp),%rax
    2136:	48 89 d6             	mov    %rdx,%rsi
    2139:	48 89 c7             	mov    %rax,%rdi
    213c:	e8 fd 96 00 00       	callq  b83e <_ZN4Heap4pushEP4Grid>
    2141:	48 8d 85 f0 ff df ff 	lea    -0x200010(%rbp),%rax
    2148:	48 89 c7             	mov    %rax,%rdi
    214b:	e8 24 98 00 00       	callq  b974 <_ZN4Heap3popEv>
    2150:	48 8d 85 30 ed df ff 	lea    -0x2012d0(%rbp),%rax
    2157:	48 8d 50 0c          	lea    0xc(%rax),%rdx
    215b:	48 8d 85 f0 ff df ff 	lea    -0x200010(%rbp),%rax
    2162:	48 89 d6             	mov    %rdx,%rsi
    2165:	48 89 c7             	mov    %rax,%rdi
    2168:	e8 d1 96 00 00       	callq  b83e <_ZN4Heap4pushEP4Grid>
    216d:	48 8d 85 f0 ff df ff 	lea    -0x200010(%rbp),%rax
    2174:	48 89 c7             	mov    %rax,%rdi
    2177:	e8 f8 97 00 00       	callq  b974 <_ZN4Heap3popEv>
    217c:	48 8d 85 30 ed df ff 	lea    -0x2012d0(%rbp),%rax
    2183:	48 8d 50 0c          	lea    0xc(%rax),%rdx
    2187:	48 8d 85 f0 ff df ff 	lea    -0x200010(%rbp),%rax
    218e:	48 89 d6             	mov    %rdx,%rsi
    2191:	48 89 c7             	mov    %rax,%rdi
    2194:	e8 a5 96 00 00       	callq  b83e <_ZN4Heap4pushEP4Grid>
    2199:	48 8d 85 f0 ff df ff 	lea    -0x200010(%rbp),%rax
    21a0:	48 89 c7             	mov    %rax,%rdi
    21a3:	e8 cc 97 00 00       	callq  b974 <_ZN4Heap3popEv>
    21a8:	48 8d 85 30 ed df ff 	lea    -0x2012d0(%rbp),%rax
    21af:	48 8d 50 0c          	lea    0xc(%rax),%rdx
    21b3:	48 8d 85 f0 ff df ff 	lea    -0x200010(%rbp),%rax
    21ba:	48 89 d6             	mov    %rdx,%rsi
    21bd:	48 89 c7             	mov    %rax,%rdi
    21c0:	e8 79 96 00 00       	callq  b83e <_ZN4Heap4pushEP4Grid>
    21c5:	48 8d 85 f0 ff df ff 	lea    -0x200010(%rbp),%rax
    21cc:	48 89 c7             	mov    %rax,%rdi
    21cf:	e8 a0 97 00 00       	callq  b974 <_ZN4Heap3popEv>
    21d4:	48 8d 85 30 ed df ff 	lea    -0x2012d0(%rbp),%rax
    21db:	48 8d 50 0c          	lea    0xc(%rax),%rdx
    21df:	48 8d 85 f0 ff df ff 	lea    -0x200010(%rbp),%rax
    21e6:	48 89 d6             	mov    %rdx,%rsi
    21e9:	48 89 c7             	mov    %rax,%rdi
    21ec:	e8 4d 96 00 00       	callq  b83e <_ZN4Heap4pushEP4Grid>
    21f1:	48 8d 85 f0 ff df ff 	lea    -0x200010(%rbp),%rax
    21f8:	48 89 c7             	mov    %rax,%rdi
    21fb:	e8 74 97 00 00       	callq  b974 <_ZN4Heap3popEv>
    2200:	48 8d 85 30 ed df ff 	lea    -0x2012d0(%rbp),%rax
    2207:	48 8d 50 0c          	lea    0xc(%rax),%rdx
    220b:	48 8d 85 f0 ff df ff 	lea    -0x200010(%rbp),%rax
    2212:	48 89 d6             	mov    %rdx,%rsi
    2215:	48 89 c7             	mov    %rax,%rdi
    2218:	e8 21 96 00 00       	callq  b83e <_ZN4Heap4pushEP4Grid>
    221d:	48 8d 85 f0 ff df ff 	lea    -0x200010(%rbp),%rax
    2224:	48 89 c7             	mov    %rax,%rdi
    2227:	e8 48 97 00 00       	callq  b974 <_ZN4Heap3popEv>
    222c:	48 8d 85 30 ed df ff 	lea    -0x2012d0(%rbp),%rax
    2233:	48 8d 50 0c          	lea    0xc(%rax),%rdx
    2237:	48 8d 85 f0 ff df ff 	lea    -0x200010(%rbp),%rax
    223e:	48 89 d6             	mov    %rdx,%rsi
    2241:	48 89 c7             	mov    %rax,%rdi
    2244:	e8 f5 95 00 00       	callq  b83e <_ZN4Heap4pushEP4Grid>
    2249:	48 8d 85 f0 ff df ff 	lea    -0x200010(%rbp),%rax
    2250:	48 89 c7             	mov    %rax,%rdi
    2253:	e8 1c 97 00 00       	callq  b974 <_ZN4Heap3popEv>
    2258:	48 8d 85 30 ed df ff 	lea    -0x2012d0(%rbp),%rax
    225f:	48 8d 50 0c          	lea    0xc(%rax),%rdx
    2263:	48 8d 85 f0 ff df ff 	lea    -0x200010(%rbp),%rax
    226a:	48 89 d6             	mov    %rdx,%rsi
    226d:	48 89 c7             	mov    %rax,%rdi
    2270:	e8 c9 95 00 00       	callq  b83e <_ZN4Heap4pushEP4Grid>
    2275:	48 8d 85 f0 ff df ff 	lea    -0x200010(%rbp),%rax
    227c:	48 89 c7             	mov    %rax,%rdi
    227f:	e8 f0 96 00 00       	callq  b974 <_ZN4Heap3popEv>
    2284:	48 8d 85 30 ed df ff 	lea    -0x2012d0(%rbp),%rax
    228b:	48 8d 50 0c          	lea    0xc(%rax),%rdx
    228f:	48 8d 85 f0 ff df ff 	lea    -0x200010(%rbp),%rax
    2296:	48 89 d6             	mov    %rdx,%rsi
    2299:	48 89 c7             	mov    %rax,%rdi
    229c:	e8 9d 95 00 00       	callq  b83e <_ZN4Heap4pushEP4Grid>
    22a1:	48 8d 85 f0 ff df ff 	lea    -0x200010(%rbp),%rax
    22a8:	48 89 c7             	mov    %rax,%rdi
    22ab:	e8 c4 96 00 00       	callq  b974 <_ZN4Heap3popEv>
    22b0:	48 8d 85 30 ed df ff 	lea    -0x2012d0(%rbp),%rax
    22b7:	48 8d 50 0c          	lea    0xc(%rax),%rdx
    22bb:	48 8d 85 f0 ff df ff 	lea    -0x200010(%rbp),%rax
    22c2:	48 89 d6             	mov    %rdx,%rsi
    22c5:	48 89 c7             	mov    %rax,%rdi
    22c8:	e8 71 95 00 00       	callq  b83e <_ZN4Heap4pushEP4Grid>
    22cd:	48 8d 85 f0 ff df ff 	lea    -0x200010(%rbp),%rax
    22d4:	48 89 c7             	mov    %rax,%rdi
    22d7:	e8 98 96 00 00       	callq  b974 <_ZN4Heap3popEv>
    22dc:	48 8d 85 30 ed df ff 	lea    -0x2012d0(%rbp),%rax
    22e3:	48 8d 50 0c          	lea    0xc(%rax),%rdx
    22e7:	48 8d 85 f0 ff df ff 	lea    -0x200010(%rbp),%rax
    22ee:	48 89 d6             	mov    %rdx,%rsi
    22f1:	48 89 c7             	mov    %rax,%rdi
    22f4:	e8 45 95 00 00       	callq  b83e <_ZN4Heap4pushEP4Grid>
    22f9:	48 8d 85 f0 ff df ff 	lea    -0x200010(%rbp),%rax
    2300:	48 89 c7             	mov    %rax,%rdi
    2303:	e8 6c 96 00 00       	callq  b974 <_ZN4Heap3popEv>
    2308:	48 8d 85 30 ed df ff 	lea    -0x2012d0(%rbp),%rax
    230f:	48 8d 50 0c          	lea    0xc(%rax),%rdx
    2313:	48 8d 85 f0 ff df ff 	lea    -0x200010(%rbp),%rax
    231a:	48 89 d6             	mov    %rdx,%rsi
    231d:	48 89 c7             	mov    %rax,%rdi
    2320:	e8 19 95 00 00       	callq  b83e <_ZN4Heap4pushEP4Grid>
    2325:	48 8d 85 f0 ff df ff 	lea    -0x200010(%rbp),%rax
    232c:	48 89 c7             	mov    %rax,%rdi
    232f:	e8 40 96 00 00       	callq  b974 <_ZN4Heap3popEv>
    2334:	48 8d 85 30 ed df ff 	lea    -0x2012d0(%rbp),%rax
    233b:	48 8d 50 0c          	lea    0xc(%rax),%rdx
    233f:	48 8d 85 f0 ff df ff 	lea    -0x200010(%rbp),%rax
    2346:	48 89 d6             	mov    %rdx,%rsi
    2349:	48 89 c7             	mov    %rax,%rdi
    234c:	e8 ed 94 00 00       	callq  b83e <_ZN4Heap4pushEP4Grid>
    2351:	48 8d 85 f0 ff df ff 	lea    -0x200010(%rbp),%rax
    2358:	48 89 c7             	mov    %rax,%rdi
    235b:	e8 14 96 00 00       	callq  b974 <_ZN4Heap3popEv>
    2360:	48 8d 85 30 ed df ff 	lea    -0x2012d0(%rbp),%rax
    2367:	48 8d 50 0c          	lea    0xc(%rax),%rdx
    236b:	48 8d 85 f0 ff df ff 	lea    -0x200010(%rbp),%rax
    2372:	48 89 d6             	mov    %rdx,%rsi
    2375:	48 89 c7             	mov    %rax,%rdi
    2378:	e8 c1 94 00 00       	callq  b83e <_ZN4Heap4pushEP4Grid>
    237d:	48 8d 85 f0 ff df ff 	lea    -0x200010(%rbp),%rax
    2384:	48 89 c7             	mov    %rax,%rdi
    2387:	e8 e8 95 00 00       	callq  b974 <_ZN4Heap3popEv>
    238c:	48 8d 85 30 ed df ff 	lea    -0x2012d0(%rbp),%rax
    2393:	48 8d 50 0c          	lea    0xc(%rax),%rdx
    2397:	48 8d 85 f0 ff df ff 	lea    -0x200010(%rbp),%rax
    239e:	48 89 d6             	mov    %rdx,%rsi
    23a1:	48 89 c7             	mov    %rax,%rdi
    23a4:	e8 95 94 00 00       	callq  b83e <_ZN4Heap4pushEP4Grid>
    23a9:	48 8d 85 f0 ff df ff 	lea    -0x200010(%rbp),%rax
    23b0:	48 89 c7             	mov    %rax,%rdi
    23b3:	e8 bc 95 00 00       	callq  b974 <_ZN4Heap3popEv>
    23b8:	48 8d 85 30 ed df ff 	lea    -0x2012d0(%rbp),%rax
    23bf:	48 8d 50 0c          	lea    0xc(%rax),%rdx
    23c3:	48 8d 85 f0 ff df ff 	lea    -0x200010(%rbp),%rax
    23ca:	48 89 d6             	mov    %rdx,%rsi
    23cd:	48 89 c7             	mov    %rax,%rdi
    23d0:	e8 69 94 00 00       	callq  b83e <_ZN4Heap4pushEP4Grid>
    23d5:	48 8d 85 f0 ff df ff 	lea    -0x200010(%rbp),%rax
    23dc:	48 89 c7             	mov    %rax,%rdi
    23df:	e8 90 95 00 00       	callq  b974 <_ZN4Heap3popEv>
    23e4:	48 8d 85 30 ed df ff 	lea    -0x2012d0(%rbp),%rax
    23eb:	48 8d 50 0c          	lea    0xc(%rax),%rdx
    23ef:	48 8d 85 f0 ff df ff 	lea    -0x200010(%rbp),%rax
    23f6:	48 89 d6             	mov    %rdx,%rsi
    23f9:	48 89 c7             	mov    %rax,%rdi
    23fc:	e8 3d 94 00 00       	callq  b83e <_ZN4Heap4pushEP4Grid>
    2401:	48 8d 85 f0 ff df ff 	lea    -0x200010(%rbp),%rax
    2408:	48 89 c7             	mov    %rax,%rdi
    240b:	e8 64 95 00 00       	callq  b974 <_ZN4Heap3popEv>
    2410:	48 8d 85 30 ed df ff 	lea    -0x2012d0(%rbp),%rax
    2417:	48 8d 50 0c          	lea    0xc(%rax),%rdx
    241b:	48 8d 85 f0 ff df ff 	lea    -0x200010(%rbp),%rax
    2422:	48 89 d6             	mov    %rdx,%rsi
    2425:	48 89 c7             	mov    %rax,%rdi
    2428:	e8 11 94 00 00       	callq  b83e <_ZN4Heap4pushEP4Grid>
    242d:	48 8d 85 f0 ff df ff 	lea    -0x200010(%rbp),%rax
    2434:	48 89 c7             	mov    %rax,%rdi
    2437:	e8 38 95 00 00       	callq  b974 <_ZN4Heap3popEv>
    243c:	48 8d 85 30 ed df ff 	lea    -0x2012d0(%rbp),%rax
    2443:	48 8d 50 0c          	lea    0xc(%rax),%rdx
    2447:	48 8d 85 f0 ff df ff 	lea    -0x200010(%rbp),%rax
    244e:	48 89 d6             	mov    %rdx,%rsi
    2451:	48 89 c7             	mov    %rax,%rdi
    2454:	e8 e5 93 00 00       	callq  b83e <_ZN4Heap4pushEP4Grid>
    2459:	48 8d 85 f0 ff df ff 	lea    -0x200010(%rbp),%rax
    2460:	48 89 c7             	mov    %rax,%rdi
    2463:	e8 0c 95 00 00       	callq  b974 <_ZN4Heap3popEv>
    2468:	48 8d 85 30 ed df ff 	lea    -0x2012d0(%rbp),%rax
    246f:	48 8d 50 0c          	lea    0xc(%rax),%rdx
    2473:	48 8d 85 f0 ff df ff 	lea    -0x200010(%rbp),%rax
    247a:	48 89 d6             	mov    %rdx,%rsi
    247d:	48 89 c7             	mov    %rax,%rdi
    2480:	e8 b9 93 00 00       	callq  b83e <_ZN4Heap4pushEP4Grid>
    2485:	48 8d 85 f0 ff df ff 	lea    -0x200010(%rbp),%rax
    248c:	48 89 c7             	mov    %rax,%rdi
    248f:	e8 e0 94 00 00       	callq  b974 <_ZN4Heap3popEv>
    2494:	48 8d 85 30 ed df ff 	lea    -0x2012d0(%rbp),%rax
    249b:	48 8d 50 0c          	lea    0xc(%rax),%rdx
    249f:	48 8d 85 f0 ff df ff 	lea    -0x200010(%rbp),%rax
    24a6:	48 89 d6             	mov    %rdx,%rsi
    24a9:	48 89 c7             	mov    %rax,%rdi
    24ac:	e8 8d 93 00 00       	callq  b83e <_ZN4Heap4pushEP4Grid>
    24b1:	48 8d 85 f0 ff df ff 	lea    -0x200010(%rbp),%rax
    24b8:	48 89 c7             	mov    %rax,%rdi
    24bb:	e8 b4 94 00 00       	callq  b974 <_ZN4Heap3popEv>
    24c0:	48 8d 85 30 ed df ff 	lea    -0x2012d0(%rbp),%rax
    24c7:	48 8d 50 0c          	lea    0xc(%rax),%rdx
    24cb:	48 8d 85 f0 ff df ff 	lea    -0x200010(%rbp),%rax
    24d2:	48 89 d6             	mov    %rdx,%rsi
    24d5:	48 89 c7             	mov    %rax,%rdi
    24d8:	e8 61 93 00 00       	callq  b83e <_ZN4Heap4pushEP4Grid>
    24dd:	48 8d 85 f0 ff df ff 	lea    -0x200010(%rbp),%rax
    24e4:	48 89 c7             	mov    %rax,%rdi
    24e7:	e8 88 94 00 00       	callq  b974 <_ZN4Heap3popEv>
    24ec:	48 8d 85 30 ed df ff 	lea    -0x2012d0(%rbp),%rax
    24f3:	48 8d 50 0c          	lea    0xc(%rax),%rdx
    24f7:	48 8d 85 f0 ff df ff 	lea    -0x200010(%rbp),%rax
    24fe:	48 89 d6             	mov    %rdx,%rsi
    2501:	48 89 c7             	mov    %rax,%rdi
    2504:	e8 35 93 00 00       	callq  b83e <_ZN4Heap4pushEP4Grid>
    2509:	48 8d 85 f0 ff df ff 	lea    -0x200010(%rbp),%rax
    2510:	48 89 c7             	mov    %rax,%rdi
    2513:	e8 5c 94 00 00       	callq  b974 <_ZN4Heap3popEv>
    2518:	48 8d 85 30 ed df ff 	lea    -0x2012d0(%rbp),%rax
    251f:	48 8d 50 0c          	lea    0xc(%rax),%rdx
    2523:	48 8d 85 f0 ff df ff 	lea    -0x200010(%rbp),%rax
    252a:	48 89 d6             	mov    %rdx,%rsi
    252d:	48 89 c7             	mov    %rax,%rdi
    2530:	e8 09 93 00 00       	callq  b83e <_ZN4Heap4pushEP4Grid>
    2535:	48 8d 85 f0 ff df ff 	lea    -0x200010(%rbp),%rax
    253c:	48 89 c7             	mov    %rax,%rdi
    253f:	e8 30 94 00 00       	callq  b974 <_ZN4Heap3popEv>
    2544:	48 8d 85 30 ed df ff 	lea    -0x2012d0(%rbp),%rax
    254b:	48 8d 50 0c          	lea    0xc(%rax),%rdx
    254f:	48 8d 85 f0 ff df ff 	lea    -0x200010(%rbp),%rax
    2556:	48 89 d6             	mov    %rdx,%rsi
    2559:	48 89 c7             	mov    %rax,%rdi
    255c:	e8 dd 92 00 00       	callq  b83e <_ZN4Heap4pushEP4Grid>
    2561:	48 8d 85 f0 ff df ff 	lea    -0x200010(%rbp),%rax
    2568:	48 89 c7             	mov    %rax,%rdi
    256b:	e8 04 94 00 00       	callq  b974 <_ZN4Heap3popEv>
    2570:	48 8d 85 30 ed df ff 	lea    -0x2012d0(%rbp),%rax
    2577:	48 8d 50 0c          	lea    0xc(%rax),%rdx
    257b:	48 8d 85 f0 ff df ff 	lea    -0x200010(%rbp),%rax
    2582:	48 89 d6             	mov    %rdx,%rsi
    2585:	48 89 c7             	mov    %rax,%rdi
    2588:	e8 b1 92 00 00       	callq  b83e <_ZN4Heap4pushEP4Grid>
    258d:	48 8d 85 f0 ff df ff 	lea    -0x200010(%rbp),%rax
    2594:	48 89 c7             	mov    %rax,%rdi
    2597:	e8 d8 93 00 00       	callq  b974 <_ZN4Heap3popEv>
    259c:	48 8d 85 30 ed df ff 	lea    -0x2012d0(%rbp),%rax
    25a3:	48 8d 50 0c          	lea    0xc(%rax),%rdx
    25a7:	48 8d 85 f0 ff df ff 	lea    -0x200010(%rbp),%rax
    25ae:	48 89 d6             	mov    %rdx,%rsi
    25b1:	48 89 c7             	mov    %rax,%rdi
    25b4:	e8 85 92 00 00       	callq  b83e <_ZN4Heap4pushEP4Grid>
    25b9:	48 8d 85 f0 ff df ff 	lea    -0x200010(%rbp),%rax
    25c0:	48 89 c7             	mov    %rax,%rdi
    25c3:	e8 ac 93 00 00       	callq  b974 <_ZN4Heap3popEv>
    25c8:	48 8d 85 30 ed df ff 	lea    -0x2012d0(%rbp),%rax
    25cf:	48 8d 50 0c          	lea    0xc(%rax),%rdx
    25d3:	48 8d 85 f0 ff df ff 	lea    -0x200010(%rbp),%rax
    25da:	48 89 d6             	mov    %rdx,%rsi
    25dd:	48 89 c7             	mov    %rax,%rdi
    25e0:	e8 59 92 00 00       	callq  b83e <_ZN4Heap4pushEP4Grid>
    25e5:	48 8d 85 f0 ff df ff 	lea    -0x200010(%rbp),%rax
    25ec:	48 89 c7             	mov    %rax,%rdi
    25ef:	e8 80 93 00 00       	callq  b974 <_ZN4Heap3popEv>
    25f4:	48 8d 85 30 ed df ff 	lea    -0x2012d0(%rbp),%rax
    25fb:	48 8d 50 0c          	lea    0xc(%rax),%rdx
    25ff:	48 8d 85 f0 ff df ff 	lea    -0x200010(%rbp),%rax
    2606:	48 89 d6             	mov    %rdx,%rsi
    2609:	48 89 c7             	mov    %rax,%rdi
    260c:	e8 2d 92 00 00       	callq  b83e <_ZN4Heap4pushEP4Grid>
    2611:	48 8d 85 f0 ff df ff 	lea    -0x200010(%rbp),%rax
    2618:	48 89 c7             	mov    %rax,%rdi
    261b:	e8 54 93 00 00       	callq  b974 <_ZN4Heap3popEv>
    2620:	48 8d 85 30 ed df ff 	lea    -0x2012d0(%rbp),%rax
    2627:	48 8d 50 0c          	lea    0xc(%rax),%rdx
    262b:	48 8d 85 f0 ff df ff 	lea    -0x200010(%rbp),%rax
    2632:	48 89 d6             	mov    %rdx,%rsi
    2635:	48 89 c7             	mov    %rax,%rdi
    2638:	e8 01 92 00 00       	callq  b83e <_ZN4Heap4pushEP4Grid>
    263d:	48 8d 85 f0 ff df ff 	lea    -0x200010(%rbp),%rax
    2644:	48 89 c7             	mov    %rax,%rdi
    2647:	e8 28 93 00 00       	callq  b974 <_ZN4Heap3popEv>
    264c:	48 8d 85 30 ed df ff 	lea    -0x2012d0(%rbp),%rax
    2653:	48 8d 50 0c          	lea    0xc(%rax),%rdx
    2657:	48 8d 85 f0 ff df ff 	lea    -0x200010(%rbp),%rax
    265e:	48 89 d6             	mov    %rdx,%rsi
    2661:	48 89 c7             	mov    %rax,%rdi
    2664:	e8 d5 91 00 00       	callq  b83e <_ZN4Heap4pushEP4Grid>
    2669:	48 8d 85 f0 ff df ff 	lea    -0x200010(%rbp),%rax
    2670:	48 89 c7             	mov    %rax,%rdi
    2673:	e8 fc 92 00 00       	callq  b974 <_ZN4Heap3popEv>
    2678:	48 8d 85 30 ed df ff 	lea    -0x2012d0(%rbp),%rax
    267f:	48 8d 50 0c          	lea    0xc(%rax),%rdx
    2683:	48 8d 85 f0 ff df ff 	lea    -0x200010(%rbp),%rax
    268a:	48 89 d6             	mov    %rdx,%rsi
    268d:	48 89 c7             	mov    %rax,%rdi
    2690:	e8 a9 91 00 00       	callq  b83e <_ZN4Heap4pushEP4Grid>
    2695:	48 8d 85 f0 ff df ff 	lea    -0x200010(%rbp),%rax
    269c:	48 89 c7             	mov    %rax,%rdi
    269f:	e8 d0 92 00 00       	callq  b974 <_ZN4Heap3popEv>
    26a4:	48 8d 85 30 ed df ff 	lea    -0x2012d0(%rbp),%rax
    26ab:	48 8d 50 0c          	lea    0xc(%rax),%rdx
    26af:	48 8d 85 f0 ff df ff 	lea    -0x200010(%rbp),%rax
    26b6:	48 89 d6             	mov    %rdx,%rsi
    26b9:	48 89 c7             	mov    %rax,%rdi
    26bc:	e8 7d 91 00 00       	callq  b83e <_ZN4Heap4pushEP4Grid>
    26c1:	48 8d 85 f0 ff df ff 	lea    -0x200010(%rbp),%rax
    26c8:	48 89 c7             	mov    %rax,%rdi
    26cb:	e8 a4 92 00 00       	callq  b974 <_ZN4Heap3popEv>
    26d0:	48 8d 85 30 ed df ff 	lea    -0x2012d0(%rbp),%rax
    26d7:	48 8d 50 0c          	lea    0xc(%rax),%rdx
    26db:	48 8d 85 f0 ff df ff 	lea    -0x200010(%rbp),%rax
    26e2:	48 89 d6             	mov    %rdx,%rsi
    26e5:	48 89 c7             	mov    %rax,%rdi
    26e8:	e8 51 91 00 00       	callq  b83e <_ZN4Heap4pushEP4Grid>
    26ed:	48 8d 85 f0 ff df ff 	lea    -0x200010(%rbp),%rax
    26f4:	48 89 c7             	mov    %rax,%rdi
    26f7:	e8 78 92 00 00       	callq  b974 <_ZN4Heap3popEv>
    26fc:	48 8d 85 30 ed df ff 	lea    -0x2012d0(%rbp),%rax
    2703:	48 8d 50 0c          	lea    0xc(%rax),%rdx
    2707:	48 8d 85 f0 ff df ff 	lea    -0x200010(%rbp),%rax
    270e:	48 89 d6             	mov    %rdx,%rsi
    2711:	48 89 c7             	mov    %rax,%rdi
    2714:	e8 25 91 00 00       	callq  b83e <_ZN4Heap4pushEP4Grid>
    2719:	48 8d 85 f0 ff df ff 	lea    -0x200010(%rbp),%rax
    2720:	48 89 c7             	mov    %rax,%rdi
    2723:	e8 4c 92 00 00       	callq  b974 <_ZN4Heap3popEv>
    2728:	48 8d 85 30 ed df ff 	lea    -0x2012d0(%rbp),%rax
    272f:	48 8d 50 0c          	lea    0xc(%rax),%rdx
    2733:	48 8d 85 f0 ff df ff 	lea    -0x200010(%rbp),%rax
    273a:	48 89 d6             	mov    %rdx,%rsi
    273d:	48 89 c7             	mov    %rax,%rdi
    2740:	e8 f9 90 00 00       	callq  b83e <_ZN4Heap4pushEP4Grid>
    2745:	48 8d 85 f0 ff df ff 	lea    -0x200010(%rbp),%rax
    274c:	48 89 c7             	mov    %rax,%rdi
    274f:	e8 20 92 00 00       	callq  b974 <_ZN4Heap3popEv>
    2754:	48 8d 85 30 ed df ff 	lea    -0x2012d0(%rbp),%rax
    275b:	48 8d 50 0c          	lea    0xc(%rax),%rdx
    275f:	48 8d 85 f0 ff df ff 	lea    -0x200010(%rbp),%rax
    2766:	48 89 d6             	mov    %rdx,%rsi
    2769:	48 89 c7             	mov    %rax,%rdi
    276c:	e8 cd 90 00 00       	callq  b83e <_ZN4Heap4pushEP4Grid>
    2771:	48 8d 85 f0 ff df ff 	lea    -0x200010(%rbp),%rax
    2778:	48 89 c7             	mov    %rax,%rdi
    277b:	e8 f4 91 00 00       	callq  b974 <_ZN4Heap3popEv>
    2780:	48 8d 85 30 ed df ff 	lea    -0x2012d0(%rbp),%rax
    2787:	48 8d 50 0c          	lea    0xc(%rax),%rdx
    278b:	48 8d 85 f0 ff df ff 	lea    -0x200010(%rbp),%rax
    2792:	48 89 d6             	mov    %rdx,%rsi
    2795:	48 89 c7             	mov    %rax,%rdi
    2798:	e8 a1 90 00 00       	callq  b83e <_ZN4Heap4pushEP4Grid>
    279d:	48 8d 85 f0 ff df ff 	lea    -0x200010(%rbp),%rax
    27a4:	48 89 c7             	mov    %rax,%rdi
    27a7:	e8 c8 91 00 00       	callq  b974 <_ZN4Heap3popEv>
    27ac:	48 8d 85 30 ed df ff 	lea    -0x2012d0(%rbp),%rax
    27b3:	48 8d 50 0c          	lea    0xc(%rax),%rdx
    27b7:	48 8d 85 f0 ff df ff 	lea    -0x200010(%rbp),%rax
    27be:	48 89 d6             	mov    %rdx,%rsi
    27c1:	48 89 c7             	mov    %rax,%rdi
    27c4:	e8 75 90 00 00       	callq  b83e <_ZN4Heap4pushEP4Grid>
    27c9:	48 8d 85 f0 ff df ff 	lea    -0x200010(%rbp),%rax
    27d0:	48 89 c7             	mov    %rax,%rdi
    27d3:	e8 9c 91 00 00       	callq  b974 <_ZN4Heap3popEv>
    27d8:	48 8d 85 30 ed df ff 	lea    -0x2012d0(%rbp),%rax
    27df:	48 8d 50 0c          	lea    0xc(%rax),%rdx
    27e3:	48 8d 85 f0 ff df ff 	lea    -0x200010(%rbp),%rax
    27ea:	48 89 d6             	mov    %rdx,%rsi
    27ed:	48 89 c7             	mov    %rax,%rdi
    27f0:	e8 49 90 00 00       	callq  b83e <_ZN4Heap4pushEP4Grid>
    27f5:	48 8d 85 f0 ff df ff 	lea    -0x200010(%rbp),%rax
    27fc:	48 89 c7             	mov    %rax,%rdi
    27ff:	e8 70 91 00 00       	callq  b974 <_ZN4Heap3popEv>
    2804:	48 8d 85 30 ed df ff 	lea    -0x2012d0(%rbp),%rax
    280b:	48 8d 50 0c          	lea    0xc(%rax),%rdx
    280f:	48 8d 85 f0 ff df ff 	lea    -0x200010(%rbp),%rax
    2816:	48 89 d6             	mov    %rdx,%rsi
    2819:	48 89 c7             	mov    %rax,%rdi
    281c:	e8 1d 90 00 00       	callq  b83e <_ZN4Heap4pushEP4Grid>
    2821:	48 8d 85 f0 ff df ff 	lea    -0x200010(%rbp),%rax
    2828:	48 89 c7             	mov    %rax,%rdi
    282b:	e8 44 91 00 00       	callq  b974 <_ZN4Heap3popEv>
    2830:	48 8d 85 30 ed df ff 	lea    -0x2012d0(%rbp),%rax
    2837:	48 8d 50 0c          	lea    0xc(%rax),%rdx
    283b:	48 8d 85 f0 ff df ff 	lea    -0x200010(%rbp),%rax
    2842:	48 89 d6             	mov    %rdx,%rsi
    2845:	48 89 c7             	mov    %rax,%rdi
    2848:	e8 f1 8f 00 00       	callq  b83e <_ZN4Heap4pushEP4Grid>
    284d:	48 8d 85 f0 ff df ff 	lea    -0x200010(%rbp),%rax
    2854:	48 89 c7             	mov    %rax,%rdi
    2857:	e8 18 91 00 00       	callq  b974 <_ZN4Heap3popEv>
    285c:	48 8d 85 30 ed df ff 	lea    -0x2012d0(%rbp),%rax
    2863:	48 8d 50 0c          	lea    0xc(%rax),%rdx
    2867:	48 8d 85 f0 ff df ff 	lea    -0x200010(%rbp),%rax
    286e:	48 89 d6             	mov    %rdx,%rsi
    2871:	48 89 c7             	mov    %rax,%rdi
    2874:	e8 c5 8f 00 00       	callq  b83e <_ZN4Heap4pushEP4Grid>
    2879:	48 8d 85 f0 ff df ff 	lea    -0x200010(%rbp),%rax
    2880:	48 89 c7             	mov    %rax,%rdi
    2883:	e8 ec 90 00 00       	callq  b974 <_ZN4Heap3popEv>
    2888:	48 8d 85 30 ed df ff 	lea    -0x2012d0(%rbp),%rax
    288f:	48 8d 50 0c          	lea    0xc(%rax),%rdx
    2893:	48 8d 85 f0 ff df ff 	lea    -0x200010(%rbp),%rax
    289a:	48 89 d6             	mov    %rdx,%rsi
    289d:	48 89 c7             	mov    %rax,%rdi
    28a0:	e8 99 8f 00 00       	callq  b83e <_ZN4Heap4pushEP4Grid>
    28a5:	48 8d 85 f0 ff df ff 	lea    -0x200010(%rbp),%rax
    28ac:	48 89 c7             	mov    %rax,%rdi
    28af:	e8 c0 90 00 00       	callq  b974 <_ZN4Heap3popEv>
    28b4:	48 8d 85 30 ed df ff 	lea    -0x2012d0(%rbp),%rax
    28bb:	48 8d 50 0c          	lea    0xc(%rax),%rdx
    28bf:	48 8d 85 f0 ff df ff 	lea    -0x200010(%rbp),%rax
    28c6:	48 89 d6             	mov    %rdx,%rsi
    28c9:	48 89 c7             	mov    %rax,%rdi
    28cc:	e8 6d 8f 00 00       	callq  b83e <_ZN4Heap4pushEP4Grid>
    28d1:	48 8d 85 f0 ff df ff 	lea    -0x200010(%rbp),%rax
    28d8:	48 89 c7             	mov    %rax,%rdi
    28db:	e8 94 90 00 00       	callq  b974 <_ZN4Heap3popEv>
    28e0:	48 8d 85 30 ed df ff 	lea    -0x2012d0(%rbp),%rax
    28e7:	48 8d 50 0c          	lea    0xc(%rax),%rdx
    28eb:	48 8d 85 f0 ff df ff 	lea    -0x200010(%rbp),%rax
    28f2:	48 89 d6             	mov    %rdx,%rsi
    28f5:	48 89 c7             	mov    %rax,%rdi
    28f8:	e8 41 8f 00 00       	callq  b83e <_ZN4Heap4pushEP4Grid>
    28fd:	48 8d 85 f0 ff df ff 	lea    -0x200010(%rbp),%rax
    2904:	48 89 c7             	mov    %rax,%rdi
    2907:	e8 68 90 00 00       	callq  b974 <_ZN4Heap3popEv>
    290c:	48 8d 85 30 ed df ff 	lea    -0x2012d0(%rbp),%rax
    2913:	48 8d 50 0c          	lea    0xc(%rax),%rdx
    2917:	48 8d 85 f0 ff df ff 	lea    -0x200010(%rbp),%rax
    291e:	48 89 d6             	mov    %rdx,%rsi
    2921:	48 89 c7             	mov    %rax,%rdi
    2924:	e8 15 8f 00 00       	callq  b83e <_ZN4Heap4pushEP4Grid>
    2929:	48 8d 85 f0 ff df ff 	lea    -0x200010(%rbp),%rax
    2930:	48 89 c7             	mov    %rax,%rdi
    2933:	e8 3c 90 00 00       	callq  b974 <_ZN4Heap3popEv>
    2938:	48 8d 85 30 ed df ff 	lea    -0x2012d0(%rbp),%rax
    293f:	48 8d 50 0c          	lea    0xc(%rax),%rdx
    2943:	48 8d 85 f0 ff df ff 	lea    -0x200010(%rbp),%rax
    294a:	48 89 d6             	mov    %rdx,%rsi
    294d:	48 89 c7             	mov    %rax,%rdi
    2950:	e8 e9 8e 00 00       	callq  b83e <_ZN4Heap4pushEP4Grid>
    2955:	48 8d 85 f0 ff df ff 	lea    -0x200010(%rbp),%rax
    295c:	48 89 c7             	mov    %rax,%rdi
    295f:	e8 10 90 00 00       	callq  b974 <_ZN4Heap3popEv>
    2964:	48 8d 85 30 ed df ff 	lea    -0x2012d0(%rbp),%rax
    296b:	48 8d 50 0c          	lea    0xc(%rax),%rdx
    296f:	48 8d 85 f0 ff df ff 	lea    -0x200010(%rbp),%rax
    2976:	48 89 d6             	mov    %rdx,%rsi
    2979:	48 89 c7             	mov    %rax,%rdi
    297c:	e8 bd 8e 00 00       	callq  b83e <_ZN4Heap4pushEP4Grid>
    2981:	48 8d 85 f0 ff df ff 	lea    -0x200010(%rbp),%rax
    2988:	48 89 c7             	mov    %rax,%rdi
    298b:	e8 e4 8f 00 00       	callq  b974 <_ZN4Heap3popEv>
    2990:	48 8d 85 30 ed df ff 	lea    -0x2012d0(%rbp),%rax
    2997:	48 8d 50 0c          	lea    0xc(%rax),%rdx
    299b:	48 8d 85 f0 ff df ff 	lea    -0x200010(%rbp),%rax
    29a2:	48 89 d6             	mov    %rdx,%rsi
    29a5:	48 89 c7             	mov    %rax,%rdi
    29a8:	e8 91 8e 00 00       	callq  b83e <_ZN4Heap4pushEP4Grid>
    29ad:	48 8d 85 f0 ff df ff 	lea    -0x200010(%rbp),%rax
    29b4:	48 89 c7             	mov    %rax,%rdi
    29b7:	e8 b8 8f 00 00       	callq  b974 <_ZN4Heap3popEv>
    29bc:	48 8d 85 30 ed df ff 	lea    -0x2012d0(%rbp),%rax
    29c3:	48 8d 50 0c          	lea    0xc(%rax),%rdx
    29c7:	48 8d 85 f0 ff df ff 	lea    -0x200010(%rbp),%rax
    29ce:	48 89 d6             	mov    %rdx,%rsi
    29d1:	48 89 c7             	mov    %rax,%rdi
    29d4:	e8 65 8e 00 00       	callq  b83e <_ZN4Heap4pushEP4Grid>
    29d9:	48 8d 85 f0 ff df ff 	lea    -0x200010(%rbp),%rax
    29e0:	48 89 c7             	mov    %rax,%rdi
    29e3:	e8 8c 8f 00 00       	callq  b974 <_ZN4Heap3popEv>
    29e8:	48 8d 85 30 ed df ff 	lea    -0x2012d0(%rbp),%rax
    29ef:	48 8d 50 0c          	lea    0xc(%rax),%rdx
    29f3:	48 8d 85 f0 ff df ff 	lea    -0x200010(%rbp),%rax
    29fa:	48 89 d6             	mov    %rdx,%rsi
    29fd:	48 89 c7             	mov    %rax,%rdi
    2a00:	e8 39 8e 00 00       	callq  b83e <_ZN4Heap4pushEP4Grid>
    2a05:	48 8d 85 f0 ff df ff 	lea    -0x200010(%rbp),%rax
    2a0c:	48 89 c7             	mov    %rax,%rdi
    2a0f:	e8 60 8f 00 00       	callq  b974 <_ZN4Heap3popEv>
    2a14:	48 8d 85 30 ed df ff 	lea    -0x2012d0(%rbp),%rax
    2a1b:	48 8d 50 0c          	lea    0xc(%rax),%rdx
    2a1f:	48 8d 85 f0 ff df ff 	lea    -0x200010(%rbp),%rax
    2a26:	48 89 d6             	mov    %rdx,%rsi
    2a29:	48 89 c7             	mov    %rax,%rdi
    2a2c:	e8 0d 8e 00 00       	callq  b83e <_ZN4Heap4pushEP4Grid>
    2a31:	48 8d 85 f0 ff df ff 	lea    -0x200010(%rbp),%rax
    2a38:	48 89 c7             	mov    %rax,%rdi
    2a3b:	e8 34 8f 00 00       	callq  b974 <_ZN4Heap3popEv>
    2a40:	48 8d 85 30 ed df ff 	lea    -0x2012d0(%rbp),%rax
    2a47:	48 8d 50 0c          	lea    0xc(%rax),%rdx
    2a4b:	48 8d 85 f0 ff df ff 	lea    -0x200010(%rbp),%rax
    2a52:	48 89 d6             	mov    %rdx,%rsi
    2a55:	48 89 c7             	mov    %rax,%rdi
    2a58:	e8 e1 8d 00 00       	callq  b83e <_ZN4Heap4pushEP4Grid>
    2a5d:	48 8d 85 f0 ff df ff 	lea    -0x200010(%rbp),%rax
    2a64:	48 89 c7             	mov    %rax,%rdi
    2a67:	e8 08 8f 00 00       	callq  b974 <_ZN4Heap3popEv>
    2a6c:	48 8d 85 30 ed df ff 	lea    -0x2012d0(%rbp),%rax
    2a73:	48 8d 50 0c          	lea    0xc(%rax),%rdx
    2a77:	48 8d 85 f0 ff df ff 	lea    -0x200010(%rbp),%rax
    2a7e:	48 89 d6             	mov    %rdx,%rsi
    2a81:	48 89 c7             	mov    %rax,%rdi
    2a84:	e8 b5 8d 00 00       	callq  b83e <_ZN4Heap4pushEP4Grid>
    2a89:	48 8d 85 f0 ff df ff 	lea    -0x200010(%rbp),%rax
    2a90:	48 89 c7             	mov    %rax,%rdi
    2a93:	e8 dc 8e 00 00       	callq  b974 <_ZN4Heap3popEv>
    2a98:	48 8d 85 30 ed df ff 	lea    -0x2012d0(%rbp),%rax
    2a9f:	48 8d 50 0c          	lea    0xc(%rax),%rdx
    2aa3:	48 8d 85 f0 ff df ff 	lea    -0x200010(%rbp),%rax
    2aaa:	48 89 d6             	mov    %rdx,%rsi
    2aad:	48 89 c7             	mov    %rax,%rdi
    2ab0:	e8 89 8d 00 00       	callq  b83e <_ZN4Heap4pushEP4Grid>
    2ab5:	48 8d 85 f0 ff df ff 	lea    -0x200010(%rbp),%rax
    2abc:	48 89 c7             	mov    %rax,%rdi
    2abf:	e8 b0 8e 00 00       	callq  b974 <_ZN4Heap3popEv>
    2ac4:	48 8d 85 30 ed df ff 	lea    -0x2012d0(%rbp),%rax
    2acb:	48 8d 50 0c          	lea    0xc(%rax),%rdx
    2acf:	48 8d 85 f0 ff df ff 	lea    -0x200010(%rbp),%rax
    2ad6:	48 89 d6             	mov    %rdx,%rsi
    2ad9:	48 89 c7             	mov    %rax,%rdi
    2adc:	e8 5d 8d 00 00       	callq  b83e <_ZN4Heap4pushEP4Grid>
    2ae1:	48 8d 85 f0 ff df ff 	lea    -0x200010(%rbp),%rax
    2ae8:	48 89 c7             	mov    %rax,%rdi
    2aeb:	e8 84 8e 00 00       	callq  b974 <_ZN4Heap3popEv>
    2af0:	48 8d 85 30 ed df ff 	lea    -0x2012d0(%rbp),%rax
    2af7:	48 8d 50 0c          	lea    0xc(%rax),%rdx
    2afb:	48 8d 85 f0 ff df ff 	lea    -0x200010(%rbp),%rax
    2b02:	48 89 d6             	mov    %rdx,%rsi
    2b05:	48 89 c7             	mov    %rax,%rdi
    2b08:	e8 31 8d 00 00       	callq  b83e <_ZN4Heap4pushEP4Grid>
    2b0d:	48 8d 85 f0 ff df ff 	lea    -0x200010(%rbp),%rax
    2b14:	48 89 c7             	mov    %rax,%rdi
    2b17:	e8 58 8e 00 00       	callq  b974 <_ZN4Heap3popEv>
    2b1c:	48 8d 85 30 ed df ff 	lea    -0x2012d0(%rbp),%rax
    2b23:	48 8d 50 0c          	lea    0xc(%rax),%rdx
    2b27:	48 8d 85 f0 ff df ff 	lea    -0x200010(%rbp),%rax
    2b2e:	48 89 d6             	mov    %rdx,%rsi
    2b31:	48 89 c7             	mov    %rax,%rdi
    2b34:	e8 05 8d 00 00       	callq  b83e <_ZN4Heap4pushEP4Grid>
    2b39:	48 8d 85 f0 ff df ff 	lea    -0x200010(%rbp),%rax
    2b40:	48 89 c7             	mov    %rax,%rdi
    2b43:	e8 2c 8e 00 00       	callq  b974 <_ZN4Heap3popEv>
    2b48:	48 8d 85 30 ed df ff 	lea    -0x2012d0(%rbp),%rax
    2b4f:	48 8d 50 0c          	lea    0xc(%rax),%rdx
    2b53:	48 8d 85 f0 ff df ff 	lea    -0x200010(%rbp),%rax
    2b5a:	48 89 d6             	mov    %rdx,%rsi
    2b5d:	48 89 c7             	mov    %rax,%rdi
    2b60:	e8 d9 8c 00 00       	callq  b83e <_ZN4Heap4pushEP4Grid>
    2b65:	48 8d 85 f0 ff df ff 	lea    -0x200010(%rbp),%rax
    2b6c:	48 89 c7             	mov    %rax,%rdi
    2b6f:	e8 00 8e 00 00       	callq  b974 <_ZN4Heap3popEv>
    2b74:	48 8d 85 30 ed df ff 	lea    -0x2012d0(%rbp),%rax
    2b7b:	48 8d 50 0c          	lea    0xc(%rax),%rdx
    2b7f:	48 8d 85 f0 ff df ff 	lea    -0x200010(%rbp),%rax
    2b86:	48 89 d6             	mov    %rdx,%rsi
    2b89:	48 89 c7             	mov    %rax,%rdi
    2b8c:	e8 ad 8c 00 00       	callq  b83e <_ZN4Heap4pushEP4Grid>
    2b91:	48 8d 85 f0 ff df ff 	lea    -0x200010(%rbp),%rax
    2b98:	48 89 c7             	mov    %rax,%rdi
    2b9b:	e8 d4 8d 00 00       	callq  b974 <_ZN4Heap3popEv>
    2ba0:	48 8d 85 30 ed df ff 	lea    -0x2012d0(%rbp),%rax
    2ba7:	48 8d 50 0c          	lea    0xc(%rax),%rdx
    2bab:	48 8d 85 f0 ff df ff 	lea    -0x200010(%rbp),%rax
    2bb2:	48 89 d6             	mov    %rdx,%rsi
    2bb5:	48 89 c7             	mov    %rax,%rdi
    2bb8:	e8 81 8c 00 00       	callq  b83e <_ZN4Heap4pushEP4Grid>
    2bbd:	48 8d 85 f0 ff df ff 	lea    -0x200010(%rbp),%rax
    2bc4:	48 89 c7             	mov    %rax,%rdi
    2bc7:	e8 a8 8d 00 00       	callq  b974 <_ZN4Heap3popEv>
    2bcc:	48 8d 85 30 ed df ff 	lea    -0x2012d0(%rbp),%rax
    2bd3:	48 8d 50 0c          	lea    0xc(%rax),%rdx
    2bd7:	48 8d 85 f0 ff df ff 	lea    -0x200010(%rbp),%rax
    2bde:	48 89 d6             	mov    %rdx,%rsi
    2be1:	48 89 c7             	mov    %rax,%rdi
    2be4:	e8 55 8c 00 00       	callq  b83e <_ZN4Heap4pushEP4Grid>
    2be9:	48 8d 85 f0 ff df ff 	lea    -0x200010(%rbp),%rax
    2bf0:	48 89 c7             	mov    %rax,%rdi
    2bf3:	e8 7c 8d 00 00       	callq  b974 <_ZN4Heap3popEv>
    2bf8:	48 8d 85 30 ed df ff 	lea    -0x2012d0(%rbp),%rax
    2bff:	48 8d 50 0c          	lea    0xc(%rax),%rdx
    2c03:	48 8d 85 f0 ff df ff 	lea    -0x200010(%rbp),%rax
    2c0a:	48 89 d6             	mov    %rdx,%rsi
    2c0d:	48 89 c7             	mov    %rax,%rdi
    2c10:	e8 29 8c 00 00       	callq  b83e <_ZN4Heap4pushEP4Grid>
    2c15:	48 8d 85 f0 ff df ff 	lea    -0x200010(%rbp),%rax
    2c1c:	48 89 c7             	mov    %rax,%rdi
    2c1f:	e8 50 8d 00 00       	callq  b974 <_ZN4Heap3popEv>
    2c24:	48 8d 85 30 ed df ff 	lea    -0x2012d0(%rbp),%rax
    2c2b:	48 8d 50 0c          	lea    0xc(%rax),%rdx
    2c2f:	48 8d 85 f0 ff df ff 	lea    -0x200010(%rbp),%rax
    2c36:	48 89 d6             	mov    %rdx,%rsi
    2c39:	48 89 c7             	mov    %rax,%rdi
    2c3c:	e8 fd 8b 00 00       	callq  b83e <_ZN4Heap4pushEP4Grid>
    2c41:	48 8d 85 f0 ff df ff 	lea    -0x200010(%rbp),%rax
    2c48:	48 89 c7             	mov    %rax,%rdi
    2c4b:	e8 24 8d 00 00       	callq  b974 <_ZN4Heap3popEv>
    2c50:	48 8d 85 30 ed df ff 	lea    -0x2012d0(%rbp),%rax
    2c57:	48 8d 50 0c          	lea    0xc(%rax),%rdx
    2c5b:	48 8d 85 f0 ff df ff 	lea    -0x200010(%rbp),%rax
    2c62:	48 89 d6             	mov    %rdx,%rsi
    2c65:	48 89 c7             	mov    %rax,%rdi
    2c68:	e8 d1 8b 00 00       	callq  b83e <_ZN4Heap4pushEP4Grid>
    2c6d:	48 8d 85 f0 ff df ff 	lea    -0x200010(%rbp),%rax
    2c74:	48 89 c7             	mov    %rax,%rdi
    2c77:	e8 f8 8c 00 00       	callq  b974 <_ZN4Heap3popEv>
    2c7c:	48 8d 85 30 ed df ff 	lea    -0x2012d0(%rbp),%rax
    2c83:	48 8d 50 0c          	lea    0xc(%rax),%rdx
    2c87:	48 8d 85 f0 ff df ff 	lea    -0x200010(%rbp),%rax
    2c8e:	48 89 d6             	mov    %rdx,%rsi
    2c91:	48 89 c7             	mov    %rax,%rdi
    2c94:	e8 a5 8b 00 00       	callq  b83e <_ZN4Heap4pushEP4Grid>
    2c99:	48 8d 85 f0 ff df ff 	lea    -0x200010(%rbp),%rax
    2ca0:	48 89 c7             	mov    %rax,%rdi
    2ca3:	e8 cc 8c 00 00       	callq  b974 <_ZN4Heap3popEv>
    2ca8:	48 8d 85 30 ed df ff 	lea    -0x2012d0(%rbp),%rax
    2caf:	48 8d 50 0c          	lea    0xc(%rax),%rdx
    2cb3:	48 8d 85 f0 ff df ff 	lea    -0x200010(%rbp),%rax
    2cba:	48 89 d6             	mov    %rdx,%rsi
    2cbd:	48 89 c7             	mov    %rax,%rdi
    2cc0:	e8 79 8b 00 00       	callq  b83e <_ZN4Heap4pushEP4Grid>
    2cc5:	48 8d 85 f0 ff df ff 	lea    -0x200010(%rbp),%rax
    2ccc:	48 89 c7             	mov    %rax,%rdi
    2ccf:	e8 a0 8c 00 00       	callq  b974 <_ZN4Heap3popEv>
    2cd4:	48 8d 85 30 ed df ff 	lea    -0x2012d0(%rbp),%rax
    2cdb:	48 8d 50 0c          	lea    0xc(%rax),%rdx
    2cdf:	48 8d 85 f0 ff df ff 	lea    -0x200010(%rbp),%rax
    2ce6:	48 89 d6             	mov    %rdx,%rsi
    2ce9:	48 89 c7             	mov    %rax,%rdi
    2cec:	e8 4d 8b 00 00       	callq  b83e <_ZN4Heap4pushEP4Grid>
    2cf1:	48 8d 85 f0 ff df ff 	lea    -0x200010(%rbp),%rax
    2cf8:	48 89 c7             	mov    %rax,%rdi
    2cfb:	e8 74 8c 00 00       	callq  b974 <_ZN4Heap3popEv>
    2d00:	48 8d 85 30 ed df ff 	lea    -0x2012d0(%rbp),%rax
    2d07:	48 8d 50 0c          	lea    0xc(%rax),%rdx
    2d0b:	48 8d 85 f0 ff df ff 	lea    -0x200010(%rbp),%rax
    2d12:	48 89 d6             	mov    %rdx,%rsi
    2d15:	48 89 c7             	mov    %rax,%rdi
    2d18:	e8 21 8b 00 00       	callq  b83e <_ZN4Heap4pushEP4Grid>
    2d1d:	48 8d 85 f0 ff df ff 	lea    -0x200010(%rbp),%rax
    2d24:	48 89 c7             	mov    %rax,%rdi
    2d27:	e8 48 8c 00 00       	callq  b974 <_ZN4Heap3popEv>
    2d2c:	48 8d 85 30 ed df ff 	lea    -0x2012d0(%rbp),%rax
    2d33:	48 8d 50 0c          	lea    0xc(%rax),%rdx
    2d37:	48 8d 85 f0 ff df ff 	lea    -0x200010(%rbp),%rax
    2d3e:	48 89 d6             	mov    %rdx,%rsi
    2d41:	48 89 c7             	mov    %rax,%rdi
    2d44:	e8 f5 8a 00 00       	callq  b83e <_ZN4Heap4pushEP4Grid>
    2d49:	48 8d 85 f0 ff df ff 	lea    -0x200010(%rbp),%rax
    2d50:	48 89 c7             	mov    %rax,%rdi
    2d53:	e8 1c 8c 00 00       	callq  b974 <_ZN4Heap3popEv>
    2d58:	48 8d 85 30 ed df ff 	lea    -0x2012d0(%rbp),%rax
    2d5f:	48 8d 50 0c          	lea    0xc(%rax),%rdx
    2d63:	48 8d 85 f0 ff df ff 	lea    -0x200010(%rbp),%rax
    2d6a:	48 89 d6             	mov    %rdx,%rsi
    2d6d:	48 89 c7             	mov    %rax,%rdi
    2d70:	e8 c9 8a 00 00       	callq  b83e <_ZN4Heap4pushEP4Grid>
    2d75:	48 8d 85 f0 ff df ff 	lea    -0x200010(%rbp),%rax
    2d7c:	48 89 c7             	mov    %rax,%rdi
    2d7f:	e8 f0 8b 00 00       	callq  b974 <_ZN4Heap3popEv>
    2d84:	48 8d 85 30 ed df ff 	lea    -0x2012d0(%rbp),%rax
    2d8b:	48 8d 50 0c          	lea    0xc(%rax),%rdx
    2d8f:	48 8d 85 f0 ff df ff 	lea    -0x200010(%rbp),%rax
    2d96:	48 89 d6             	mov    %rdx,%rsi
    2d99:	48 89 c7             	mov    %rax,%rdi
    2d9c:	e8 9d 8a 00 00       	callq  b83e <_ZN4Heap4pushEP4Grid>
    2da1:	48 8d 85 f0 ff df ff 	lea    -0x200010(%rbp),%rax
    2da8:	48 89 c7             	mov    %rax,%rdi
    2dab:	e8 c4 8b 00 00       	callq  b974 <_ZN4Heap3popEv>
    2db0:	48 8d 85 30 ed df ff 	lea    -0x2012d0(%rbp),%rax
    2db7:	48 8d 50 0c          	lea    0xc(%rax),%rdx
    2dbb:	48 8d 85 f0 ff df ff 	lea    -0x200010(%rbp),%rax
    2dc2:	48 89 d6             	mov    %rdx,%rsi
    2dc5:	48 89 c7             	mov    %rax,%rdi
    2dc8:	e8 71 8a 00 00       	callq  b83e <_ZN4Heap4pushEP4Grid>
    2dcd:	48 8d 85 f0 ff df ff 	lea    -0x200010(%rbp),%rax
    2dd4:	48 89 c7             	mov    %rax,%rdi
    2dd7:	e8 98 8b 00 00       	callq  b974 <_ZN4Heap3popEv>
    2ddc:	48 8d 85 30 ed df ff 	lea    -0x2012d0(%rbp),%rax
    2de3:	48 8d 50 0c          	lea    0xc(%rax),%rdx
    2de7:	48 8d 85 f0 ff df ff 	lea    -0x200010(%rbp),%rax
    2dee:	48 89 d6             	mov    %rdx,%rsi
    2df1:	48 89 c7             	mov    %rax,%rdi
    2df4:	e8 45 8a 00 00       	callq  b83e <_ZN4Heap4pushEP4Grid>
    2df9:	48 8d 85 f0 ff df ff 	lea    -0x200010(%rbp),%rax
    2e00:	48 89 c7             	mov    %rax,%rdi
    2e03:	e8 6c 8b 00 00       	callq  b974 <_ZN4Heap3popEv>
    2e08:	48 8d 85 30 ed df ff 	lea    -0x2012d0(%rbp),%rax
    2e0f:	48 8d 50 0c          	lea    0xc(%rax),%rdx
    2e13:	48 8d 85 f0 ff df ff 	lea    -0x200010(%rbp),%rax
    2e1a:	48 89 d6             	mov    %rdx,%rsi
    2e1d:	48 89 c7             	mov    %rax,%rdi
    2e20:	e8 19 8a 00 00       	callq  b83e <_ZN4Heap4pushEP4Grid>
    2e25:	48 8d 85 f0 ff df ff 	lea    -0x200010(%rbp),%rax
    2e2c:	48 89 c7             	mov    %rax,%rdi
    2e2f:	e8 40 8b 00 00       	callq  b974 <_ZN4Heap3popEv>
    2e34:	48 8d 85 30 ed df ff 	lea    -0x2012d0(%rbp),%rax
    2e3b:	48 8d 50 0c          	lea    0xc(%rax),%rdx
    2e3f:	48 8d 85 f0 ff df ff 	lea    -0x200010(%rbp),%rax
    2e46:	48 89 d6             	mov    %rdx,%rsi
    2e49:	48 89 c7             	mov    %rax,%rdi
    2e4c:	e8 ed 89 00 00       	callq  b83e <_ZN4Heap4pushEP4Grid>
    2e51:	48 8d 85 f0 ff df ff 	lea    -0x200010(%rbp),%rax
    2e58:	48 89 c7             	mov    %rax,%rdi
    2e5b:	e8 14 8b 00 00       	callq  b974 <_ZN4Heap3popEv>
    2e60:	48 8d 85 30 ed df ff 	lea    -0x2012d0(%rbp),%rax
    2e67:	48 8d 50 0c          	lea    0xc(%rax),%rdx
    2e6b:	48 8d 85 f0 ff df ff 	lea    -0x200010(%rbp),%rax
    2e72:	48 89 d6             	mov    %rdx,%rsi
    2e75:	48 89 c7             	mov    %rax,%rdi
    2e78:	e8 c1 89 00 00       	callq  b83e <_ZN4Heap4pushEP4Grid>
    2e7d:	48 8d 85 f0 ff df ff 	lea    -0x200010(%rbp),%rax
    2e84:	48 89 c7             	mov    %rax,%rdi
    2e87:	e8 e8 8a 00 00       	callq  b974 <_ZN4Heap3popEv>
    2e8c:	48 8d 85 30 ed df ff 	lea    -0x2012d0(%rbp),%rax
    2e93:	48 8d 50 0c          	lea    0xc(%rax),%rdx
    2e97:	48 8d 85 f0 ff df ff 	lea    -0x200010(%rbp),%rax
    2e9e:	48 89 d6             	mov    %rdx,%rsi
    2ea1:	48 89 c7             	mov    %rax,%rdi
    2ea4:	e8 95 89 00 00       	callq  b83e <_ZN4Heap4pushEP4Grid>
    2ea9:	48 8d 85 f0 ff df ff 	lea    -0x200010(%rbp),%rax
    2eb0:	48 89 c7             	mov    %rax,%rdi
    2eb3:	e8 bc 8a 00 00       	callq  b974 <_ZN4Heap3popEv>
    2eb8:	48 8d 85 30 ed df ff 	lea    -0x2012d0(%rbp),%rax
    2ebf:	48 8d 50 0c          	lea    0xc(%rax),%rdx
    2ec3:	48 8d 85 f0 ff df ff 	lea    -0x200010(%rbp),%rax
    2eca:	48 89 d6             	mov    %rdx,%rsi
    2ecd:	48 89 c7             	mov    %rax,%rdi
    2ed0:	e8 69 89 00 00       	callq  b83e <_ZN4Heap4pushEP4Grid>
    2ed5:	48 8d 85 f0 ff df ff 	lea    -0x200010(%rbp),%rax
    2edc:	48 89 c7             	mov    %rax,%rdi
    2edf:	e8 90 8a 00 00       	callq  b974 <_ZN4Heap3popEv>
    2ee4:	48 8d 85 30 ed df ff 	lea    -0x2012d0(%rbp),%rax
    2eeb:	48 8d 50 0c          	lea    0xc(%rax),%rdx
    2eef:	48 8d 85 f0 ff df ff 	lea    -0x200010(%rbp),%rax
    2ef6:	48 89 d6             	mov    %rdx,%rsi
    2ef9:	48 89 c7             	mov    %rax,%rdi
    2efc:	e8 3d 89 00 00       	callq  b83e <_ZN4Heap4pushEP4Grid>
    2f01:	48 8d 85 f0 ff df ff 	lea    -0x200010(%rbp),%rax
    2f08:	48 89 c7             	mov    %rax,%rdi
    2f0b:	e8 64 8a 00 00       	callq  b974 <_ZN4Heap3popEv>
    2f10:	48 8d 85 30 ed df ff 	lea    -0x2012d0(%rbp),%rax
    2f17:	48 8d 50 0c          	lea    0xc(%rax),%rdx
    2f1b:	48 8d 85 f0 ff df ff 	lea    -0x200010(%rbp),%rax
    2f22:	48 89 d6             	mov    %rdx,%rsi
    2f25:	48 89 c7             	mov    %rax,%rdi
    2f28:	e8 11 89 00 00       	callq  b83e <_ZN4Heap4pushEP4Grid>
    2f2d:	48 8d 85 f0 ff df ff 	lea    -0x200010(%rbp),%rax
    2f34:	48 89 c7             	mov    %rax,%rdi
    2f37:	e8 38 8a 00 00       	callq  b974 <_ZN4Heap3popEv>
    2f3c:	48 8d 85 30 ed df ff 	lea    -0x2012d0(%rbp),%rax
    2f43:	48 8d 50 0c          	lea    0xc(%rax),%rdx
    2f47:	48 8d 85 f0 ff df ff 	lea    -0x200010(%rbp),%rax
    2f4e:	48 89 d6             	mov    %rdx,%rsi
    2f51:	48 89 c7             	mov    %rax,%rdi
    2f54:	e8 e5 88 00 00       	callq  b83e <_ZN4Heap4pushEP4Grid>
    2f59:	48 8d 85 f0 ff df ff 	lea    -0x200010(%rbp),%rax
    2f60:	48 89 c7             	mov    %rax,%rdi
    2f63:	e8 0c 8a 00 00       	callq  b974 <_ZN4Heap3popEv>
    2f68:	48 8d 85 30 ed df ff 	lea    -0x2012d0(%rbp),%rax
    2f6f:	48 8d 50 0c          	lea    0xc(%rax),%rdx
    2f73:	48 8d 85 f0 ff df ff 	lea    -0x200010(%rbp),%rax
    2f7a:	48 89 d6             	mov    %rdx,%rsi
    2f7d:	48 89 c7             	mov    %rax,%rdi
    2f80:	e8 b9 88 00 00       	callq  b83e <_ZN4Heap4pushEP4Grid>
    2f85:	48 8d 85 f0 ff df ff 	lea    -0x200010(%rbp),%rax
    2f8c:	48 89 c7             	mov    %rax,%rdi
    2f8f:	e8 e0 89 00 00       	callq  b974 <_ZN4Heap3popEv>
    2f94:	48 8d 85 30 ed df ff 	lea    -0x2012d0(%rbp),%rax
    2f9b:	48 8d 50 0c          	lea    0xc(%rax),%rdx
    2f9f:	48 8d 85 f0 ff df ff 	lea    -0x200010(%rbp),%rax
    2fa6:	48 89 d6             	mov    %rdx,%rsi
    2fa9:	48 89 c7             	mov    %rax,%rdi
    2fac:	e8 8d 88 00 00       	callq  b83e <_ZN4Heap4pushEP4Grid>
    2fb1:	48 8d 85 f0 ff df ff 	lea    -0x200010(%rbp),%rax
    2fb8:	48 89 c7             	mov    %rax,%rdi
    2fbb:	e8 b4 89 00 00       	callq  b974 <_ZN4Heap3popEv>
    2fc0:	48 8d 85 30 ed df ff 	lea    -0x2012d0(%rbp),%rax
    2fc7:	48 8d 50 0c          	lea    0xc(%rax),%rdx
    2fcb:	48 8d 85 f0 ff df ff 	lea    -0x200010(%rbp),%rax
    2fd2:	48 89 d6             	mov    %rdx,%rsi
    2fd5:	48 89 c7             	mov    %rax,%rdi
    2fd8:	e8 61 88 00 00       	callq  b83e <_ZN4Heap4pushEP4Grid>
    2fdd:	48 8d 85 f0 ff df ff 	lea    -0x200010(%rbp),%rax
    2fe4:	48 89 c7             	mov    %rax,%rdi
    2fe7:	e8 88 89 00 00       	callq  b974 <_ZN4Heap3popEv>
    2fec:	48 8d 85 30 ed df ff 	lea    -0x2012d0(%rbp),%rax
    2ff3:	48 8d 50 0c          	lea    0xc(%rax),%rdx
    2ff7:	48 8d 85 f0 ff df ff 	lea    -0x200010(%rbp),%rax
    2ffe:	48 89 d6             	mov    %rdx,%rsi
    3001:	48 89 c7             	mov    %rax,%rdi
    3004:	e8 35 88 00 00       	callq  b83e <_ZN4Heap4pushEP4Grid>
    3009:	48 8d 85 f0 ff df ff 	lea    -0x200010(%rbp),%rax
    3010:	48 89 c7             	mov    %rax,%rdi
    3013:	e8 5c 89 00 00       	callq  b974 <_ZN4Heap3popEv>
    3018:	48 8d 85 30 ed df ff 	lea    -0x2012d0(%rbp),%rax
    301f:	48 8d 50 0c          	lea    0xc(%rax),%rdx
    3023:	48 8d 85 f0 ff df ff 	lea    -0x200010(%rbp),%rax
    302a:	48 89 d6             	mov    %rdx,%rsi
    302d:	48 89 c7             	mov    %rax,%rdi
    3030:	e8 09 88 00 00       	callq  b83e <_ZN4Heap4pushEP4Grid>
    3035:	48 8d 85 f0 ff df ff 	lea    -0x200010(%rbp),%rax
    303c:	48 89 c7             	mov    %rax,%rdi
    303f:	e8 30 89 00 00       	callq  b974 <_ZN4Heap3popEv>
    3044:	48 8d 85 30 ed df ff 	lea    -0x2012d0(%rbp),%rax
    304b:	48 8d 50 0c          	lea    0xc(%rax),%rdx
    304f:	48 8d 85 f0 ff df ff 	lea    -0x200010(%rbp),%rax
    3056:	48 89 d6             	mov    %rdx,%rsi
    3059:	48 89 c7             	mov    %rax,%rdi
    305c:	e8 dd 87 00 00       	callq  b83e <_ZN4Heap4pushEP4Grid>
    3061:	48 8d 85 f0 ff df ff 	lea    -0x200010(%rbp),%rax
    3068:	48 89 c7             	mov    %rax,%rdi
    306b:	e8 04 89 00 00       	callq  b974 <_ZN4Heap3popEv>
    3070:	48 8d 85 30 ed df ff 	lea    -0x2012d0(%rbp),%rax
    3077:	48 8d 50 0c          	lea    0xc(%rax),%rdx
    307b:	48 8d 85 f0 ff df ff 	lea    -0x200010(%rbp),%rax
    3082:	48 89 d6             	mov    %rdx,%rsi
    3085:	48 89 c7             	mov    %rax,%rdi
    3088:	e8 b1 87 00 00       	callq  b83e <_ZN4Heap4pushEP4Grid>
    308d:	48 8d 85 f0 ff df ff 	lea    -0x200010(%rbp),%rax
    3094:	48 89 c7             	mov    %rax,%rdi
    3097:	e8 d8 88 00 00       	callq  b974 <_ZN4Heap3popEv>
    309c:	48 8d 85 30 ed df ff 	lea    -0x2012d0(%rbp),%rax
    30a3:	48 8d 50 0c          	lea    0xc(%rax),%rdx
    30a7:	48 8d 85 f0 ff df ff 	lea    -0x200010(%rbp),%rax
    30ae:	48 89 d6             	mov    %rdx,%rsi
    30b1:	48 89 c7             	mov    %rax,%rdi
    30b4:	e8 85 87 00 00       	callq  b83e <_ZN4Heap4pushEP4Grid>
    30b9:	48 8d 85 f0 ff df ff 	lea    -0x200010(%rbp),%rax
    30c0:	48 89 c7             	mov    %rax,%rdi
    30c3:	e8 ac 88 00 00       	callq  b974 <_ZN4Heap3popEv>
    30c8:	48 8d 85 30 ed df ff 	lea    -0x2012d0(%rbp),%rax
    30cf:	48 8d 50 0c          	lea    0xc(%rax),%rdx
    30d3:	48 8d 85 f0 ff df ff 	lea    -0x200010(%rbp),%rax
    30da:	48 89 d6             	mov    %rdx,%rsi
    30dd:	48 89 c7             	mov    %rax,%rdi
    30e0:	e8 59 87 00 00       	callq  b83e <_ZN4Heap4pushEP4Grid>
    30e5:	48 8d 85 f0 ff df ff 	lea    -0x200010(%rbp),%rax
    30ec:	48 89 c7             	mov    %rax,%rdi
    30ef:	e8 80 88 00 00       	callq  b974 <_ZN4Heap3popEv>
    30f4:	48 8d 85 30 ed df ff 	lea    -0x2012d0(%rbp),%rax
    30fb:	48 8d 50 0c          	lea    0xc(%rax),%rdx
    30ff:	48 8d 85 f0 ff df ff 	lea    -0x200010(%rbp),%rax
    3106:	48 89 d6             	mov    %rdx,%rsi
    3109:	48 89 c7             	mov    %rax,%rdi
    310c:	e8 2d 87 00 00       	callq  b83e <_ZN4Heap4pushEP4Grid>
    3111:	48 8d 85 f0 ff df ff 	lea    -0x200010(%rbp),%rax
    3118:	48 89 c7             	mov    %rax,%rdi
    311b:	e8 54 88 00 00       	callq  b974 <_ZN4Heap3popEv>
    3120:	48 8d 85 30 ed df ff 	lea    -0x2012d0(%rbp),%rax
    3127:	48 8d 50 0c          	lea    0xc(%rax),%rdx
    312b:	48 8d 85 f0 ff df ff 	lea    -0x200010(%rbp),%rax
    3132:	48 89 d6             	mov    %rdx,%rsi
    3135:	48 89 c7             	mov    %rax,%rdi
    3138:	e8 01 87 00 00       	callq  b83e <_ZN4Heap4pushEP4Grid>
    313d:	48 8d 85 f0 ff df ff 	lea    -0x200010(%rbp),%rax
    3144:	48 89 c7             	mov    %rax,%rdi
    3147:	e8 28 88 00 00       	callq  b974 <_ZN4Heap3popEv>
    314c:	48 8d 85 30 ed df ff 	lea    -0x2012d0(%rbp),%rax
    3153:	48 8d 50 0c          	lea    0xc(%rax),%rdx
    3157:	48 8d 85 f0 ff df ff 	lea    -0x200010(%rbp),%rax
    315e:	48 89 d6             	mov    %rdx,%rsi
    3161:	48 89 c7             	mov    %rax,%rdi
    3164:	e8 d5 86 00 00       	callq  b83e <_ZN4Heap4pushEP4Grid>
    3169:	48 8d 85 f0 ff df ff 	lea    -0x200010(%rbp),%rax
    3170:	48 89 c7             	mov    %rax,%rdi
    3173:	e8 fc 87 00 00       	callq  b974 <_ZN4Heap3popEv>
    3178:	48 8d 85 30 ed df ff 	lea    -0x2012d0(%rbp),%rax
    317f:	48 8d 50 0c          	lea    0xc(%rax),%rdx
    3183:	48 8d 85 f0 ff df ff 	lea    -0x200010(%rbp),%rax
    318a:	48 89 d6             	mov    %rdx,%rsi
    318d:	48 89 c7             	mov    %rax,%rdi
    3190:	e8 a9 86 00 00       	callq  b83e <_ZN4Heap4pushEP4Grid>
    3195:	48 8d 85 f0 ff df ff 	lea    -0x200010(%rbp),%rax
    319c:	48 89 c7             	mov    %rax,%rdi
    319f:	e8 d0 87 00 00       	callq  b974 <_ZN4Heap3popEv>
    31a4:	48 8d 85 30 ed df ff 	lea    -0x2012d0(%rbp),%rax
    31ab:	48 8d 50 0c          	lea    0xc(%rax),%rdx
    31af:	48 8d 85 f0 ff df ff 	lea    -0x200010(%rbp),%rax
    31b6:	48 89 d6             	mov    %rdx,%rsi
    31b9:	48 89 c7             	mov    %rax,%rdi
    31bc:	e8 7d 86 00 00       	callq  b83e <_ZN4Heap4pushEP4Grid>
    31c1:	48 8d 85 f0 ff df ff 	lea    -0x200010(%rbp),%rax
    31c8:	48 89 c7             	mov    %rax,%rdi
    31cb:	e8 a4 87 00 00       	callq  b974 <_ZN4Heap3popEv>
    31d0:	48 8d 85 30 ed df ff 	lea    -0x2012d0(%rbp),%rax
    31d7:	48 8d 50 0c          	lea    0xc(%rax),%rdx
    31db:	48 8d 85 f0 ff df ff 	lea    -0x200010(%rbp),%rax
    31e2:	48 89 d6             	mov    %rdx,%rsi
    31e5:	48 89 c7             	mov    %rax,%rdi
    31e8:	e8 51 86 00 00       	callq  b83e <_ZN4Heap4pushEP4Grid>
    31ed:	48 8d 85 f0 ff df ff 	lea    -0x200010(%rbp),%rax
    31f4:	48 89 c7             	mov    %rax,%rdi
    31f7:	e8 78 87 00 00       	callq  b974 <_ZN4Heap3popEv>
    31fc:	48 8d 85 30 ed df ff 	lea    -0x2012d0(%rbp),%rax
    3203:	48 8d 50 0c          	lea    0xc(%rax),%rdx
    3207:	48 8d 85 f0 ff df ff 	lea    -0x200010(%rbp),%rax
    320e:	48 89 d6             	mov    %rdx,%rsi
    3211:	48 89 c7             	mov    %rax,%rdi
    3214:	e8 25 86 00 00       	callq  b83e <_ZN4Heap4pushEP4Grid>
    3219:	48 8d 85 f0 ff df ff 	lea    -0x200010(%rbp),%rax
    3220:	48 89 c7             	mov    %rax,%rdi
    3223:	e8 4c 87 00 00       	callq  b974 <_ZN4Heap3popEv>
    3228:	48 8d 85 30 ed df ff 	lea    -0x2012d0(%rbp),%rax
    322f:	48 8d 50 0c          	lea    0xc(%rax),%rdx
    3233:	48 8d 85 f0 ff df ff 	lea    -0x200010(%rbp),%rax
    323a:	48 89 d6             	mov    %rdx,%rsi
    323d:	48 89 c7             	mov    %rax,%rdi
    3240:	e8 f9 85 00 00       	callq  b83e <_ZN4Heap4pushEP4Grid>
    3245:	48 8d 85 f0 ff df ff 	lea    -0x200010(%rbp),%rax
    324c:	48 89 c7             	mov    %rax,%rdi
    324f:	e8 20 87 00 00       	callq  b974 <_ZN4Heap3popEv>
    3254:	48 8d 85 30 ed df ff 	lea    -0x2012d0(%rbp),%rax
    325b:	48 8d 50 0c          	lea    0xc(%rax),%rdx
    325f:	48 8d 85 f0 ff df ff 	lea    -0x200010(%rbp),%rax
    3266:	48 89 d6             	mov    %rdx,%rsi
    3269:	48 89 c7             	mov    %rax,%rdi
    326c:	e8 cd 85 00 00       	callq  b83e <_ZN4Heap4pushEP4Grid>
    3271:	48 8d 85 f0 ff df ff 	lea    -0x200010(%rbp),%rax
    3278:	48 89 c7             	mov    %rax,%rdi
    327b:	e8 f4 86 00 00       	callq  b974 <_ZN4Heap3popEv>
    3280:	48 8d 85 30 ed df ff 	lea    -0x2012d0(%rbp),%rax
    3287:	48 8d 50 0c          	lea    0xc(%rax),%rdx
    328b:	48 8d 85 f0 ff df ff 	lea    -0x200010(%rbp),%rax
    3292:	48 89 d6             	mov    %rdx,%rsi
    3295:	48 89 c7             	mov    %rax,%rdi
    3298:	e8 a1 85 00 00       	callq  b83e <_ZN4Heap4pushEP4Grid>
    329d:	48 8d 85 f0 ff df ff 	lea    -0x200010(%rbp),%rax
    32a4:	48 89 c7             	mov    %rax,%rdi
    32a7:	e8 c8 86 00 00       	callq  b974 <_ZN4Heap3popEv>
    32ac:	48 8d 85 30 ed df ff 	lea    -0x2012d0(%rbp),%rax
    32b3:	48 8d 50 0c          	lea    0xc(%rax),%rdx
    32b7:	48 8d 85 f0 ff df ff 	lea    -0x200010(%rbp),%rax
    32be:	48 89 d6             	mov    %rdx,%rsi
    32c1:	48 89 c7             	mov    %rax,%rdi
    32c4:	e8 75 85 00 00       	callq  b83e <_ZN4Heap4pushEP4Grid>
    32c9:	48 8d 85 f0 ff df ff 	lea    -0x200010(%rbp),%rax
    32d0:	48 89 c7             	mov    %rax,%rdi
    32d3:	e8 9c 86 00 00       	callq  b974 <_ZN4Heap3popEv>
    32d8:	48 8d 85 30 ed df ff 	lea    -0x2012d0(%rbp),%rax
    32df:	48 8d 50 0c          	lea    0xc(%rax),%rdx
    32e3:	48 8d 85 f0 ff df ff 	lea    -0x200010(%rbp),%rax
    32ea:	48 89 d6             	mov    %rdx,%rsi
    32ed:	48 89 c7             	mov    %rax,%rdi
    32f0:	e8 49 85 00 00       	callq  b83e <_ZN4Heap4pushEP4Grid>
    32f5:	48 8d 85 f0 ff df ff 	lea    -0x200010(%rbp),%rax
    32fc:	48 89 c7             	mov    %rax,%rdi
    32ff:	e8 70 86 00 00       	callq  b974 <_ZN4Heap3popEv>
    3304:	48 8d 85 30 ed df ff 	lea    -0x2012d0(%rbp),%rax
    330b:	48 8d 50 0c          	lea    0xc(%rax),%rdx
    330f:	48 8d 85 f0 ff df ff 	lea    -0x200010(%rbp),%rax
    3316:	48 89 d6             	mov    %rdx,%rsi
    3319:	48 89 c7             	mov    %rax,%rdi
    331c:	e8 1d 85 00 00       	callq  b83e <_ZN4Heap4pushEP4Grid>
    3321:	48 8d 85 f0 ff df ff 	lea    -0x200010(%rbp),%rax
    3328:	48 89 c7             	mov    %rax,%rdi
    332b:	e8 44 86 00 00       	callq  b974 <_ZN4Heap3popEv>
    3330:	48 8d 85 30 ed df ff 	lea    -0x2012d0(%rbp),%rax
    3337:	48 8d 50 0c          	lea    0xc(%rax),%rdx
    333b:	48 8d 85 f0 ff df ff 	lea    -0x200010(%rbp),%rax
    3342:	48 89 d6             	mov    %rdx,%rsi
    3345:	48 89 c7             	mov    %rax,%rdi
    3348:	e8 f1 84 00 00       	callq  b83e <_ZN4Heap4pushEP4Grid>
    334d:	48 8d 85 f0 ff df ff 	lea    -0x200010(%rbp),%rax
    3354:	48 89 c7             	mov    %rax,%rdi
    3357:	e8 18 86 00 00       	callq  b974 <_ZN4Heap3popEv>
    335c:	48 8d 85 30 ed df ff 	lea    -0x2012d0(%rbp),%rax
    3363:	48 8d 50 0c          	lea    0xc(%rax),%rdx
    3367:	48 8d 85 f0 ff df ff 	lea    -0x200010(%rbp),%rax
    336e:	48 89 d6             	mov    %rdx,%rsi
    3371:	48 89 c7             	mov    %rax,%rdi
    3374:	e8 c5 84 00 00       	callq  b83e <_ZN4Heap4pushEP4Grid>
    3379:	48 8d 85 f0 ff df ff 	lea    -0x200010(%rbp),%rax
    3380:	48 89 c7             	mov    %rax,%rdi
    3383:	e8 ec 85 00 00       	callq  b974 <_ZN4Heap3popEv>
    3388:	48 8d 85 30 ed df ff 	lea    -0x2012d0(%rbp),%rax
    338f:	48 8d 50 0c          	lea    0xc(%rax),%rdx
    3393:	48 8d 85 f0 ff df ff 	lea    -0x200010(%rbp),%rax
    339a:	48 89 d6             	mov    %rdx,%rsi
    339d:	48 89 c7             	mov    %rax,%rdi
    33a0:	e8 99 84 00 00       	callq  b83e <_ZN4Heap4pushEP4Grid>
    33a5:	48 8d 85 f0 ff df ff 	lea    -0x200010(%rbp),%rax
    33ac:	48 89 c7             	mov    %rax,%rdi
    33af:	e8 c0 85 00 00       	callq  b974 <_ZN4Heap3popEv>
    33b4:	48 8d 85 30 ed df ff 	lea    -0x2012d0(%rbp),%rax
    33bb:	48 8d 50 0c          	lea    0xc(%rax),%rdx
    33bf:	48 8d 85 f0 ff df ff 	lea    -0x200010(%rbp),%rax
    33c6:	48 89 d6             	mov    %rdx,%rsi
    33c9:	48 89 c7             	mov    %rax,%rdi
    33cc:	e8 6d 84 00 00       	callq  b83e <_ZN4Heap4pushEP4Grid>
    33d1:	48 8d 85 f0 ff df ff 	lea    -0x200010(%rbp),%rax
    33d8:	48 89 c7             	mov    %rax,%rdi
    33db:	e8 94 85 00 00       	callq  b974 <_ZN4Heap3popEv>
    33e0:	48 8d 85 30 ed df ff 	lea    -0x2012d0(%rbp),%rax
    33e7:	48 8d 50 0c          	lea    0xc(%rax),%rdx
    33eb:	48 8d 85 f0 ff df ff 	lea    -0x200010(%rbp),%rax
    33f2:	48 89 d6             	mov    %rdx,%rsi
    33f5:	48 89 c7             	mov    %rax,%rdi
    33f8:	e8 41 84 00 00       	callq  b83e <_ZN4Heap4pushEP4Grid>
    33fd:	48 8d 85 f0 ff df ff 	lea    -0x200010(%rbp),%rax
    3404:	48 89 c7             	mov    %rax,%rdi
    3407:	e8 68 85 00 00       	callq  b974 <_ZN4Heap3popEv>
    340c:	48 8d 85 30 ed df ff 	lea    -0x2012d0(%rbp),%rax
    3413:	48 8d 50 0c          	lea    0xc(%rax),%rdx
    3417:	48 8d 85 f0 ff df ff 	lea    -0x200010(%rbp),%rax
    341e:	48 89 d6             	mov    %rdx,%rsi
    3421:	48 89 c7             	mov    %rax,%rdi
    3424:	e8 15 84 00 00       	callq  b83e <_ZN4Heap4pushEP4Grid>
    3429:	48 8d 85 f0 ff df ff 	lea    -0x200010(%rbp),%rax
    3430:	48 89 c7             	mov    %rax,%rdi
    3433:	e8 3c 85 00 00       	callq  b974 <_ZN4Heap3popEv>
    3438:	48 8d 85 30 ed df ff 	lea    -0x2012d0(%rbp),%rax
    343f:	48 8d 50 0c          	lea    0xc(%rax),%rdx
    3443:	48 8d 85 f0 ff df ff 	lea    -0x200010(%rbp),%rax
    344a:	48 89 d6             	mov    %rdx,%rsi
    344d:	48 89 c7             	mov    %rax,%rdi
    3450:	e8 e9 83 00 00       	callq  b83e <_ZN4Heap4pushEP4Grid>
    3455:	48 8d 85 f0 ff df ff 	lea    -0x200010(%rbp),%rax
    345c:	48 89 c7             	mov    %rax,%rdi
    345f:	e8 10 85 00 00       	callq  b974 <_ZN4Heap3popEv>
    3464:	48 8d 85 30 ed df ff 	lea    -0x2012d0(%rbp),%rax
    346b:	48 8d 50 0c          	lea    0xc(%rax),%rdx
    346f:	48 8d 85 f0 ff df ff 	lea    -0x200010(%rbp),%rax
    3476:	48 89 d6             	mov    %rdx,%rsi
    3479:	48 89 c7             	mov    %rax,%rdi
    347c:	e8 bd 83 00 00       	callq  b83e <_ZN4Heap4pushEP4Grid>
    3481:	48 8d 85 f0 ff df ff 	lea    -0x200010(%rbp),%rax
    3488:	48 89 c7             	mov    %rax,%rdi
    348b:	e8 e4 84 00 00       	callq  b974 <_ZN4Heap3popEv>
    3490:	48 8d 85 30 ed df ff 	lea    -0x2012d0(%rbp),%rax
    3497:	48 8d 50 0c          	lea    0xc(%rax),%rdx
    349b:	48 8d 85 f0 ff df ff 	lea    -0x200010(%rbp),%rax
    34a2:	48 89 d6             	mov    %rdx,%rsi
    34a5:	48 89 c7             	mov    %rax,%rdi
    34a8:	e8 91 83 00 00       	callq  b83e <_ZN4Heap4pushEP4Grid>
    34ad:	48 8d 85 f0 ff df ff 	lea    -0x200010(%rbp),%rax
    34b4:	48 89 c7             	mov    %rax,%rdi
    34b7:	e8 b8 84 00 00       	callq  b974 <_ZN4Heap3popEv>
    34bc:	48 8d 85 30 ed df ff 	lea    -0x2012d0(%rbp),%rax
    34c3:	48 8d 50 0c          	lea    0xc(%rax),%rdx
    34c7:	48 8d 85 f0 ff df ff 	lea    -0x200010(%rbp),%rax
    34ce:	48 89 d6             	mov    %rdx,%rsi
    34d1:	48 89 c7             	mov    %rax,%rdi
    34d4:	e8 65 83 00 00       	callq  b83e <_ZN4Heap4pushEP4Grid>
    34d9:	48 8d 85 f0 ff df ff 	lea    -0x200010(%rbp),%rax
    34e0:	48 89 c7             	mov    %rax,%rdi
    34e3:	e8 8c 84 00 00       	callq  b974 <_ZN4Heap3popEv>
    34e8:	48 8d 85 30 ed df ff 	lea    -0x2012d0(%rbp),%rax
    34ef:	48 8d 50 0c          	lea    0xc(%rax),%rdx
    34f3:	48 8d 85 f0 ff df ff 	lea    -0x200010(%rbp),%rax
    34fa:	48 89 d6             	mov    %rdx,%rsi
    34fd:	48 89 c7             	mov    %rax,%rdi
    3500:	e8 39 83 00 00       	callq  b83e <_ZN4Heap4pushEP4Grid>
    3505:	48 8d 85 f0 ff df ff 	lea    -0x200010(%rbp),%rax
    350c:	48 89 c7             	mov    %rax,%rdi
    350f:	e8 60 84 00 00       	callq  b974 <_ZN4Heap3popEv>
    3514:	48 8d 85 30 ed df ff 	lea    -0x2012d0(%rbp),%rax
    351b:	48 8d 50 0c          	lea    0xc(%rax),%rdx
    351f:	48 8d 85 f0 ff df ff 	lea    -0x200010(%rbp),%rax
    3526:	48 89 d6             	mov    %rdx,%rsi
    3529:	48 89 c7             	mov    %rax,%rdi
    352c:	e8 0d 83 00 00       	callq  b83e <_ZN4Heap4pushEP4Grid>
    3531:	48 8d 85 f0 ff df ff 	lea    -0x200010(%rbp),%rax
    3538:	48 89 c7             	mov    %rax,%rdi
    353b:	e8 34 84 00 00       	callq  b974 <_ZN4Heap3popEv>
    3540:	48 8d 85 30 ed df ff 	lea    -0x2012d0(%rbp),%rax
    3547:	48 8d 50 0c          	lea    0xc(%rax),%rdx
    354b:	48 8d 85 f0 ff df ff 	lea    -0x200010(%rbp),%rax
    3552:	48 89 d6             	mov    %rdx,%rsi
    3555:	48 89 c7             	mov    %rax,%rdi
    3558:	e8 e1 82 00 00       	callq  b83e <_ZN4Heap4pushEP4Grid>
    355d:	48 8d 85 f0 ff df ff 	lea    -0x200010(%rbp),%rax
    3564:	48 89 c7             	mov    %rax,%rdi
    3567:	e8 08 84 00 00       	callq  b974 <_ZN4Heap3popEv>
    356c:	48 8d 85 30 ed df ff 	lea    -0x2012d0(%rbp),%rax
    3573:	48 8d 50 0c          	lea    0xc(%rax),%rdx
    3577:	48 8d 85 f0 ff df ff 	lea    -0x200010(%rbp),%rax
    357e:	48 89 d6             	mov    %rdx,%rsi
    3581:	48 89 c7             	mov    %rax,%rdi
    3584:	e8 b5 82 00 00       	callq  b83e <_ZN4Heap4pushEP4Grid>
    3589:	48 8d 85 f0 ff df ff 	lea    -0x200010(%rbp),%rax
    3590:	48 89 c7             	mov    %rax,%rdi
    3593:	e8 dc 83 00 00       	callq  b974 <_ZN4Heap3popEv>
    3598:	48 8d 85 30 ed df ff 	lea    -0x2012d0(%rbp),%rax
    359f:	48 8d 50 0c          	lea    0xc(%rax),%rdx
    35a3:	48 8d 85 f0 ff df ff 	lea    -0x200010(%rbp),%rax
    35aa:	48 89 d6             	mov    %rdx,%rsi
    35ad:	48 89 c7             	mov    %rax,%rdi
    35b0:	e8 89 82 00 00       	callq  b83e <_ZN4Heap4pushEP4Grid>
    35b5:	48 8d 85 f0 ff df ff 	lea    -0x200010(%rbp),%rax
    35bc:	48 89 c7             	mov    %rax,%rdi
    35bf:	e8 b0 83 00 00       	callq  b974 <_ZN4Heap3popEv>
    35c4:	48 8d 85 30 ed df ff 	lea    -0x2012d0(%rbp),%rax
    35cb:	48 8d 50 0c          	lea    0xc(%rax),%rdx
    35cf:	48 8d 85 f0 ff df ff 	lea    -0x200010(%rbp),%rax
    35d6:	48 89 d6             	mov    %rdx,%rsi
    35d9:	48 89 c7             	mov    %rax,%rdi
    35dc:	e8 5d 82 00 00       	callq  b83e <_ZN4Heap4pushEP4Grid>
    35e1:	48 8d 85 f0 ff df ff 	lea    -0x200010(%rbp),%rax
    35e8:	48 89 c7             	mov    %rax,%rdi
    35eb:	e8 84 83 00 00       	callq  b974 <_ZN4Heap3popEv>
    35f0:	48 8d 85 30 ed df ff 	lea    -0x2012d0(%rbp),%rax
    35f7:	48 8d 50 0c          	lea    0xc(%rax),%rdx
    35fb:	48 8d 85 f0 ff df ff 	lea    -0x200010(%rbp),%rax
    3602:	48 89 d6             	mov    %rdx,%rsi
    3605:	48 89 c7             	mov    %rax,%rdi
    3608:	e8 31 82 00 00       	callq  b83e <_ZN4Heap4pushEP4Grid>
    360d:	48 8d 85 f0 ff df ff 	lea    -0x200010(%rbp),%rax
    3614:	48 89 c7             	mov    %rax,%rdi
    3617:	e8 58 83 00 00       	callq  b974 <_ZN4Heap3popEv>
    361c:	48 8d 85 30 ed df ff 	lea    -0x2012d0(%rbp),%rax
    3623:	48 8d 50 0c          	lea    0xc(%rax),%rdx
    3627:	48 8d 85 f0 ff df ff 	lea    -0x200010(%rbp),%rax
    362e:	48 89 d6             	mov    %rdx,%rsi
    3631:	48 89 c7             	mov    %rax,%rdi
    3634:	e8 05 82 00 00       	callq  b83e <_ZN4Heap4pushEP4Grid>
    3639:	48 8d 85 f0 ff df ff 	lea    -0x200010(%rbp),%rax
    3640:	48 89 c7             	mov    %rax,%rdi
    3643:	e8 2c 83 00 00       	callq  b974 <_ZN4Heap3popEv>
    3648:	48 8d 85 30 ed df ff 	lea    -0x2012d0(%rbp),%rax
    364f:	48 8d 50 0c          	lea    0xc(%rax),%rdx
    3653:	48 8d 85 f0 ff df ff 	lea    -0x200010(%rbp),%rax
    365a:	48 89 d6             	mov    %rdx,%rsi
    365d:	48 89 c7             	mov    %rax,%rdi
    3660:	e8 d9 81 00 00       	callq  b83e <_ZN4Heap4pushEP4Grid>
    3665:	48 8d 85 f0 ff df ff 	lea    -0x200010(%rbp),%rax
    366c:	48 89 c7             	mov    %rax,%rdi
    366f:	e8 00 83 00 00       	callq  b974 <_ZN4Heap3popEv>
    3674:	48 8d 85 30 ed df ff 	lea    -0x2012d0(%rbp),%rax
    367b:	48 8d 50 0c          	lea    0xc(%rax),%rdx
    367f:	48 8d 85 f0 ff df ff 	lea    -0x200010(%rbp),%rax
    3686:	48 89 d6             	mov    %rdx,%rsi
    3689:	48 89 c7             	mov    %rax,%rdi
    368c:	e8 ad 81 00 00       	callq  b83e <_ZN4Heap4pushEP4Grid>
    3691:	48 8d 85 f0 ff df ff 	lea    -0x200010(%rbp),%rax
    3698:	48 89 c7             	mov    %rax,%rdi
    369b:	e8 d4 82 00 00       	callq  b974 <_ZN4Heap3popEv>
    36a0:	48 8d 85 30 ed df ff 	lea    -0x2012d0(%rbp),%rax
    36a7:	48 8d 50 0c          	lea    0xc(%rax),%rdx
    36ab:	48 8d 85 f0 ff df ff 	lea    -0x200010(%rbp),%rax
    36b2:	48 89 d6             	mov    %rdx,%rsi
    36b5:	48 89 c7             	mov    %rax,%rdi
    36b8:	e8 81 81 00 00       	callq  b83e <_ZN4Heap4pushEP4Grid>
    36bd:	48 8d 85 f0 ff df ff 	lea    -0x200010(%rbp),%rax
    36c4:	48 89 c7             	mov    %rax,%rdi
    36c7:	e8 a8 82 00 00       	callq  b974 <_ZN4Heap3popEv>
    36cc:	48 8d 85 30 ed df ff 	lea    -0x2012d0(%rbp),%rax
    36d3:	48 8d 50 0c          	lea    0xc(%rax),%rdx
    36d7:	48 8d 85 f0 ff df ff 	lea    -0x200010(%rbp),%rax
    36de:	48 89 d6             	mov    %rdx,%rsi
    36e1:	48 89 c7             	mov    %rax,%rdi
    36e4:	e8 55 81 00 00       	callq  b83e <_ZN4Heap4pushEP4Grid>
    36e9:	48 8d 85 f0 ff df ff 	lea    -0x200010(%rbp),%rax
    36f0:	48 89 c7             	mov    %rax,%rdi
    36f3:	e8 7c 82 00 00       	callq  b974 <_ZN4Heap3popEv>
    36f8:	48 8d 85 30 ed df ff 	lea    -0x2012d0(%rbp),%rax
    36ff:	48 8d 50 0c          	lea    0xc(%rax),%rdx
    3703:	48 8d 85 f0 ff df ff 	lea    -0x200010(%rbp),%rax
    370a:	48 89 d6             	mov    %rdx,%rsi
    370d:	48 89 c7             	mov    %rax,%rdi
    3710:	e8 29 81 00 00       	callq  b83e <_ZN4Heap4pushEP4Grid>
    3715:	48 8d 85 f0 ff df ff 	lea    -0x200010(%rbp),%rax
    371c:	48 89 c7             	mov    %rax,%rdi
    371f:	e8 50 82 00 00       	callq  b974 <_ZN4Heap3popEv>
    3724:	48 8d 85 30 ed df ff 	lea    -0x2012d0(%rbp),%rax
    372b:	48 8d 50 0c          	lea    0xc(%rax),%rdx
    372f:	48 8d 85 f0 ff df ff 	lea    -0x200010(%rbp),%rax
    3736:	48 89 d6             	mov    %rdx,%rsi
    3739:	48 89 c7             	mov    %rax,%rdi
    373c:	e8 fd 80 00 00       	callq  b83e <_ZN4Heap4pushEP4Grid>
    3741:	48 8d 85 f0 ff df ff 	lea    -0x200010(%rbp),%rax
    3748:	48 89 c7             	mov    %rax,%rdi
    374b:	e8 24 82 00 00       	callq  b974 <_ZN4Heap3popEv>
    3750:	48 8d 85 30 ed df ff 	lea    -0x2012d0(%rbp),%rax
    3757:	48 8d 50 0c          	lea    0xc(%rax),%rdx
    375b:	48 8d 85 f0 ff df ff 	lea    -0x200010(%rbp),%rax
    3762:	48 89 d6             	mov    %rdx,%rsi
    3765:	48 89 c7             	mov    %rax,%rdi
    3768:	e8 d1 80 00 00       	callq  b83e <_ZN4Heap4pushEP4Grid>
    376d:	48 8d 85 f0 ff df ff 	lea    -0x200010(%rbp),%rax
    3774:	48 89 c7             	mov    %rax,%rdi
    3777:	e8 f8 81 00 00       	callq  b974 <_ZN4Heap3popEv>
    377c:	48 8d 85 30 ed df ff 	lea    -0x2012d0(%rbp),%rax
    3783:	48 8d 50 0c          	lea    0xc(%rax),%rdx
    3787:	48 8d 85 f0 ff df ff 	lea    -0x200010(%rbp),%rax
    378e:	48 89 d6             	mov    %rdx,%rsi
    3791:	48 89 c7             	mov    %rax,%rdi
    3794:	e8 a5 80 00 00       	callq  b83e <_ZN4Heap4pushEP4Grid>
    3799:	48 8d 85 f0 ff df ff 	lea    -0x200010(%rbp),%rax
    37a0:	48 89 c7             	mov    %rax,%rdi
    37a3:	e8 cc 81 00 00       	callq  b974 <_ZN4Heap3popEv>
    37a8:	48 8d 85 30 ed df ff 	lea    -0x2012d0(%rbp),%rax
    37af:	48 8d 50 0c          	lea    0xc(%rax),%rdx
    37b3:	48 8d 85 f0 ff df ff 	lea    -0x200010(%rbp),%rax
    37ba:	48 89 d6             	mov    %rdx,%rsi
    37bd:	48 89 c7             	mov    %rax,%rdi
    37c0:	e8 79 80 00 00       	callq  b83e <_ZN4Heap4pushEP4Grid>
    37c5:	48 8d 85 f0 ff df ff 	lea    -0x200010(%rbp),%rax
    37cc:	48 89 c7             	mov    %rax,%rdi
    37cf:	e8 a0 81 00 00       	callq  b974 <_ZN4Heap3popEv>
    37d4:	48 8d 85 30 ed df ff 	lea    -0x2012d0(%rbp),%rax
    37db:	48 8d 50 0c          	lea    0xc(%rax),%rdx
    37df:	48 8d 85 f0 ff df ff 	lea    -0x200010(%rbp),%rax
    37e6:	48 89 d6             	mov    %rdx,%rsi
    37e9:	48 89 c7             	mov    %rax,%rdi
    37ec:	e8 4d 80 00 00       	callq  b83e <_ZN4Heap4pushEP4Grid>
    37f1:	48 8d 85 f0 ff df ff 	lea    -0x200010(%rbp),%rax
    37f8:	48 89 c7             	mov    %rax,%rdi
    37fb:	e8 74 81 00 00       	callq  b974 <_ZN4Heap3popEv>
    3800:	48 8d 85 30 ed df ff 	lea    -0x2012d0(%rbp),%rax
    3807:	48 8d 50 0c          	lea    0xc(%rax),%rdx
    380b:	48 8d 85 f0 ff df ff 	lea    -0x200010(%rbp),%rax
    3812:	48 89 d6             	mov    %rdx,%rsi
    3815:	48 89 c7             	mov    %rax,%rdi
    3818:	e8 21 80 00 00       	callq  b83e <_ZN4Heap4pushEP4Grid>
    381d:	48 8d 85 f0 ff df ff 	lea    -0x200010(%rbp),%rax
    3824:	48 89 c7             	mov    %rax,%rdi
    3827:	e8 48 81 00 00       	callq  b974 <_ZN4Heap3popEv>
    382c:	48 8d 85 30 ed df ff 	lea    -0x2012d0(%rbp),%rax
    3833:	48 8d 50 0c          	lea    0xc(%rax),%rdx
    3837:	48 8d 85 f0 ff df ff 	lea    -0x200010(%rbp),%rax
    383e:	48 89 d6             	mov    %rdx,%rsi
    3841:	48 89 c7             	mov    %rax,%rdi
    3844:	e8 f5 7f 00 00       	callq  b83e <_ZN4Heap4pushEP4Grid>
    3849:	48 8d 85 f0 ff df ff 	lea    -0x200010(%rbp),%rax
    3850:	48 89 c7             	mov    %rax,%rdi
    3853:	e8 1c 81 00 00       	callq  b974 <_ZN4Heap3popEv>
    3858:	48 8d 85 30 ed df ff 	lea    -0x2012d0(%rbp),%rax
    385f:	48 8d 50 0c          	lea    0xc(%rax),%rdx
    3863:	48 8d 85 f0 ff df ff 	lea    -0x200010(%rbp),%rax
    386a:	48 89 d6             	mov    %rdx,%rsi
    386d:	48 89 c7             	mov    %rax,%rdi
    3870:	e8 c9 7f 00 00       	callq  b83e <_ZN4Heap4pushEP4Grid>
    3875:	48 8d 85 f0 ff df ff 	lea    -0x200010(%rbp),%rax
    387c:	48 89 c7             	mov    %rax,%rdi
    387f:	e8 f0 80 00 00       	callq  b974 <_ZN4Heap3popEv>
    3884:	48 8d 85 30 ed df ff 	lea    -0x2012d0(%rbp),%rax
    388b:	48 8d 50 0c          	lea    0xc(%rax),%rdx
    388f:	48 8d 85 f0 ff df ff 	lea    -0x200010(%rbp),%rax
    3896:	48 89 d6             	mov    %rdx,%rsi
    3899:	48 89 c7             	mov    %rax,%rdi
    389c:	e8 9d 7f 00 00       	callq  b83e <_ZN4Heap4pushEP4Grid>
    38a1:	48 8d 85 f0 ff df ff 	lea    -0x200010(%rbp),%rax
    38a8:	48 89 c7             	mov    %rax,%rdi
    38ab:	e8 c4 80 00 00       	callq  b974 <_ZN4Heap3popEv>
    38b0:	48 8d 85 30 ed df ff 	lea    -0x2012d0(%rbp),%rax
    38b7:	48 8d 50 0c          	lea    0xc(%rax),%rdx
    38bb:	48 8d 85 f0 ff df ff 	lea    -0x200010(%rbp),%rax
    38c2:	48 89 d6             	mov    %rdx,%rsi
    38c5:	48 89 c7             	mov    %rax,%rdi
    38c8:	e8 71 7f 00 00       	callq  b83e <_ZN4Heap4pushEP4Grid>
    38cd:	48 8d 85 f0 ff df ff 	lea    -0x200010(%rbp),%rax
    38d4:	48 89 c7             	mov    %rax,%rdi
    38d7:	e8 98 80 00 00       	callq  b974 <_ZN4Heap3popEv>
    38dc:	48 8d 85 30 ed df ff 	lea    -0x2012d0(%rbp),%rax
    38e3:	48 8d 50 0c          	lea    0xc(%rax),%rdx
    38e7:	48 8d 85 f0 ff df ff 	lea    -0x200010(%rbp),%rax
    38ee:	48 89 d6             	mov    %rdx,%rsi
    38f1:	48 89 c7             	mov    %rax,%rdi
    38f4:	e8 45 7f 00 00       	callq  b83e <_ZN4Heap4pushEP4Grid>
    38f9:	48 8d 85 f0 ff df ff 	lea    -0x200010(%rbp),%rax
    3900:	48 89 c7             	mov    %rax,%rdi
    3903:	e8 6c 80 00 00       	callq  b974 <_ZN4Heap3popEv>
    3908:	48 8d 85 30 ed df ff 	lea    -0x2012d0(%rbp),%rax
    390f:	48 8d 50 0c          	lea    0xc(%rax),%rdx
    3913:	48 8d 85 f0 ff df ff 	lea    -0x200010(%rbp),%rax
    391a:	48 89 d6             	mov    %rdx,%rsi
    391d:	48 89 c7             	mov    %rax,%rdi
    3920:	e8 19 7f 00 00       	callq  b83e <_ZN4Heap4pushEP4Grid>
    3925:	48 8d 85 f0 ff df ff 	lea    -0x200010(%rbp),%rax
    392c:	48 89 c7             	mov    %rax,%rdi
    392f:	e8 40 80 00 00       	callq  b974 <_ZN4Heap3popEv>
    3934:	48 8d 85 30 ed df ff 	lea    -0x2012d0(%rbp),%rax
    393b:	48 8d 50 0c          	lea    0xc(%rax),%rdx
    393f:	48 8d 85 f0 ff df ff 	lea    -0x200010(%rbp),%rax
    3946:	48 89 d6             	mov    %rdx,%rsi
    3949:	48 89 c7             	mov    %rax,%rdi
    394c:	e8 ed 7e 00 00       	callq  b83e <_ZN4Heap4pushEP4Grid>
    3951:	48 8d 85 f0 ff df ff 	lea    -0x200010(%rbp),%rax
    3958:	48 89 c7             	mov    %rax,%rdi
    395b:	e8 14 80 00 00       	callq  b974 <_ZN4Heap3popEv>
    3960:	48 8d 85 30 ed df ff 	lea    -0x2012d0(%rbp),%rax
    3967:	48 8d 50 0c          	lea    0xc(%rax),%rdx
    396b:	48 8d 85 f0 ff df ff 	lea    -0x200010(%rbp),%rax
    3972:	48 89 d6             	mov    %rdx,%rsi
    3975:	48 89 c7             	mov    %rax,%rdi
    3978:	e8 c1 7e 00 00       	callq  b83e <_ZN4Heap4pushEP4Grid>
    397d:	48 8d 85 f0 ff df ff 	lea    -0x200010(%rbp),%rax
    3984:	48 89 c7             	mov    %rax,%rdi
    3987:	e8 e8 7f 00 00       	callq  b974 <_ZN4Heap3popEv>
    398c:	48 8d 85 30 ed df ff 	lea    -0x2012d0(%rbp),%rax
    3993:	48 8d 50 0c          	lea    0xc(%rax),%rdx
    3997:	48 8d 85 f0 ff df ff 	lea    -0x200010(%rbp),%rax
    399e:	48 89 d6             	mov    %rdx,%rsi
    39a1:	48 89 c7             	mov    %rax,%rdi
    39a4:	e8 95 7e 00 00       	callq  b83e <_ZN4Heap4pushEP4Grid>
    39a9:	48 8d 85 f0 ff df ff 	lea    -0x200010(%rbp),%rax
    39b0:	48 89 c7             	mov    %rax,%rdi
    39b3:	e8 bc 7f 00 00       	callq  b974 <_ZN4Heap3popEv>
    39b8:	48 8d 85 30 ed df ff 	lea    -0x2012d0(%rbp),%rax
    39bf:	48 8d 50 0c          	lea    0xc(%rax),%rdx
    39c3:	48 8d 85 f0 ff df ff 	lea    -0x200010(%rbp),%rax
    39ca:	48 89 d6             	mov    %rdx,%rsi
    39cd:	48 89 c7             	mov    %rax,%rdi
    39d0:	e8 69 7e 00 00       	callq  b83e <_ZN4Heap4pushEP4Grid>
    39d5:	48 8d 85 f0 ff df ff 	lea    -0x200010(%rbp),%rax
    39dc:	48 89 c7             	mov    %rax,%rdi
    39df:	e8 90 7f 00 00       	callq  b974 <_ZN4Heap3popEv>
    39e4:	48 8d 85 30 ed df ff 	lea    -0x2012d0(%rbp),%rax
    39eb:	48 8d 50 0c          	lea    0xc(%rax),%rdx
    39ef:	48 8d 85 f0 ff df ff 	lea    -0x200010(%rbp),%rax
    39f6:	48 89 d6             	mov    %rdx,%rsi
    39f9:	48 89 c7             	mov    %rax,%rdi
    39fc:	e8 3d 7e 00 00       	callq  b83e <_ZN4Heap4pushEP4Grid>
    3a01:	48 8d 85 f0 ff df ff 	lea    -0x200010(%rbp),%rax
    3a08:	48 89 c7             	mov    %rax,%rdi
    3a0b:	e8 64 7f 00 00       	callq  b974 <_ZN4Heap3popEv>
    3a10:	48 8d 85 30 ed df ff 	lea    -0x2012d0(%rbp),%rax
    3a17:	48 8d 50 0c          	lea    0xc(%rax),%rdx
    3a1b:	48 8d 85 f0 ff df ff 	lea    -0x200010(%rbp),%rax
    3a22:	48 89 d6             	mov    %rdx,%rsi
    3a25:	48 89 c7             	mov    %rax,%rdi
    3a28:	e8 11 7e 00 00       	callq  b83e <_ZN4Heap4pushEP4Grid>
    3a2d:	48 8d 85 f0 ff df ff 	lea    -0x200010(%rbp),%rax
    3a34:	48 89 c7             	mov    %rax,%rdi
    3a37:	e8 38 7f 00 00       	callq  b974 <_ZN4Heap3popEv>
    3a3c:	48 8d 85 30 ed df ff 	lea    -0x2012d0(%rbp),%rax
    3a43:	48 8d 50 0c          	lea    0xc(%rax),%rdx
    3a47:	48 8d 85 f0 ff df ff 	lea    -0x200010(%rbp),%rax
    3a4e:	48 89 d6             	mov    %rdx,%rsi
    3a51:	48 89 c7             	mov    %rax,%rdi
    3a54:	e8 e5 7d 00 00       	callq  b83e <_ZN4Heap4pushEP4Grid>
    3a59:	48 8d 85 f0 ff df ff 	lea    -0x200010(%rbp),%rax
    3a60:	48 89 c7             	mov    %rax,%rdi
    3a63:	e8 0c 7f 00 00       	callq  b974 <_ZN4Heap3popEv>
    3a68:	48 8d 85 30 ed df ff 	lea    -0x2012d0(%rbp),%rax
    3a6f:	48 8d 50 0c          	lea    0xc(%rax),%rdx
    3a73:	48 8d 85 f0 ff df ff 	lea    -0x200010(%rbp),%rax
    3a7a:	48 89 d6             	mov    %rdx,%rsi
    3a7d:	48 89 c7             	mov    %rax,%rdi
    3a80:	e8 b9 7d 00 00       	callq  b83e <_ZN4Heap4pushEP4Grid>
    3a85:	48 8d 85 f0 ff df ff 	lea    -0x200010(%rbp),%rax
    3a8c:	48 89 c7             	mov    %rax,%rdi
    3a8f:	e8 e0 7e 00 00       	callq  b974 <_ZN4Heap3popEv>
    3a94:	48 8d 85 30 ed df ff 	lea    -0x2012d0(%rbp),%rax
    3a9b:	48 8d 50 0c          	lea    0xc(%rax),%rdx
    3a9f:	48 8d 85 f0 ff df ff 	lea    -0x200010(%rbp),%rax
    3aa6:	48 89 d6             	mov    %rdx,%rsi
    3aa9:	48 89 c7             	mov    %rax,%rdi
    3aac:	e8 8d 7d 00 00       	callq  b83e <_ZN4Heap4pushEP4Grid>
    3ab1:	48 8d 85 f0 ff df ff 	lea    -0x200010(%rbp),%rax
    3ab8:	48 89 c7             	mov    %rax,%rdi
    3abb:	e8 b4 7e 00 00       	callq  b974 <_ZN4Heap3popEv>
    3ac0:	48 8d 85 30 ed df ff 	lea    -0x2012d0(%rbp),%rax
    3ac7:	48 8d 50 0c          	lea    0xc(%rax),%rdx
    3acb:	48 8d 85 f0 ff df ff 	lea    -0x200010(%rbp),%rax
    3ad2:	48 89 d6             	mov    %rdx,%rsi
    3ad5:	48 89 c7             	mov    %rax,%rdi
    3ad8:	e8 61 7d 00 00       	callq  b83e <_ZN4Heap4pushEP4Grid>
    3add:	48 8d 85 f0 ff df ff 	lea    -0x200010(%rbp),%rax
    3ae4:	48 89 c7             	mov    %rax,%rdi
    3ae7:	e8 88 7e 00 00       	callq  b974 <_ZN4Heap3popEv>
    3aec:	48 8d 85 30 ed df ff 	lea    -0x2012d0(%rbp),%rax
    3af3:	48 8d 50 0c          	lea    0xc(%rax),%rdx
    3af7:	48 8d 85 f0 ff df ff 	lea    -0x200010(%rbp),%rax
    3afe:	48 89 d6             	mov    %rdx,%rsi
    3b01:	48 89 c7             	mov    %rax,%rdi
    3b04:	e8 35 7d 00 00       	callq  b83e <_ZN4Heap4pushEP4Grid>
    3b09:	48 8d 85 f0 ff df ff 	lea    -0x200010(%rbp),%rax
    3b10:	48 89 c7             	mov    %rax,%rdi
    3b13:	e8 5c 7e 00 00       	callq  b974 <_ZN4Heap3popEv>
    3b18:	48 8d 85 30 ed df ff 	lea    -0x2012d0(%rbp),%rax
    3b1f:	48 8d 50 0c          	lea    0xc(%rax),%rdx
    3b23:	48 8d 85 f0 ff df ff 	lea    -0x200010(%rbp),%rax
    3b2a:	48 89 d6             	mov    %rdx,%rsi
    3b2d:	48 89 c7             	mov    %rax,%rdi
    3b30:	e8 09 7d 00 00       	callq  b83e <_ZN4Heap4pushEP4Grid>
    3b35:	48 8d 85 f0 ff df ff 	lea    -0x200010(%rbp),%rax
    3b3c:	48 89 c7             	mov    %rax,%rdi
    3b3f:	e8 30 7e 00 00       	callq  b974 <_ZN4Heap3popEv>
    3b44:	48 8d 85 30 ed df ff 	lea    -0x2012d0(%rbp),%rax
    3b4b:	48 8d 50 0c          	lea    0xc(%rax),%rdx
    3b4f:	48 8d 85 f0 ff df ff 	lea    -0x200010(%rbp),%rax
    3b56:	48 89 d6             	mov    %rdx,%rsi
    3b59:	48 89 c7             	mov    %rax,%rdi
    3b5c:	e8 dd 7c 00 00       	callq  b83e <_ZN4Heap4pushEP4Grid>
    3b61:	48 8d 85 f0 ff df ff 	lea    -0x200010(%rbp),%rax
    3b68:	48 89 c7             	mov    %rax,%rdi
    3b6b:	e8 04 7e 00 00       	callq  b974 <_ZN4Heap3popEv>
    3b70:	48 8d 85 30 ed df ff 	lea    -0x2012d0(%rbp),%rax
    3b77:	48 8d 50 0c          	lea    0xc(%rax),%rdx
    3b7b:	48 8d 85 f0 ff df ff 	lea    -0x200010(%rbp),%rax
    3b82:	48 89 d6             	mov    %rdx,%rsi
    3b85:	48 89 c7             	mov    %rax,%rdi
    3b88:	e8 b1 7c 00 00       	callq  b83e <_ZN4Heap4pushEP4Grid>
    3b8d:	48 8d 85 f0 ff df ff 	lea    -0x200010(%rbp),%rax
    3b94:	48 89 c7             	mov    %rax,%rdi
    3b97:	e8 d8 7d 00 00       	callq  b974 <_ZN4Heap3popEv>
    3b9c:	48 8d 85 30 ed df ff 	lea    -0x2012d0(%rbp),%rax
    3ba3:	48 8d 50 0c          	lea    0xc(%rax),%rdx
    3ba7:	48 8d 85 f0 ff df ff 	lea    -0x200010(%rbp),%rax
    3bae:	48 89 d6             	mov    %rdx,%rsi
    3bb1:	48 89 c7             	mov    %rax,%rdi
    3bb4:	e8 85 7c 00 00       	callq  b83e <_ZN4Heap4pushEP4Grid>
    3bb9:	48 8d 85 f0 ff df ff 	lea    -0x200010(%rbp),%rax
    3bc0:	48 89 c7             	mov    %rax,%rdi
    3bc3:	e8 ac 7d 00 00       	callq  b974 <_ZN4Heap3popEv>
    3bc8:	48 8d 85 30 ed df ff 	lea    -0x2012d0(%rbp),%rax
    3bcf:	48 8d 50 0c          	lea    0xc(%rax),%rdx
    3bd3:	48 8d 85 f0 ff df ff 	lea    -0x200010(%rbp),%rax
    3bda:	48 89 d6             	mov    %rdx,%rsi
    3bdd:	48 89 c7             	mov    %rax,%rdi
    3be0:	e8 59 7c 00 00       	callq  b83e <_ZN4Heap4pushEP4Grid>
    3be5:	48 8d 85 f0 ff df ff 	lea    -0x200010(%rbp),%rax
    3bec:	48 89 c7             	mov    %rax,%rdi
    3bef:	e8 80 7d 00 00       	callq  b974 <_ZN4Heap3popEv>
    3bf4:	48 8d 85 30 ed df ff 	lea    -0x2012d0(%rbp),%rax
    3bfb:	48 8d 50 0c          	lea    0xc(%rax),%rdx
    3bff:	48 8d 85 f0 ff df ff 	lea    -0x200010(%rbp),%rax
    3c06:	48 89 d6             	mov    %rdx,%rsi
    3c09:	48 89 c7             	mov    %rax,%rdi
    3c0c:	e8 2d 7c 00 00       	callq  b83e <_ZN4Heap4pushEP4Grid>
    3c11:	48 8d 85 f0 ff df ff 	lea    -0x200010(%rbp),%rax
    3c18:	48 89 c7             	mov    %rax,%rdi
    3c1b:	e8 54 7d 00 00       	callq  b974 <_ZN4Heap3popEv>
    3c20:	48 8d 85 30 ed df ff 	lea    -0x2012d0(%rbp),%rax
    3c27:	48 8d 50 0c          	lea    0xc(%rax),%rdx
    3c2b:	48 8d 85 f0 ff df ff 	lea    -0x200010(%rbp),%rax
    3c32:	48 89 d6             	mov    %rdx,%rsi
    3c35:	48 89 c7             	mov    %rax,%rdi
    3c38:	e8 01 7c 00 00       	callq  b83e <_ZN4Heap4pushEP4Grid>
    3c3d:	48 8d 85 f0 ff df ff 	lea    -0x200010(%rbp),%rax
    3c44:	48 89 c7             	mov    %rax,%rdi
    3c47:	e8 28 7d 00 00       	callq  b974 <_ZN4Heap3popEv>
    3c4c:	48 8d 85 30 ed df ff 	lea    -0x2012d0(%rbp),%rax
    3c53:	48 8d 50 0c          	lea    0xc(%rax),%rdx
    3c57:	48 8d 85 f0 ff df ff 	lea    -0x200010(%rbp),%rax
    3c5e:	48 89 d6             	mov    %rdx,%rsi
    3c61:	48 89 c7             	mov    %rax,%rdi
    3c64:	e8 d5 7b 00 00       	callq  b83e <_ZN4Heap4pushEP4Grid>
    3c69:	48 8d 85 f0 ff df ff 	lea    -0x200010(%rbp),%rax
    3c70:	48 89 c7             	mov    %rax,%rdi
    3c73:	e8 fc 7c 00 00       	callq  b974 <_ZN4Heap3popEv>
    3c78:	48 8d 85 30 ed df ff 	lea    -0x2012d0(%rbp),%rax
    3c7f:	48 8d 50 0c          	lea    0xc(%rax),%rdx
    3c83:	48 8d 85 f0 ff df ff 	lea    -0x200010(%rbp),%rax
    3c8a:	48 89 d6             	mov    %rdx,%rsi
    3c8d:	48 89 c7             	mov    %rax,%rdi
    3c90:	e8 a9 7b 00 00       	callq  b83e <_ZN4Heap4pushEP4Grid>
    3c95:	48 8d 85 f0 ff df ff 	lea    -0x200010(%rbp),%rax
    3c9c:	48 89 c7             	mov    %rax,%rdi
    3c9f:	e8 d0 7c 00 00       	callq  b974 <_ZN4Heap3popEv>
    3ca4:	48 8d 85 30 ed df ff 	lea    -0x2012d0(%rbp),%rax
    3cab:	48 8d 50 0c          	lea    0xc(%rax),%rdx
    3caf:	48 8d 85 f0 ff df ff 	lea    -0x200010(%rbp),%rax
    3cb6:	48 89 d6             	mov    %rdx,%rsi
    3cb9:	48 89 c7             	mov    %rax,%rdi
    3cbc:	e8 7d 7b 00 00       	callq  b83e <_ZN4Heap4pushEP4Grid>
    3cc1:	48 8d 85 f0 ff df ff 	lea    -0x200010(%rbp),%rax
    3cc8:	48 89 c7             	mov    %rax,%rdi
    3ccb:	e8 a4 7c 00 00       	callq  b974 <_ZN4Heap3popEv>
    3cd0:	48 8d 85 30 ed df ff 	lea    -0x2012d0(%rbp),%rax
    3cd7:	48 8d 50 0c          	lea    0xc(%rax),%rdx
    3cdb:	48 8d 85 f0 ff df ff 	lea    -0x200010(%rbp),%rax
    3ce2:	48 89 d6             	mov    %rdx,%rsi
    3ce5:	48 89 c7             	mov    %rax,%rdi
    3ce8:	e8 51 7b 00 00       	callq  b83e <_ZN4Heap4pushEP4Grid>
    3ced:	48 8d 85 f0 ff df ff 	lea    -0x200010(%rbp),%rax
    3cf4:	48 89 c7             	mov    %rax,%rdi
    3cf7:	e8 78 7c 00 00       	callq  b974 <_ZN4Heap3popEv>
    3cfc:	48 8d 85 30 ed df ff 	lea    -0x2012d0(%rbp),%rax
    3d03:	48 8d 50 0c          	lea    0xc(%rax),%rdx
    3d07:	48 8d 85 f0 ff df ff 	lea    -0x200010(%rbp),%rax
    3d0e:	48 89 d6             	mov    %rdx,%rsi
    3d11:	48 89 c7             	mov    %rax,%rdi
    3d14:	e8 25 7b 00 00       	callq  b83e <_ZN4Heap4pushEP4Grid>
    3d19:	48 8d 85 f0 ff df ff 	lea    -0x200010(%rbp),%rax
    3d20:	48 89 c7             	mov    %rax,%rdi
    3d23:	e8 4c 7c 00 00       	callq  b974 <_ZN4Heap3popEv>
    3d28:	48 8d 85 30 ed df ff 	lea    -0x2012d0(%rbp),%rax
    3d2f:	48 8d 50 0c          	lea    0xc(%rax),%rdx
    3d33:	48 8d 85 f0 ff df ff 	lea    -0x200010(%rbp),%rax
    3d3a:	48 89 d6             	mov    %rdx,%rsi
    3d3d:	48 89 c7             	mov    %rax,%rdi
    3d40:	e8 f9 7a 00 00       	callq  b83e <_ZN4Heap4pushEP4Grid>
    3d45:	48 8d 85 f0 ff df ff 	lea    -0x200010(%rbp),%rax
    3d4c:	48 89 c7             	mov    %rax,%rdi
    3d4f:	e8 20 7c 00 00       	callq  b974 <_ZN4Heap3popEv>
    3d54:	48 8d 85 30 ed df ff 	lea    -0x2012d0(%rbp),%rax
    3d5b:	48 8d 50 0c          	lea    0xc(%rax),%rdx
    3d5f:	48 8d 85 f0 ff df ff 	lea    -0x200010(%rbp),%rax
    3d66:	48 89 d6             	mov    %rdx,%rsi
    3d69:	48 89 c7             	mov    %rax,%rdi
    3d6c:	e8 cd 7a 00 00       	callq  b83e <_ZN4Heap4pushEP4Grid>
    3d71:	48 8d 85 f0 ff df ff 	lea    -0x200010(%rbp),%rax
    3d78:	48 89 c7             	mov    %rax,%rdi
    3d7b:	e8 f4 7b 00 00       	callq  b974 <_ZN4Heap3popEv>
    3d80:	48 8d 85 30 ed df ff 	lea    -0x2012d0(%rbp),%rax
    3d87:	48 8d 50 0c          	lea    0xc(%rax),%rdx
    3d8b:	48 8d 85 f0 ff df ff 	lea    -0x200010(%rbp),%rax
    3d92:	48 89 d6             	mov    %rdx,%rsi
    3d95:	48 89 c7             	mov    %rax,%rdi
    3d98:	e8 a1 7a 00 00       	callq  b83e <_ZN4Heap4pushEP4Grid>
    3d9d:	48 8d 85 f0 ff df ff 	lea    -0x200010(%rbp),%rax
    3da4:	48 89 c7             	mov    %rax,%rdi
    3da7:	e8 c8 7b 00 00       	callq  b974 <_ZN4Heap3popEv>
    3dac:	48 8d 85 30 ed df ff 	lea    -0x2012d0(%rbp),%rax
    3db3:	48 8d 50 0c          	lea    0xc(%rax),%rdx
    3db7:	48 8d 85 f0 ff df ff 	lea    -0x200010(%rbp),%rax
    3dbe:	48 89 d6             	mov    %rdx,%rsi
    3dc1:	48 89 c7             	mov    %rax,%rdi
    3dc4:	e8 75 7a 00 00       	callq  b83e <_ZN4Heap4pushEP4Grid>
    3dc9:	48 8d 85 f0 ff df ff 	lea    -0x200010(%rbp),%rax
    3dd0:	48 89 c7             	mov    %rax,%rdi
    3dd3:	e8 9c 7b 00 00       	callq  b974 <_ZN4Heap3popEv>
    3dd8:	48 8d 85 30 ed df ff 	lea    -0x2012d0(%rbp),%rax
    3ddf:	48 8d 50 0c          	lea    0xc(%rax),%rdx
    3de3:	48 8d 85 f0 ff df ff 	lea    -0x200010(%rbp),%rax
    3dea:	48 89 d6             	mov    %rdx,%rsi
    3ded:	48 89 c7             	mov    %rax,%rdi
    3df0:	e8 49 7a 00 00       	callq  b83e <_ZN4Heap4pushEP4Grid>
    3df5:	48 8d 85 f0 ff df ff 	lea    -0x200010(%rbp),%rax
    3dfc:	48 89 c7             	mov    %rax,%rdi
    3dff:	e8 70 7b 00 00       	callq  b974 <_ZN4Heap3popEv>
    3e04:	48 8d 85 30 ed df ff 	lea    -0x2012d0(%rbp),%rax
    3e0b:	48 8d 50 0c          	lea    0xc(%rax),%rdx
    3e0f:	48 8d 85 f0 ff df ff 	lea    -0x200010(%rbp),%rax
    3e16:	48 89 d6             	mov    %rdx,%rsi
    3e19:	48 89 c7             	mov    %rax,%rdi
    3e1c:	e8 1d 7a 00 00       	callq  b83e <_ZN4Heap4pushEP4Grid>
    3e21:	48 8d 85 f0 ff df ff 	lea    -0x200010(%rbp),%rax
    3e28:	48 89 c7             	mov    %rax,%rdi
    3e2b:	e8 44 7b 00 00       	callq  b974 <_ZN4Heap3popEv>
    3e30:	48 8d 85 30 ed df ff 	lea    -0x2012d0(%rbp),%rax
    3e37:	48 8d 50 0c          	lea    0xc(%rax),%rdx
    3e3b:	48 8d 85 f0 ff df ff 	lea    -0x200010(%rbp),%rax
    3e42:	48 89 d6             	mov    %rdx,%rsi
    3e45:	48 89 c7             	mov    %rax,%rdi
    3e48:	e8 f1 79 00 00       	callq  b83e <_ZN4Heap4pushEP4Grid>
    3e4d:	48 8d 85 f0 ff df ff 	lea    -0x200010(%rbp),%rax
    3e54:	48 89 c7             	mov    %rax,%rdi
    3e57:	e8 18 7b 00 00       	callq  b974 <_ZN4Heap3popEv>
    3e5c:	48 8d 85 30 ed df ff 	lea    -0x2012d0(%rbp),%rax
    3e63:	48 8d 50 0c          	lea    0xc(%rax),%rdx
    3e67:	48 8d 85 f0 ff df ff 	lea    -0x200010(%rbp),%rax
    3e6e:	48 89 d6             	mov    %rdx,%rsi
    3e71:	48 89 c7             	mov    %rax,%rdi
    3e74:	e8 c5 79 00 00       	callq  b83e <_ZN4Heap4pushEP4Grid>
    3e79:	48 8d 85 f0 ff df ff 	lea    -0x200010(%rbp),%rax
    3e80:	48 89 c7             	mov    %rax,%rdi
    3e83:	e8 ec 7a 00 00       	callq  b974 <_ZN4Heap3popEv>
    3e88:	48 8d 85 30 ed df ff 	lea    -0x2012d0(%rbp),%rax
    3e8f:	48 8d 50 0c          	lea    0xc(%rax),%rdx
    3e93:	48 8d 85 f0 ff df ff 	lea    -0x200010(%rbp),%rax
    3e9a:	48 89 d6             	mov    %rdx,%rsi
    3e9d:	48 89 c7             	mov    %rax,%rdi
    3ea0:	e8 99 79 00 00       	callq  b83e <_ZN4Heap4pushEP4Grid>
    3ea5:	48 8d 85 f0 ff df ff 	lea    -0x200010(%rbp),%rax
    3eac:	48 89 c7             	mov    %rax,%rdi
    3eaf:	e8 c0 7a 00 00       	callq  b974 <_ZN4Heap3popEv>
    3eb4:	48 8d 85 30 ed df ff 	lea    -0x2012d0(%rbp),%rax
    3ebb:	48 8d 50 0c          	lea    0xc(%rax),%rdx
    3ebf:	48 8d 85 f0 ff df ff 	lea    -0x200010(%rbp),%rax
    3ec6:	48 89 d6             	mov    %rdx,%rsi
    3ec9:	48 89 c7             	mov    %rax,%rdi
    3ecc:	e8 6d 79 00 00       	callq  b83e <_ZN4Heap4pushEP4Grid>
    3ed1:	48 8d 85 f0 ff df ff 	lea    -0x200010(%rbp),%rax
    3ed8:	48 89 c7             	mov    %rax,%rdi
    3edb:	e8 94 7a 00 00       	callq  b974 <_ZN4Heap3popEv>
    3ee0:	48 8d 85 30 ed df ff 	lea    -0x2012d0(%rbp),%rax
    3ee7:	48 8d 50 0c          	lea    0xc(%rax),%rdx
    3eeb:	48 8d 85 f0 ff df ff 	lea    -0x200010(%rbp),%rax
    3ef2:	48 89 d6             	mov    %rdx,%rsi
    3ef5:	48 89 c7             	mov    %rax,%rdi
    3ef8:	e8 41 79 00 00       	callq  b83e <_ZN4Heap4pushEP4Grid>
    3efd:	48 8d 85 f0 ff df ff 	lea    -0x200010(%rbp),%rax
    3f04:	48 89 c7             	mov    %rax,%rdi
    3f07:	e8 68 7a 00 00       	callq  b974 <_ZN4Heap3popEv>
    3f0c:	48 8d 85 30 ed df ff 	lea    -0x2012d0(%rbp),%rax
    3f13:	48 8d 50 0c          	lea    0xc(%rax),%rdx
    3f17:	48 8d 85 f0 ff df ff 	lea    -0x200010(%rbp),%rax
    3f1e:	48 89 d6             	mov    %rdx,%rsi
    3f21:	48 89 c7             	mov    %rax,%rdi
    3f24:	e8 15 79 00 00       	callq  b83e <_ZN4Heap4pushEP4Grid>
    3f29:	48 8d 85 f0 ff df ff 	lea    -0x200010(%rbp),%rax
    3f30:	48 89 c7             	mov    %rax,%rdi
    3f33:	e8 3c 7a 00 00       	callq  b974 <_ZN4Heap3popEv>
    3f38:	48 8d 85 30 ed df ff 	lea    -0x2012d0(%rbp),%rax
    3f3f:	48 8d 50 0c          	lea    0xc(%rax),%rdx
    3f43:	48 8d 85 f0 ff df ff 	lea    -0x200010(%rbp),%rax
    3f4a:	48 89 d6             	mov    %rdx,%rsi
    3f4d:	48 89 c7             	mov    %rax,%rdi
    3f50:	e8 e9 78 00 00       	callq  b83e <_ZN4Heap4pushEP4Grid>
    3f55:	48 8d 85 f0 ff df ff 	lea    -0x200010(%rbp),%rax
    3f5c:	48 89 c7             	mov    %rax,%rdi
    3f5f:	e8 10 7a 00 00       	callq  b974 <_ZN4Heap3popEv>
    3f64:	48 8d 85 30 ed df ff 	lea    -0x2012d0(%rbp),%rax
    3f6b:	48 8d 50 0c          	lea    0xc(%rax),%rdx
    3f6f:	48 8d 85 f0 ff df ff 	lea    -0x200010(%rbp),%rax
    3f76:	48 89 d6             	mov    %rdx,%rsi
    3f79:	48 89 c7             	mov    %rax,%rdi
    3f7c:	e8 bd 78 00 00       	callq  b83e <_ZN4Heap4pushEP4Grid>
    3f81:	48 8d 85 f0 ff df ff 	lea    -0x200010(%rbp),%rax
    3f88:	48 89 c7             	mov    %rax,%rdi
    3f8b:	e8 e4 79 00 00       	callq  b974 <_ZN4Heap3popEv>
    3f90:	48 8d 85 30 ed df ff 	lea    -0x2012d0(%rbp),%rax
    3f97:	48 8d 50 0c          	lea    0xc(%rax),%rdx
    3f9b:	48 8d 85 f0 ff df ff 	lea    -0x200010(%rbp),%rax
    3fa2:	48 89 d6             	mov    %rdx,%rsi
    3fa5:	48 89 c7             	mov    %rax,%rdi
    3fa8:	e8 91 78 00 00       	callq  b83e <_ZN4Heap4pushEP4Grid>
    3fad:	48 8d 85 f0 ff df ff 	lea    -0x200010(%rbp),%rax
    3fb4:	48 89 c7             	mov    %rax,%rdi
    3fb7:	e8 b8 79 00 00       	callq  b974 <_ZN4Heap3popEv>
    3fbc:	48 8d 85 30 ed df ff 	lea    -0x2012d0(%rbp),%rax
    3fc3:	48 8d 50 0c          	lea    0xc(%rax),%rdx
    3fc7:	48 8d 85 f0 ff df ff 	lea    -0x200010(%rbp),%rax
    3fce:	48 89 d6             	mov    %rdx,%rsi
    3fd1:	48 89 c7             	mov    %rax,%rdi
    3fd4:	e8 65 78 00 00       	callq  b83e <_ZN4Heap4pushEP4Grid>
    3fd9:	48 8d 85 f0 ff df ff 	lea    -0x200010(%rbp),%rax
    3fe0:	48 89 c7             	mov    %rax,%rdi
    3fe3:	e8 8c 79 00 00       	callq  b974 <_ZN4Heap3popEv>
    3fe8:	48 8d 85 30 ed df ff 	lea    -0x2012d0(%rbp),%rax
    3fef:	48 8d 50 0c          	lea    0xc(%rax),%rdx
    3ff3:	48 8d 85 f0 ff df ff 	lea    -0x200010(%rbp),%rax
    3ffa:	48 89 d6             	mov    %rdx,%rsi
    3ffd:	48 89 c7             	mov    %rax,%rdi
    4000:	e8 39 78 00 00       	callq  b83e <_ZN4Heap4pushEP4Grid>
    4005:	48 8d 85 f0 ff df ff 	lea    -0x200010(%rbp),%rax
    400c:	48 89 c7             	mov    %rax,%rdi
    400f:	e8 60 79 00 00       	callq  b974 <_ZN4Heap3popEv>
    4014:	48 8d 85 30 ed df ff 	lea    -0x2012d0(%rbp),%rax
    401b:	48 8d 50 0c          	lea    0xc(%rax),%rdx
    401f:	48 8d 85 f0 ff df ff 	lea    -0x200010(%rbp),%rax
    4026:	48 89 d6             	mov    %rdx,%rsi
    4029:	48 89 c7             	mov    %rax,%rdi
    402c:	e8 0d 78 00 00       	callq  b83e <_ZN4Heap4pushEP4Grid>
    4031:	48 8d 85 f0 ff df ff 	lea    -0x200010(%rbp),%rax
    4038:	48 89 c7             	mov    %rax,%rdi
    403b:	e8 34 79 00 00       	callq  b974 <_ZN4Heap3popEv>
    4040:	48 8d 85 30 ed df ff 	lea    -0x2012d0(%rbp),%rax
    4047:	48 8d 50 0c          	lea    0xc(%rax),%rdx
    404b:	48 8d 85 f0 ff df ff 	lea    -0x200010(%rbp),%rax
    4052:	48 89 d6             	mov    %rdx,%rsi
    4055:	48 89 c7             	mov    %rax,%rdi
    4058:	e8 e1 77 00 00       	callq  b83e <_ZN4Heap4pushEP4Grid>
    405d:	48 8d 85 f0 ff df ff 	lea    -0x200010(%rbp),%rax
    4064:	48 89 c7             	mov    %rax,%rdi
    4067:	e8 08 79 00 00       	callq  b974 <_ZN4Heap3popEv>
    406c:	48 8d 85 30 ed df ff 	lea    -0x2012d0(%rbp),%rax
    4073:	48 8d 50 0c          	lea    0xc(%rax),%rdx
    4077:	48 8d 85 f0 ff df ff 	lea    -0x200010(%rbp),%rax
    407e:	48 89 d6             	mov    %rdx,%rsi
    4081:	48 89 c7             	mov    %rax,%rdi
    4084:	e8 b5 77 00 00       	callq  b83e <_ZN4Heap4pushEP4Grid>
    4089:	48 8d 85 f0 ff df ff 	lea    -0x200010(%rbp),%rax
    4090:	48 89 c7             	mov    %rax,%rdi
    4093:	e8 dc 78 00 00       	callq  b974 <_ZN4Heap3popEv>
    4098:	48 8d 85 30 ed df ff 	lea    -0x2012d0(%rbp),%rax
    409f:	48 8d 50 0c          	lea    0xc(%rax),%rdx
    40a3:	48 8d 85 f0 ff df ff 	lea    -0x200010(%rbp),%rax
    40aa:	48 89 d6             	mov    %rdx,%rsi
    40ad:	48 89 c7             	mov    %rax,%rdi
    40b0:	e8 89 77 00 00       	callq  b83e <_ZN4Heap4pushEP4Grid>
    40b5:	48 8d 85 f0 ff df ff 	lea    -0x200010(%rbp),%rax
    40bc:	48 89 c7             	mov    %rax,%rdi
    40bf:	e8 b0 78 00 00       	callq  b974 <_ZN4Heap3popEv>
    40c4:	48 8d 85 30 ed df ff 	lea    -0x2012d0(%rbp),%rax
    40cb:	48 8d 50 0c          	lea    0xc(%rax),%rdx
    40cf:	48 8d 85 f0 ff df ff 	lea    -0x200010(%rbp),%rax
    40d6:	48 89 d6             	mov    %rdx,%rsi
    40d9:	48 89 c7             	mov    %rax,%rdi
    40dc:	e8 5d 77 00 00       	callq  b83e <_ZN4Heap4pushEP4Grid>
    40e1:	48 8d 85 f0 ff df ff 	lea    -0x200010(%rbp),%rax
    40e8:	48 89 c7             	mov    %rax,%rdi
    40eb:	e8 84 78 00 00       	callq  b974 <_ZN4Heap3popEv>
    40f0:	48 8d 85 30 ed df ff 	lea    -0x2012d0(%rbp),%rax
    40f7:	48 8d 50 0c          	lea    0xc(%rax),%rdx
    40fb:	48 8d 85 f0 ff df ff 	lea    -0x200010(%rbp),%rax
    4102:	48 89 d6             	mov    %rdx,%rsi
    4105:	48 89 c7             	mov    %rax,%rdi
    4108:	e8 31 77 00 00       	callq  b83e <_ZN4Heap4pushEP4Grid>
    410d:	48 8d 85 f0 ff df ff 	lea    -0x200010(%rbp),%rax
    4114:	48 89 c7             	mov    %rax,%rdi
    4117:	e8 58 78 00 00       	callq  b974 <_ZN4Heap3popEv>
    411c:	48 8d 85 30 ed df ff 	lea    -0x2012d0(%rbp),%rax
    4123:	48 8d 50 0c          	lea    0xc(%rax),%rdx
    4127:	48 8d 85 f0 ff df ff 	lea    -0x200010(%rbp),%rax
    412e:	48 89 d6             	mov    %rdx,%rsi
    4131:	48 89 c7             	mov    %rax,%rdi
    4134:	e8 05 77 00 00       	callq  b83e <_ZN4Heap4pushEP4Grid>
    4139:	48 8d 85 f0 ff df ff 	lea    -0x200010(%rbp),%rax
    4140:	48 89 c7             	mov    %rax,%rdi
    4143:	e8 2c 78 00 00       	callq  b974 <_ZN4Heap3popEv>
    4148:	48 8d 85 30 ed df ff 	lea    -0x2012d0(%rbp),%rax
    414f:	48 8d 50 0c          	lea    0xc(%rax),%rdx
    4153:	48 8d 85 f0 ff df ff 	lea    -0x200010(%rbp),%rax
    415a:	48 89 d6             	mov    %rdx,%rsi
    415d:	48 89 c7             	mov    %rax,%rdi
    4160:	e8 d9 76 00 00       	callq  b83e <_ZN4Heap4pushEP4Grid>
    4165:	48 8d 85 f0 ff df ff 	lea    -0x200010(%rbp),%rax
    416c:	48 89 c7             	mov    %rax,%rdi
    416f:	e8 00 78 00 00       	callq  b974 <_ZN4Heap3popEv>
    4174:	48 8d 85 30 ed df ff 	lea    -0x2012d0(%rbp),%rax
    417b:	48 8d 50 0c          	lea    0xc(%rax),%rdx
    417f:	48 8d 85 f0 ff df ff 	lea    -0x200010(%rbp),%rax
    4186:	48 89 d6             	mov    %rdx,%rsi
    4189:	48 89 c7             	mov    %rax,%rdi
    418c:	e8 ad 76 00 00       	callq  b83e <_ZN4Heap4pushEP4Grid>
    4191:	48 8d 85 f0 ff df ff 	lea    -0x200010(%rbp),%rax
    4198:	48 89 c7             	mov    %rax,%rdi
    419b:	e8 d4 77 00 00       	callq  b974 <_ZN4Heap3popEv>
    41a0:	48 8d 85 30 ed df ff 	lea    -0x2012d0(%rbp),%rax
    41a7:	48 8d 50 0c          	lea    0xc(%rax),%rdx
    41ab:	48 8d 85 f0 ff df ff 	lea    -0x200010(%rbp),%rax
    41b2:	48 89 d6             	mov    %rdx,%rsi
    41b5:	48 89 c7             	mov    %rax,%rdi
    41b8:	e8 81 76 00 00       	callq  b83e <_ZN4Heap4pushEP4Grid>
    41bd:	48 8d 85 f0 ff df ff 	lea    -0x200010(%rbp),%rax
    41c4:	48 89 c7             	mov    %rax,%rdi
    41c7:	e8 a8 77 00 00       	callq  b974 <_ZN4Heap3popEv>
    41cc:	48 8d 85 30 ed df ff 	lea    -0x2012d0(%rbp),%rax
    41d3:	48 8d 50 0c          	lea    0xc(%rax),%rdx
    41d7:	48 8d 85 f0 ff df ff 	lea    -0x200010(%rbp),%rax
    41de:	48 89 d6             	mov    %rdx,%rsi
    41e1:	48 89 c7             	mov    %rax,%rdi
    41e4:	e8 55 76 00 00       	callq  b83e <_ZN4Heap4pushEP4Grid>
    41e9:	48 8d 85 f0 ff df ff 	lea    -0x200010(%rbp),%rax
    41f0:	48 89 c7             	mov    %rax,%rdi
    41f3:	e8 7c 77 00 00       	callq  b974 <_ZN4Heap3popEv>
    41f8:	48 8d 85 30 ed df ff 	lea    -0x2012d0(%rbp),%rax
    41ff:	48 8d 50 0c          	lea    0xc(%rax),%rdx
    4203:	48 8d 85 f0 ff df ff 	lea    -0x200010(%rbp),%rax
    420a:	48 89 d6             	mov    %rdx,%rsi
    420d:	48 89 c7             	mov    %rax,%rdi
    4210:	e8 29 76 00 00       	callq  b83e <_ZN4Heap4pushEP4Grid>
    4215:	48 8d 85 f0 ff df ff 	lea    -0x200010(%rbp),%rax
    421c:	48 89 c7             	mov    %rax,%rdi
    421f:	e8 50 77 00 00       	callq  b974 <_ZN4Heap3popEv>
    4224:	48 8d 85 30 ed df ff 	lea    -0x2012d0(%rbp),%rax
    422b:	48 8d 50 0c          	lea    0xc(%rax),%rdx
    422f:	48 8d 85 f0 ff df ff 	lea    -0x200010(%rbp),%rax
    4236:	48 89 d6             	mov    %rdx,%rsi
    4239:	48 89 c7             	mov    %rax,%rdi
    423c:	e8 fd 75 00 00       	callq  b83e <_ZN4Heap4pushEP4Grid>
    4241:	48 8d 85 f0 ff df ff 	lea    -0x200010(%rbp),%rax
    4248:	48 89 c7             	mov    %rax,%rdi
    424b:	e8 24 77 00 00       	callq  b974 <_ZN4Heap3popEv>
    4250:	48 8d 85 30 ed df ff 	lea    -0x2012d0(%rbp),%rax
    4257:	48 8d 50 0c          	lea    0xc(%rax),%rdx
    425b:	48 8d 85 f0 ff df ff 	lea    -0x200010(%rbp),%rax
    4262:	48 89 d6             	mov    %rdx,%rsi
    4265:	48 89 c7             	mov    %rax,%rdi
    4268:	e8 d1 75 00 00       	callq  b83e <_ZN4Heap4pushEP4Grid>
    426d:	48 8d 85 f0 ff df ff 	lea    -0x200010(%rbp),%rax
    4274:	48 89 c7             	mov    %rax,%rdi
    4277:	e8 f8 76 00 00       	callq  b974 <_ZN4Heap3popEv>
    427c:	48 8d 85 30 ed df ff 	lea    -0x2012d0(%rbp),%rax
    4283:	48 8d 50 0c          	lea    0xc(%rax),%rdx
    4287:	48 8d 85 f0 ff df ff 	lea    -0x200010(%rbp),%rax
    428e:	48 89 d6             	mov    %rdx,%rsi
    4291:	48 89 c7             	mov    %rax,%rdi
    4294:	e8 a5 75 00 00       	callq  b83e <_ZN4Heap4pushEP4Grid>
    4299:	48 8d 85 f0 ff df ff 	lea    -0x200010(%rbp),%rax
    42a0:	48 89 c7             	mov    %rax,%rdi
    42a3:	e8 cc 76 00 00       	callq  b974 <_ZN4Heap3popEv>
    42a8:	48 8d 85 30 ed df ff 	lea    -0x2012d0(%rbp),%rax
    42af:	48 8d 50 0c          	lea    0xc(%rax),%rdx
    42b3:	48 8d 85 f0 ff df ff 	lea    -0x200010(%rbp),%rax
    42ba:	48 89 d6             	mov    %rdx,%rsi
    42bd:	48 89 c7             	mov    %rax,%rdi
    42c0:	e8 79 75 00 00       	callq  b83e <_ZN4Heap4pushEP4Grid>
    42c5:	48 8d 85 f0 ff df ff 	lea    -0x200010(%rbp),%rax
    42cc:	48 89 c7             	mov    %rax,%rdi
    42cf:	e8 a0 76 00 00       	callq  b974 <_ZN4Heap3popEv>
    42d4:	48 8d 85 30 ed df ff 	lea    -0x2012d0(%rbp),%rax
    42db:	48 8d 50 0c          	lea    0xc(%rax),%rdx
    42df:	48 8d 85 f0 ff df ff 	lea    -0x200010(%rbp),%rax
    42e6:	48 89 d6             	mov    %rdx,%rsi
    42e9:	48 89 c7             	mov    %rax,%rdi
    42ec:	e8 4d 75 00 00       	callq  b83e <_ZN4Heap4pushEP4Grid>
    42f1:	48 8d 85 f0 ff df ff 	lea    -0x200010(%rbp),%rax
    42f8:	48 89 c7             	mov    %rax,%rdi
    42fb:	e8 74 76 00 00       	callq  b974 <_ZN4Heap3popEv>
    4300:	48 8d 85 30 ed df ff 	lea    -0x2012d0(%rbp),%rax
    4307:	48 8d 50 0c          	lea    0xc(%rax),%rdx
    430b:	48 8d 85 f0 ff df ff 	lea    -0x200010(%rbp),%rax
    4312:	48 89 d6             	mov    %rdx,%rsi
    4315:	48 89 c7             	mov    %rax,%rdi
    4318:	e8 21 75 00 00       	callq  b83e <_ZN4Heap4pushEP4Grid>
    431d:	48 8d 85 f0 ff df ff 	lea    -0x200010(%rbp),%rax
    4324:	48 89 c7             	mov    %rax,%rdi
    4327:	e8 48 76 00 00       	callq  b974 <_ZN4Heap3popEv>
    432c:	48 8d 85 30 ed df ff 	lea    -0x2012d0(%rbp),%rax
    4333:	48 8d 50 0c          	lea    0xc(%rax),%rdx
    4337:	48 8d 85 f0 ff df ff 	lea    -0x200010(%rbp),%rax
    433e:	48 89 d6             	mov    %rdx,%rsi
    4341:	48 89 c7             	mov    %rax,%rdi
    4344:	e8 f5 74 00 00       	callq  b83e <_ZN4Heap4pushEP4Grid>
    4349:	48 8d 85 f0 ff df ff 	lea    -0x200010(%rbp),%rax
    4350:	48 89 c7             	mov    %rax,%rdi
    4353:	e8 1c 76 00 00       	callq  b974 <_ZN4Heap3popEv>
    4358:	48 8d 85 30 ed df ff 	lea    -0x2012d0(%rbp),%rax
    435f:	48 8d 50 0c          	lea    0xc(%rax),%rdx
    4363:	48 8d 85 f0 ff df ff 	lea    -0x200010(%rbp),%rax
    436a:	48 89 d6             	mov    %rdx,%rsi
    436d:	48 89 c7             	mov    %rax,%rdi
    4370:	e8 c9 74 00 00       	callq  b83e <_ZN4Heap4pushEP4Grid>
    4375:	48 8d 85 f0 ff df ff 	lea    -0x200010(%rbp),%rax
    437c:	48 89 c7             	mov    %rax,%rdi
    437f:	e8 f0 75 00 00       	callq  b974 <_ZN4Heap3popEv>
    4384:	48 8d 85 30 ed df ff 	lea    -0x2012d0(%rbp),%rax
    438b:	48 8d 50 0c          	lea    0xc(%rax),%rdx
    438f:	48 8d 85 f0 ff df ff 	lea    -0x200010(%rbp),%rax
    4396:	48 89 d6             	mov    %rdx,%rsi
    4399:	48 89 c7             	mov    %rax,%rdi
    439c:	e8 9d 74 00 00       	callq  b83e <_ZN4Heap4pushEP4Grid>
    43a1:	48 8d 85 f0 ff df ff 	lea    -0x200010(%rbp),%rax
    43a8:	48 89 c7             	mov    %rax,%rdi
    43ab:	e8 c4 75 00 00       	callq  b974 <_ZN4Heap3popEv>
    43b0:	48 8d 85 30 ed df ff 	lea    -0x2012d0(%rbp),%rax
    43b7:	48 8d 50 0c          	lea    0xc(%rax),%rdx
    43bb:	48 8d 85 f0 ff df ff 	lea    -0x200010(%rbp),%rax
    43c2:	48 89 d6             	mov    %rdx,%rsi
    43c5:	48 89 c7             	mov    %rax,%rdi
    43c8:	e8 71 74 00 00       	callq  b83e <_ZN4Heap4pushEP4Grid>
    43cd:	48 8d 85 f0 ff df ff 	lea    -0x200010(%rbp),%rax
    43d4:	48 89 c7             	mov    %rax,%rdi
    43d7:	e8 98 75 00 00       	callq  b974 <_ZN4Heap3popEv>
    43dc:	48 8d 85 30 ed df ff 	lea    -0x2012d0(%rbp),%rax
    43e3:	48 8d 50 0c          	lea    0xc(%rax),%rdx
    43e7:	48 8d 85 f0 ff df ff 	lea    -0x200010(%rbp),%rax
    43ee:	48 89 d6             	mov    %rdx,%rsi
    43f1:	48 89 c7             	mov    %rax,%rdi
    43f4:	e8 45 74 00 00       	callq  b83e <_ZN4Heap4pushEP4Grid>
    43f9:	48 8d 85 f0 ff df ff 	lea    -0x200010(%rbp),%rax
    4400:	48 89 c7             	mov    %rax,%rdi
    4403:	e8 6c 75 00 00       	callq  b974 <_ZN4Heap3popEv>
    4408:	48 8d 85 30 ed df ff 	lea    -0x2012d0(%rbp),%rax
    440f:	48 8d 50 0c          	lea    0xc(%rax),%rdx
    4413:	48 8d 85 f0 ff df ff 	lea    -0x200010(%rbp),%rax
    441a:	48 89 d6             	mov    %rdx,%rsi
    441d:	48 89 c7             	mov    %rax,%rdi
    4420:	e8 19 74 00 00       	callq  b83e <_ZN4Heap4pushEP4Grid>
    4425:	48 8d 85 f0 ff df ff 	lea    -0x200010(%rbp),%rax
    442c:	48 89 c7             	mov    %rax,%rdi
    442f:	e8 40 75 00 00       	callq  b974 <_ZN4Heap3popEv>
    4434:	48 8d 85 30 ed df ff 	lea    -0x2012d0(%rbp),%rax
    443b:	48 8d 50 0c          	lea    0xc(%rax),%rdx
    443f:	48 8d 85 f0 ff df ff 	lea    -0x200010(%rbp),%rax
    4446:	48 89 d6             	mov    %rdx,%rsi
    4449:	48 89 c7             	mov    %rax,%rdi
    444c:	e8 ed 73 00 00       	callq  b83e <_ZN4Heap4pushEP4Grid>
    4451:	48 8d 85 f0 ff df ff 	lea    -0x200010(%rbp),%rax
    4458:	48 89 c7             	mov    %rax,%rdi
    445b:	e8 14 75 00 00       	callq  b974 <_ZN4Heap3popEv>
    4460:	48 8d 85 30 ed df ff 	lea    -0x2012d0(%rbp),%rax
    4467:	48 8d 50 0c          	lea    0xc(%rax),%rdx
    446b:	48 8d 85 f0 ff df ff 	lea    -0x200010(%rbp),%rax
    4472:	48 89 d6             	mov    %rdx,%rsi
    4475:	48 89 c7             	mov    %rax,%rdi
    4478:	e8 c1 73 00 00       	callq  b83e <_ZN4Heap4pushEP4Grid>
    447d:	48 8d 85 f0 ff df ff 	lea    -0x200010(%rbp),%rax
    4484:	48 89 c7             	mov    %rax,%rdi
    4487:	e8 e8 74 00 00       	callq  b974 <_ZN4Heap3popEv>
    448c:	48 8d 85 30 ed df ff 	lea    -0x2012d0(%rbp),%rax
    4493:	48 8d 50 0c          	lea    0xc(%rax),%rdx
    4497:	48 8d 85 f0 ff df ff 	lea    -0x200010(%rbp),%rax
    449e:	48 89 d6             	mov    %rdx,%rsi
    44a1:	48 89 c7             	mov    %rax,%rdi
    44a4:	e8 95 73 00 00       	callq  b83e <_ZN4Heap4pushEP4Grid>
    44a9:	48 8d 85 f0 ff df ff 	lea    -0x200010(%rbp),%rax
    44b0:	48 89 c7             	mov    %rax,%rdi
    44b3:	e8 bc 74 00 00       	callq  b974 <_ZN4Heap3popEv>
    44b8:	48 8d 85 30 ed df ff 	lea    -0x2012d0(%rbp),%rax
    44bf:	48 8d 50 0c          	lea    0xc(%rax),%rdx
    44c3:	48 8d 85 f0 ff df ff 	lea    -0x200010(%rbp),%rax
    44ca:	48 89 d6             	mov    %rdx,%rsi
    44cd:	48 89 c7             	mov    %rax,%rdi
    44d0:	e8 69 73 00 00       	callq  b83e <_ZN4Heap4pushEP4Grid>
    44d5:	48 8d 85 f0 ff df ff 	lea    -0x200010(%rbp),%rax
    44dc:	48 89 c7             	mov    %rax,%rdi
    44df:	e8 90 74 00 00       	callq  b974 <_ZN4Heap3popEv>
    44e4:	48 8d 85 30 ed df ff 	lea    -0x2012d0(%rbp),%rax
    44eb:	48 8d 50 0c          	lea    0xc(%rax),%rdx
    44ef:	48 8d 85 f0 ff df ff 	lea    -0x200010(%rbp),%rax
    44f6:	48 89 d6             	mov    %rdx,%rsi
    44f9:	48 89 c7             	mov    %rax,%rdi
    44fc:	e8 3d 73 00 00       	callq  b83e <_ZN4Heap4pushEP4Grid>
    4501:	48 8d 85 f0 ff df ff 	lea    -0x200010(%rbp),%rax
    4508:	48 89 c7             	mov    %rax,%rdi
    450b:	e8 64 74 00 00       	callq  b974 <_ZN4Heap3popEv>
    4510:	48 8d 85 30 ed df ff 	lea    -0x2012d0(%rbp),%rax
    4517:	48 8d 50 0c          	lea    0xc(%rax),%rdx
    451b:	48 8d 85 f0 ff df ff 	lea    -0x200010(%rbp),%rax
    4522:	48 89 d6             	mov    %rdx,%rsi
    4525:	48 89 c7             	mov    %rax,%rdi
    4528:	e8 11 73 00 00       	callq  b83e <_ZN4Heap4pushEP4Grid>
    452d:	48 8d 85 f0 ff df ff 	lea    -0x200010(%rbp),%rax
    4534:	48 89 c7             	mov    %rax,%rdi
    4537:	e8 38 74 00 00       	callq  b974 <_ZN4Heap3popEv>
    453c:	48 8d 85 30 ed df ff 	lea    -0x2012d0(%rbp),%rax
    4543:	48 8d 50 0c          	lea    0xc(%rax),%rdx
    4547:	48 8d 85 f0 ff df ff 	lea    -0x200010(%rbp),%rax
    454e:	48 89 d6             	mov    %rdx,%rsi
    4551:	48 89 c7             	mov    %rax,%rdi
    4554:	e8 e5 72 00 00       	callq  b83e <_ZN4Heap4pushEP4Grid>
    4559:	48 8d 85 f0 ff df ff 	lea    -0x200010(%rbp),%rax
    4560:	48 89 c7             	mov    %rax,%rdi
    4563:	e8 0c 74 00 00       	callq  b974 <_ZN4Heap3popEv>
    4568:	48 8d 85 30 ed df ff 	lea    -0x2012d0(%rbp),%rax
    456f:	48 8d 50 0c          	lea    0xc(%rax),%rdx
    4573:	48 8d 85 f0 ff df ff 	lea    -0x200010(%rbp),%rax
    457a:	48 89 d6             	mov    %rdx,%rsi
    457d:	48 89 c7             	mov    %rax,%rdi
    4580:	e8 b9 72 00 00       	callq  b83e <_ZN4Heap4pushEP4Grid>
    4585:	48 8d 85 f0 ff df ff 	lea    -0x200010(%rbp),%rax
    458c:	48 89 c7             	mov    %rax,%rdi
    458f:	e8 e0 73 00 00       	callq  b974 <_ZN4Heap3popEv>
    4594:	48 8d 85 30 ed df ff 	lea    -0x2012d0(%rbp),%rax
    459b:	48 8d 50 0c          	lea    0xc(%rax),%rdx
    459f:	48 8d 85 f0 ff df ff 	lea    -0x200010(%rbp),%rax
    45a6:	48 89 d6             	mov    %rdx,%rsi
    45a9:	48 89 c7             	mov    %rax,%rdi
    45ac:	e8 8d 72 00 00       	callq  b83e <_ZN4Heap4pushEP4Grid>
    45b1:	48 8d 85 f0 ff df ff 	lea    -0x200010(%rbp),%rax
    45b8:	48 89 c7             	mov    %rax,%rdi
    45bb:	e8 b4 73 00 00       	callq  b974 <_ZN4Heap3popEv>
    45c0:	48 8d 85 30 ed df ff 	lea    -0x2012d0(%rbp),%rax
    45c7:	48 8d 50 0c          	lea    0xc(%rax),%rdx
    45cb:	48 8d 85 f0 ff df ff 	lea    -0x200010(%rbp),%rax
    45d2:	48 89 d6             	mov    %rdx,%rsi
    45d5:	48 89 c7             	mov    %rax,%rdi
    45d8:	e8 61 72 00 00       	callq  b83e <_ZN4Heap4pushEP4Grid>
    45dd:	48 8d 85 f0 ff df ff 	lea    -0x200010(%rbp),%rax
    45e4:	48 89 c7             	mov    %rax,%rdi
    45e7:	e8 88 73 00 00       	callq  b974 <_ZN4Heap3popEv>
    45ec:	48 8d 85 30 ed df ff 	lea    -0x2012d0(%rbp),%rax
    45f3:	48 8d 50 0c          	lea    0xc(%rax),%rdx
    45f7:	48 8d 85 f0 ff df ff 	lea    -0x200010(%rbp),%rax
    45fe:	48 89 d6             	mov    %rdx,%rsi
    4601:	48 89 c7             	mov    %rax,%rdi
    4604:	e8 35 72 00 00       	callq  b83e <_ZN4Heap4pushEP4Grid>
    4609:	48 8d 85 f0 ff df ff 	lea    -0x200010(%rbp),%rax
    4610:	48 89 c7             	mov    %rax,%rdi
    4613:	e8 5c 73 00 00       	callq  b974 <_ZN4Heap3popEv>
    4618:	48 8d 85 30 ed df ff 	lea    -0x2012d0(%rbp),%rax
    461f:	48 8d 50 0c          	lea    0xc(%rax),%rdx
    4623:	48 8d 85 f0 ff df ff 	lea    -0x200010(%rbp),%rax
    462a:	48 89 d6             	mov    %rdx,%rsi
    462d:	48 89 c7             	mov    %rax,%rdi
    4630:	e8 09 72 00 00       	callq  b83e <_ZN4Heap4pushEP4Grid>
    4635:	48 8d 85 f0 ff df ff 	lea    -0x200010(%rbp),%rax
    463c:	48 89 c7             	mov    %rax,%rdi
    463f:	e8 30 73 00 00       	callq  b974 <_ZN4Heap3popEv>
    4644:	48 8d 85 30 ed df ff 	lea    -0x2012d0(%rbp),%rax
    464b:	48 8d 50 0c          	lea    0xc(%rax),%rdx
    464f:	48 8d 85 f0 ff df ff 	lea    -0x200010(%rbp),%rax
    4656:	48 89 d6             	mov    %rdx,%rsi
    4659:	48 89 c7             	mov    %rax,%rdi
    465c:	e8 dd 71 00 00       	callq  b83e <_ZN4Heap4pushEP4Grid>
    4661:	48 8d 85 f0 ff df ff 	lea    -0x200010(%rbp),%rax
    4668:	48 89 c7             	mov    %rax,%rdi
    466b:	e8 04 73 00 00       	callq  b974 <_ZN4Heap3popEv>
    4670:	48 8d 85 30 ed df ff 	lea    -0x2012d0(%rbp),%rax
    4677:	48 8d 50 0c          	lea    0xc(%rax),%rdx
    467b:	48 8d 85 f0 ff df ff 	lea    -0x200010(%rbp),%rax
    4682:	48 89 d6             	mov    %rdx,%rsi
    4685:	48 89 c7             	mov    %rax,%rdi
    4688:	e8 b1 71 00 00       	callq  b83e <_ZN4Heap4pushEP4Grid>
    468d:	48 8d 85 f0 ff df ff 	lea    -0x200010(%rbp),%rax
    4694:	48 89 c7             	mov    %rax,%rdi
    4697:	e8 d8 72 00 00       	callq  b974 <_ZN4Heap3popEv>
    469c:	48 8d 85 30 ed df ff 	lea    -0x2012d0(%rbp),%rax
    46a3:	48 8d 50 0c          	lea    0xc(%rax),%rdx
    46a7:	48 8d 85 f0 ff df ff 	lea    -0x200010(%rbp),%rax
    46ae:	48 89 d6             	mov    %rdx,%rsi
    46b1:	48 89 c7             	mov    %rax,%rdi
    46b4:	e8 85 71 00 00       	callq  b83e <_ZN4Heap4pushEP4Grid>
    46b9:	48 8d 85 f0 ff df ff 	lea    -0x200010(%rbp),%rax
    46c0:	48 89 c7             	mov    %rax,%rdi
    46c3:	e8 ac 72 00 00       	callq  b974 <_ZN4Heap3popEv>
    46c8:	48 8d 85 30 ed df ff 	lea    -0x2012d0(%rbp),%rax
    46cf:	48 8d 50 0c          	lea    0xc(%rax),%rdx
    46d3:	48 8d 85 f0 ff df ff 	lea    -0x200010(%rbp),%rax
    46da:	48 89 d6             	mov    %rdx,%rsi
    46dd:	48 89 c7             	mov    %rax,%rdi
    46e0:	e8 59 71 00 00       	callq  b83e <_ZN4Heap4pushEP4Grid>
    46e5:	48 8d 85 f0 ff df ff 	lea    -0x200010(%rbp),%rax
    46ec:	48 89 c7             	mov    %rax,%rdi
    46ef:	e8 80 72 00 00       	callq  b974 <_ZN4Heap3popEv>
    46f4:	48 8d 85 30 ed df ff 	lea    -0x2012d0(%rbp),%rax
    46fb:	48 8d 50 0c          	lea    0xc(%rax),%rdx
    46ff:	48 8d 85 f0 ff df ff 	lea    -0x200010(%rbp),%rax
    4706:	48 89 d6             	mov    %rdx,%rsi
    4709:	48 89 c7             	mov    %rax,%rdi
    470c:	e8 2d 71 00 00       	callq  b83e <_ZN4Heap4pushEP4Grid>
    4711:	48 8d 85 f0 ff df ff 	lea    -0x200010(%rbp),%rax
    4718:	48 89 c7             	mov    %rax,%rdi
    471b:	e8 54 72 00 00       	callq  b974 <_ZN4Heap3popEv>
    4720:	48 8d 85 30 ed df ff 	lea    -0x2012d0(%rbp),%rax
    4727:	48 8d 50 0c          	lea    0xc(%rax),%rdx
    472b:	48 8d 85 f0 ff df ff 	lea    -0x200010(%rbp),%rax
    4732:	48 89 d6             	mov    %rdx,%rsi
    4735:	48 89 c7             	mov    %rax,%rdi
    4738:	e8 01 71 00 00       	callq  b83e <_ZN4Heap4pushEP4Grid>
    473d:	48 8d 85 f0 ff df ff 	lea    -0x200010(%rbp),%rax
    4744:	48 89 c7             	mov    %rax,%rdi
    4747:	e8 28 72 00 00       	callq  b974 <_ZN4Heap3popEv>
    474c:	48 8d 85 30 ed df ff 	lea    -0x2012d0(%rbp),%rax
    4753:	48 8d 50 0c          	lea    0xc(%rax),%rdx
    4757:	48 8d 85 f0 ff df ff 	lea    -0x200010(%rbp),%rax
    475e:	48 89 d6             	mov    %rdx,%rsi
    4761:	48 89 c7             	mov    %rax,%rdi
    4764:	e8 d5 70 00 00       	callq  b83e <_ZN4Heap4pushEP4Grid>
    4769:	48 8d 85 f0 ff df ff 	lea    -0x200010(%rbp),%rax
    4770:	48 89 c7             	mov    %rax,%rdi
    4773:	e8 fc 71 00 00       	callq  b974 <_ZN4Heap3popEv>
    4778:	48 8d 85 30 ed df ff 	lea    -0x2012d0(%rbp),%rax
    477f:	48 8d 50 0c          	lea    0xc(%rax),%rdx
    4783:	48 8d 85 f0 ff df ff 	lea    -0x200010(%rbp),%rax
    478a:	48 89 d6             	mov    %rdx,%rsi
    478d:	48 89 c7             	mov    %rax,%rdi
    4790:	e8 a9 70 00 00       	callq  b83e <_ZN4Heap4pushEP4Grid>
    4795:	48 8d 85 f0 ff df ff 	lea    -0x200010(%rbp),%rax
    479c:	48 89 c7             	mov    %rax,%rdi
    479f:	e8 d0 71 00 00       	callq  b974 <_ZN4Heap3popEv>
    47a4:	48 8d 85 30 ed df ff 	lea    -0x2012d0(%rbp),%rax
    47ab:	48 8d 50 0c          	lea    0xc(%rax),%rdx
    47af:	48 8d 85 f0 ff df ff 	lea    -0x200010(%rbp),%rax
    47b6:	48 89 d6             	mov    %rdx,%rsi
    47b9:	48 89 c7             	mov    %rax,%rdi
    47bc:	e8 7d 70 00 00       	callq  b83e <_ZN4Heap4pushEP4Grid>
    47c1:	48 8d 85 f0 ff df ff 	lea    -0x200010(%rbp),%rax
    47c8:	48 89 c7             	mov    %rax,%rdi
    47cb:	e8 a4 71 00 00       	callq  b974 <_ZN4Heap3popEv>
    47d0:	48 8d 85 30 ed df ff 	lea    -0x2012d0(%rbp),%rax
    47d7:	48 8d 50 0c          	lea    0xc(%rax),%rdx
    47db:	48 8d 85 f0 ff df ff 	lea    -0x200010(%rbp),%rax
    47e2:	48 89 d6             	mov    %rdx,%rsi
    47e5:	48 89 c7             	mov    %rax,%rdi
    47e8:	e8 51 70 00 00       	callq  b83e <_ZN4Heap4pushEP4Grid>
    47ed:	48 8d 85 f0 ff df ff 	lea    -0x200010(%rbp),%rax
    47f4:	48 89 c7             	mov    %rax,%rdi
    47f7:	e8 78 71 00 00       	callq  b974 <_ZN4Heap3popEv>
    47fc:	48 8d 85 30 ed df ff 	lea    -0x2012d0(%rbp),%rax
    4803:	48 8d 50 0c          	lea    0xc(%rax),%rdx
    4807:	48 8d 85 f0 ff df ff 	lea    -0x200010(%rbp),%rax
    480e:	48 89 d6             	mov    %rdx,%rsi
    4811:	48 89 c7             	mov    %rax,%rdi
    4814:	e8 25 70 00 00       	callq  b83e <_ZN4Heap4pushEP4Grid>
    4819:	48 8d 85 f0 ff df ff 	lea    -0x200010(%rbp),%rax
    4820:	48 89 c7             	mov    %rax,%rdi
    4823:	e8 4c 71 00 00       	callq  b974 <_ZN4Heap3popEv>
    4828:	48 8d 85 30 ed df ff 	lea    -0x2012d0(%rbp),%rax
    482f:	48 8d 50 0c          	lea    0xc(%rax),%rdx
    4833:	48 8d 85 f0 ff df ff 	lea    -0x200010(%rbp),%rax
    483a:	48 89 d6             	mov    %rdx,%rsi
    483d:	48 89 c7             	mov    %rax,%rdi
    4840:	e8 f9 6f 00 00       	callq  b83e <_ZN4Heap4pushEP4Grid>
    4845:	48 8d 85 f0 ff df ff 	lea    -0x200010(%rbp),%rax
    484c:	48 89 c7             	mov    %rax,%rdi
    484f:	e8 20 71 00 00       	callq  b974 <_ZN4Heap3popEv>
    4854:	48 8d 85 30 ed df ff 	lea    -0x2012d0(%rbp),%rax
    485b:	48 8d 50 0c          	lea    0xc(%rax),%rdx
    485f:	48 8d 85 f0 ff df ff 	lea    -0x200010(%rbp),%rax
    4866:	48 89 d6             	mov    %rdx,%rsi
    4869:	48 89 c7             	mov    %rax,%rdi
    486c:	e8 cd 6f 00 00       	callq  b83e <_ZN4Heap4pushEP4Grid>
    4871:	48 8d 85 f0 ff df ff 	lea    -0x200010(%rbp),%rax
    4878:	48 89 c7             	mov    %rax,%rdi
    487b:	e8 f4 70 00 00       	callq  b974 <_ZN4Heap3popEv>
    4880:	48 8d 85 30 ed df ff 	lea    -0x2012d0(%rbp),%rax
    4887:	48 8d 50 0c          	lea    0xc(%rax),%rdx
    488b:	48 8d 85 f0 ff df ff 	lea    -0x200010(%rbp),%rax
    4892:	48 89 d6             	mov    %rdx,%rsi
    4895:	48 89 c7             	mov    %rax,%rdi
    4898:	e8 a1 6f 00 00       	callq  b83e <_ZN4Heap4pushEP4Grid>
    489d:	48 8d 85 f0 ff df ff 	lea    -0x200010(%rbp),%rax
    48a4:	48 89 c7             	mov    %rax,%rdi
    48a7:	e8 c8 70 00 00       	callq  b974 <_ZN4Heap3popEv>
    48ac:	48 8d 85 30 ed df ff 	lea    -0x2012d0(%rbp),%rax
    48b3:	48 8d 50 0c          	lea    0xc(%rax),%rdx
    48b7:	48 8d 85 f0 ff df ff 	lea    -0x200010(%rbp),%rax
    48be:	48 89 d6             	mov    %rdx,%rsi
    48c1:	48 89 c7             	mov    %rax,%rdi
    48c4:	e8 75 6f 00 00       	callq  b83e <_ZN4Heap4pushEP4Grid>
    48c9:	48 8d 85 f0 ff df ff 	lea    -0x200010(%rbp),%rax
    48d0:	48 89 c7             	mov    %rax,%rdi
    48d3:	e8 9c 70 00 00       	callq  b974 <_ZN4Heap3popEv>
    48d8:	48 8d 85 30 ed df ff 	lea    -0x2012d0(%rbp),%rax
    48df:	48 8d 50 0c          	lea    0xc(%rax),%rdx
    48e3:	48 8d 85 f0 ff df ff 	lea    -0x200010(%rbp),%rax
    48ea:	48 89 d6             	mov    %rdx,%rsi
    48ed:	48 89 c7             	mov    %rax,%rdi
    48f0:	e8 49 6f 00 00       	callq  b83e <_ZN4Heap4pushEP4Grid>
    48f5:	48 8d 85 f0 ff df ff 	lea    -0x200010(%rbp),%rax
    48fc:	48 89 c7             	mov    %rax,%rdi
    48ff:	e8 70 70 00 00       	callq  b974 <_ZN4Heap3popEv>
    4904:	48 8d 85 30 ed df ff 	lea    -0x2012d0(%rbp),%rax
    490b:	48 8d 50 0c          	lea    0xc(%rax),%rdx
    490f:	48 8d 85 f0 ff df ff 	lea    -0x200010(%rbp),%rax
    4916:	48 89 d6             	mov    %rdx,%rsi
    4919:	48 89 c7             	mov    %rax,%rdi
    491c:	e8 1d 6f 00 00       	callq  b83e <_ZN4Heap4pushEP4Grid>
    4921:	48 8d 85 f0 ff df ff 	lea    -0x200010(%rbp),%rax
    4928:	48 89 c7             	mov    %rax,%rdi
    492b:	e8 44 70 00 00       	callq  b974 <_ZN4Heap3popEv>
    4930:	48 8d 85 30 ed df ff 	lea    -0x2012d0(%rbp),%rax
    4937:	48 8d 50 0c          	lea    0xc(%rax),%rdx
    493b:	48 8d 85 f0 ff df ff 	lea    -0x200010(%rbp),%rax
    4942:	48 89 d6             	mov    %rdx,%rsi
    4945:	48 89 c7             	mov    %rax,%rdi
    4948:	e8 f1 6e 00 00       	callq  b83e <_ZN4Heap4pushEP4Grid>
    494d:	48 8d 85 f0 ff df ff 	lea    -0x200010(%rbp),%rax
    4954:	48 89 c7             	mov    %rax,%rdi
    4957:	e8 18 70 00 00       	callq  b974 <_ZN4Heap3popEv>
    495c:	48 8d 85 30 ed df ff 	lea    -0x2012d0(%rbp),%rax
    4963:	48 8d 50 0c          	lea    0xc(%rax),%rdx
    4967:	48 8d 85 f0 ff df ff 	lea    -0x200010(%rbp),%rax
    496e:	48 89 d6             	mov    %rdx,%rsi
    4971:	48 89 c7             	mov    %rax,%rdi
    4974:	e8 c5 6e 00 00       	callq  b83e <_ZN4Heap4pushEP4Grid>
    4979:	48 8d 85 f0 ff df ff 	lea    -0x200010(%rbp),%rax
    4980:	48 89 c7             	mov    %rax,%rdi
    4983:	e8 ec 6f 00 00       	callq  b974 <_ZN4Heap3popEv>
    4988:	48 8d 85 30 ed df ff 	lea    -0x2012d0(%rbp),%rax
    498f:	48 8d 50 0c          	lea    0xc(%rax),%rdx
    4993:	48 8d 85 f0 ff df ff 	lea    -0x200010(%rbp),%rax
    499a:	48 89 d6             	mov    %rdx,%rsi
    499d:	48 89 c7             	mov    %rax,%rdi
    49a0:	e8 99 6e 00 00       	callq  b83e <_ZN4Heap4pushEP4Grid>
    49a5:	48 8d 85 f0 ff df ff 	lea    -0x200010(%rbp),%rax
    49ac:	48 89 c7             	mov    %rax,%rdi
    49af:	e8 c0 6f 00 00       	callq  b974 <_ZN4Heap3popEv>
    49b4:	48 8d 85 30 ed df ff 	lea    -0x2012d0(%rbp),%rax
    49bb:	48 8d 50 0c          	lea    0xc(%rax),%rdx
    49bf:	48 8d 85 f0 ff df ff 	lea    -0x200010(%rbp),%rax
    49c6:	48 89 d6             	mov    %rdx,%rsi
    49c9:	48 89 c7             	mov    %rax,%rdi
    49cc:	e8 6d 6e 00 00       	callq  b83e <_ZN4Heap4pushEP4Grid>
    49d1:	48 8d 85 f0 ff df ff 	lea    -0x200010(%rbp),%rax
    49d8:	48 89 c7             	mov    %rax,%rdi
    49db:	e8 94 6f 00 00       	callq  b974 <_ZN4Heap3popEv>
    49e0:	48 8d 85 30 ed df ff 	lea    -0x2012d0(%rbp),%rax
    49e7:	48 8d 50 0c          	lea    0xc(%rax),%rdx
    49eb:	48 8d 85 f0 ff df ff 	lea    -0x200010(%rbp),%rax
    49f2:	48 89 d6             	mov    %rdx,%rsi
    49f5:	48 89 c7             	mov    %rax,%rdi
    49f8:	e8 41 6e 00 00       	callq  b83e <_ZN4Heap4pushEP4Grid>
    49fd:	48 8d 85 f0 ff df ff 	lea    -0x200010(%rbp),%rax
    4a04:	48 89 c7             	mov    %rax,%rdi
    4a07:	e8 68 6f 00 00       	callq  b974 <_ZN4Heap3popEv>
    4a0c:	48 8d 85 30 ed df ff 	lea    -0x2012d0(%rbp),%rax
    4a13:	48 8d 50 0c          	lea    0xc(%rax),%rdx
    4a17:	48 8d 85 f0 ff df ff 	lea    -0x200010(%rbp),%rax
    4a1e:	48 89 d6             	mov    %rdx,%rsi
    4a21:	48 89 c7             	mov    %rax,%rdi
    4a24:	e8 15 6e 00 00       	callq  b83e <_ZN4Heap4pushEP4Grid>
    4a29:	48 8d 85 f0 ff df ff 	lea    -0x200010(%rbp),%rax
    4a30:	48 89 c7             	mov    %rax,%rdi
    4a33:	e8 3c 6f 00 00       	callq  b974 <_ZN4Heap3popEv>
    4a38:	48 8d 85 30 ed df ff 	lea    -0x2012d0(%rbp),%rax
    4a3f:	48 8d 50 0c          	lea    0xc(%rax),%rdx
    4a43:	48 8d 85 f0 ff df ff 	lea    -0x200010(%rbp),%rax
    4a4a:	48 89 d6             	mov    %rdx,%rsi
    4a4d:	48 89 c7             	mov    %rax,%rdi
    4a50:	e8 e9 6d 00 00       	callq  b83e <_ZN4Heap4pushEP4Grid>
    4a55:	48 8d 85 f0 ff df ff 	lea    -0x200010(%rbp),%rax
    4a5c:	48 89 c7             	mov    %rax,%rdi
    4a5f:	e8 10 6f 00 00       	callq  b974 <_ZN4Heap3popEv>
    4a64:	48 8d 85 30 ed df ff 	lea    -0x2012d0(%rbp),%rax
    4a6b:	48 8d 50 0c          	lea    0xc(%rax),%rdx
    4a6f:	48 8d 85 f0 ff df ff 	lea    -0x200010(%rbp),%rax
    4a76:	48 89 d6             	mov    %rdx,%rsi
    4a79:	48 89 c7             	mov    %rax,%rdi
    4a7c:	e8 bd 6d 00 00       	callq  b83e <_ZN4Heap4pushEP4Grid>
    4a81:	48 8d 85 f0 ff df ff 	lea    -0x200010(%rbp),%rax
    4a88:	48 89 c7             	mov    %rax,%rdi
    4a8b:	e8 e4 6e 00 00       	callq  b974 <_ZN4Heap3popEv>
    4a90:	48 8d 85 30 ed df ff 	lea    -0x2012d0(%rbp),%rax
    4a97:	48 8d 50 0c          	lea    0xc(%rax),%rdx
    4a9b:	48 8d 85 f0 ff df ff 	lea    -0x200010(%rbp),%rax
    4aa2:	48 89 d6             	mov    %rdx,%rsi
    4aa5:	48 89 c7             	mov    %rax,%rdi
    4aa8:	e8 91 6d 00 00       	callq  b83e <_ZN4Heap4pushEP4Grid>
    4aad:	48 8d 85 f0 ff df ff 	lea    -0x200010(%rbp),%rax
    4ab4:	48 89 c7             	mov    %rax,%rdi
    4ab7:	e8 b8 6e 00 00       	callq  b974 <_ZN4Heap3popEv>
    4abc:	48 8d 85 30 ed df ff 	lea    -0x2012d0(%rbp),%rax
    4ac3:	48 8d 50 0c          	lea    0xc(%rax),%rdx
    4ac7:	48 8d 85 f0 ff df ff 	lea    -0x200010(%rbp),%rax
    4ace:	48 89 d6             	mov    %rdx,%rsi
    4ad1:	48 89 c7             	mov    %rax,%rdi
    4ad4:	e8 65 6d 00 00       	callq  b83e <_ZN4Heap4pushEP4Grid>
    4ad9:	48 8d 85 f0 ff df ff 	lea    -0x200010(%rbp),%rax
    4ae0:	48 89 c7             	mov    %rax,%rdi
    4ae3:	e8 8c 6e 00 00       	callq  b974 <_ZN4Heap3popEv>
    4ae8:	48 8d 85 30 ed df ff 	lea    -0x2012d0(%rbp),%rax
    4aef:	48 8d 50 0c          	lea    0xc(%rax),%rdx
    4af3:	48 8d 85 f0 ff df ff 	lea    -0x200010(%rbp),%rax
    4afa:	48 89 d6             	mov    %rdx,%rsi
    4afd:	48 89 c7             	mov    %rax,%rdi
    4b00:	e8 39 6d 00 00       	callq  b83e <_ZN4Heap4pushEP4Grid>
    4b05:	48 8d 85 f0 ff df ff 	lea    -0x200010(%rbp),%rax
    4b0c:	48 89 c7             	mov    %rax,%rdi
    4b0f:	e8 60 6e 00 00       	callq  b974 <_ZN4Heap3popEv>
    4b14:	48 8d 85 30 ed df ff 	lea    -0x2012d0(%rbp),%rax
    4b1b:	48 8d 50 0c          	lea    0xc(%rax),%rdx
    4b1f:	48 8d 85 f0 ff df ff 	lea    -0x200010(%rbp),%rax
    4b26:	48 89 d6             	mov    %rdx,%rsi
    4b29:	48 89 c7             	mov    %rax,%rdi
    4b2c:	e8 0d 6d 00 00       	callq  b83e <_ZN4Heap4pushEP4Grid>
    4b31:	48 8d 85 f0 ff df ff 	lea    -0x200010(%rbp),%rax
    4b38:	48 89 c7             	mov    %rax,%rdi
    4b3b:	e8 34 6e 00 00       	callq  b974 <_ZN4Heap3popEv>
    4b40:	48 8d 85 30 ed df ff 	lea    -0x2012d0(%rbp),%rax
    4b47:	48 8d 50 0c          	lea    0xc(%rax),%rdx
    4b4b:	48 8d 85 f0 ff df ff 	lea    -0x200010(%rbp),%rax
    4b52:	48 89 d6             	mov    %rdx,%rsi
    4b55:	48 89 c7             	mov    %rax,%rdi
    4b58:	e8 e1 6c 00 00       	callq  b83e <_ZN4Heap4pushEP4Grid>
    4b5d:	48 8d 85 f0 ff df ff 	lea    -0x200010(%rbp),%rax
    4b64:	48 89 c7             	mov    %rax,%rdi
    4b67:	e8 08 6e 00 00       	callq  b974 <_ZN4Heap3popEv>
    4b6c:	48 8d 85 30 ed df ff 	lea    -0x2012d0(%rbp),%rax
    4b73:	48 8d 50 0c          	lea    0xc(%rax),%rdx
    4b77:	48 8d 85 f0 ff df ff 	lea    -0x200010(%rbp),%rax
    4b7e:	48 89 d6             	mov    %rdx,%rsi
    4b81:	48 89 c7             	mov    %rax,%rdi
    4b84:	e8 b5 6c 00 00       	callq  b83e <_ZN4Heap4pushEP4Grid>
    4b89:	48 8d 85 f0 ff df ff 	lea    -0x200010(%rbp),%rax
    4b90:	48 89 c7             	mov    %rax,%rdi
    4b93:	e8 dc 6d 00 00       	callq  b974 <_ZN4Heap3popEv>
    4b98:	48 8d 85 30 ed df ff 	lea    -0x2012d0(%rbp),%rax
    4b9f:	48 8d 50 0c          	lea    0xc(%rax),%rdx
    4ba3:	48 8d 85 f0 ff df ff 	lea    -0x200010(%rbp),%rax
    4baa:	48 89 d6             	mov    %rdx,%rsi
    4bad:	48 89 c7             	mov    %rax,%rdi
    4bb0:	e8 89 6c 00 00       	callq  b83e <_ZN4Heap4pushEP4Grid>
    4bb5:	48 8d 85 f0 ff df ff 	lea    -0x200010(%rbp),%rax
    4bbc:	48 89 c7             	mov    %rax,%rdi
    4bbf:	e8 b0 6d 00 00       	callq  b974 <_ZN4Heap3popEv>
    4bc4:	48 8d 85 30 ed df ff 	lea    -0x2012d0(%rbp),%rax
    4bcb:	48 8d 50 0c          	lea    0xc(%rax),%rdx
    4bcf:	48 8d 85 f0 ff df ff 	lea    -0x200010(%rbp),%rax
    4bd6:	48 89 d6             	mov    %rdx,%rsi
    4bd9:	48 89 c7             	mov    %rax,%rdi
    4bdc:	e8 5d 6c 00 00       	callq  b83e <_ZN4Heap4pushEP4Grid>
    4be1:	48 8d 85 f0 ff df ff 	lea    -0x200010(%rbp),%rax
    4be8:	48 89 c7             	mov    %rax,%rdi
    4beb:	e8 84 6d 00 00       	callq  b974 <_ZN4Heap3popEv>
    4bf0:	48 8d 85 30 ed df ff 	lea    -0x2012d0(%rbp),%rax
    4bf7:	48 8d 50 0c          	lea    0xc(%rax),%rdx
    4bfb:	48 8d 85 f0 ff df ff 	lea    -0x200010(%rbp),%rax
    4c02:	48 89 d6             	mov    %rdx,%rsi
    4c05:	48 89 c7             	mov    %rax,%rdi
    4c08:	e8 31 6c 00 00       	callq  b83e <_ZN4Heap4pushEP4Grid>
    4c0d:	48 8d 85 f0 ff df ff 	lea    -0x200010(%rbp),%rax
    4c14:	48 89 c7             	mov    %rax,%rdi
    4c17:	e8 58 6d 00 00       	callq  b974 <_ZN4Heap3popEv>
    4c1c:	48 8d 85 30 ed df ff 	lea    -0x2012d0(%rbp),%rax
    4c23:	48 8d 50 0c          	lea    0xc(%rax),%rdx
    4c27:	48 8d 85 f0 ff df ff 	lea    -0x200010(%rbp),%rax
    4c2e:	48 89 d6             	mov    %rdx,%rsi
    4c31:	48 89 c7             	mov    %rax,%rdi
    4c34:	e8 05 6c 00 00       	callq  b83e <_ZN4Heap4pushEP4Grid>
    4c39:	48 8d 85 f0 ff df ff 	lea    -0x200010(%rbp),%rax
    4c40:	48 89 c7             	mov    %rax,%rdi
    4c43:	e8 2c 6d 00 00       	callq  b974 <_ZN4Heap3popEv>
    4c48:	48 8d 85 30 ed df ff 	lea    -0x2012d0(%rbp),%rax
    4c4f:	48 8d 50 0c          	lea    0xc(%rax),%rdx
    4c53:	48 8d 85 f0 ff df ff 	lea    -0x200010(%rbp),%rax
    4c5a:	48 89 d6             	mov    %rdx,%rsi
    4c5d:	48 89 c7             	mov    %rax,%rdi
    4c60:	e8 d9 6b 00 00       	callq  b83e <_ZN4Heap4pushEP4Grid>
    4c65:	48 8d 85 f0 ff df ff 	lea    -0x200010(%rbp),%rax
    4c6c:	48 89 c7             	mov    %rax,%rdi
    4c6f:	e8 00 6d 00 00       	callq  b974 <_ZN4Heap3popEv>
    4c74:	48 8d 85 30 ed df ff 	lea    -0x2012d0(%rbp),%rax
    4c7b:	48 8d 50 0c          	lea    0xc(%rax),%rdx
    4c7f:	48 8d 85 f0 ff df ff 	lea    -0x200010(%rbp),%rax
    4c86:	48 89 d6             	mov    %rdx,%rsi
    4c89:	48 89 c7             	mov    %rax,%rdi
    4c8c:	e8 ad 6b 00 00       	callq  b83e <_ZN4Heap4pushEP4Grid>
    4c91:	48 8d 85 f0 ff df ff 	lea    -0x200010(%rbp),%rax
    4c98:	48 89 c7             	mov    %rax,%rdi
    4c9b:	e8 d4 6c 00 00       	callq  b974 <_ZN4Heap3popEv>
    4ca0:	48 8d 85 30 ed df ff 	lea    -0x2012d0(%rbp),%rax
    4ca7:	48 8d 50 0c          	lea    0xc(%rax),%rdx
    4cab:	48 8d 85 f0 ff df ff 	lea    -0x200010(%rbp),%rax
    4cb2:	48 89 d6             	mov    %rdx,%rsi
    4cb5:	48 89 c7             	mov    %rax,%rdi
    4cb8:	e8 81 6b 00 00       	callq  b83e <_ZN4Heap4pushEP4Grid>
    4cbd:	48 8d 85 f0 ff df ff 	lea    -0x200010(%rbp),%rax
    4cc4:	48 89 c7             	mov    %rax,%rdi
    4cc7:	e8 a8 6c 00 00       	callq  b974 <_ZN4Heap3popEv>
    4ccc:	48 8d 85 30 ed df ff 	lea    -0x2012d0(%rbp),%rax
    4cd3:	48 8d 50 0c          	lea    0xc(%rax),%rdx
    4cd7:	48 8d 85 f0 ff df ff 	lea    -0x200010(%rbp),%rax
    4cde:	48 89 d6             	mov    %rdx,%rsi
    4ce1:	48 89 c7             	mov    %rax,%rdi
    4ce4:	e8 55 6b 00 00       	callq  b83e <_ZN4Heap4pushEP4Grid>
    4ce9:	48 8d 85 f0 ff df ff 	lea    -0x200010(%rbp),%rax
    4cf0:	48 89 c7             	mov    %rax,%rdi
    4cf3:	e8 7c 6c 00 00       	callq  b974 <_ZN4Heap3popEv>
    4cf8:	48 8d 85 30 ed df ff 	lea    -0x2012d0(%rbp),%rax
    4cff:	48 8d 50 0c          	lea    0xc(%rax),%rdx
    4d03:	48 8d 85 f0 ff df ff 	lea    -0x200010(%rbp),%rax
    4d0a:	48 89 d6             	mov    %rdx,%rsi
    4d0d:	48 89 c7             	mov    %rax,%rdi
    4d10:	e8 29 6b 00 00       	callq  b83e <_ZN4Heap4pushEP4Grid>
    4d15:	48 8d 85 f0 ff df ff 	lea    -0x200010(%rbp),%rax
    4d1c:	48 89 c7             	mov    %rax,%rdi
    4d1f:	e8 50 6c 00 00       	callq  b974 <_ZN4Heap3popEv>
    4d24:	48 8d 85 30 ed df ff 	lea    -0x2012d0(%rbp),%rax
    4d2b:	48 8d 50 0c          	lea    0xc(%rax),%rdx
    4d2f:	48 8d 85 f0 ff df ff 	lea    -0x200010(%rbp),%rax
    4d36:	48 89 d6             	mov    %rdx,%rsi
    4d39:	48 89 c7             	mov    %rax,%rdi
    4d3c:	e8 fd 6a 00 00       	callq  b83e <_ZN4Heap4pushEP4Grid>
    4d41:	48 8d 85 f0 ff df ff 	lea    -0x200010(%rbp),%rax
    4d48:	48 89 c7             	mov    %rax,%rdi
    4d4b:	e8 24 6c 00 00       	callq  b974 <_ZN4Heap3popEv>
    4d50:	48 8d 85 30 ed df ff 	lea    -0x2012d0(%rbp),%rax
    4d57:	48 8d 50 0c          	lea    0xc(%rax),%rdx
    4d5b:	48 8d 85 f0 ff df ff 	lea    -0x200010(%rbp),%rax
    4d62:	48 89 d6             	mov    %rdx,%rsi
    4d65:	48 89 c7             	mov    %rax,%rdi
    4d68:	e8 d1 6a 00 00       	callq  b83e <_ZN4Heap4pushEP4Grid>
    4d6d:	48 8d 85 f0 ff df ff 	lea    -0x200010(%rbp),%rax
    4d74:	48 89 c7             	mov    %rax,%rdi
    4d77:	e8 f8 6b 00 00       	callq  b974 <_ZN4Heap3popEv>
    4d7c:	48 8d 85 30 ed df ff 	lea    -0x2012d0(%rbp),%rax
    4d83:	48 8d 50 0c          	lea    0xc(%rax),%rdx
    4d87:	48 8d 85 f0 ff df ff 	lea    -0x200010(%rbp),%rax
    4d8e:	48 89 d6             	mov    %rdx,%rsi
    4d91:	48 89 c7             	mov    %rax,%rdi
    4d94:	e8 a5 6a 00 00       	callq  b83e <_ZN4Heap4pushEP4Grid>
    4d99:	48 8d 85 f0 ff df ff 	lea    -0x200010(%rbp),%rax
    4da0:	48 89 c7             	mov    %rax,%rdi
    4da3:	e8 cc 6b 00 00       	callq  b974 <_ZN4Heap3popEv>
    4da8:	48 8d 85 30 ed df ff 	lea    -0x2012d0(%rbp),%rax
    4daf:	48 8d 50 0c          	lea    0xc(%rax),%rdx
    4db3:	48 8d 85 f0 ff df ff 	lea    -0x200010(%rbp),%rax
    4dba:	48 89 d6             	mov    %rdx,%rsi
    4dbd:	48 89 c7             	mov    %rax,%rdi
    4dc0:	e8 79 6a 00 00       	callq  b83e <_ZN4Heap4pushEP4Grid>
    4dc5:	48 8d 85 f0 ff df ff 	lea    -0x200010(%rbp),%rax
    4dcc:	48 89 c7             	mov    %rax,%rdi
    4dcf:	e8 a0 6b 00 00       	callq  b974 <_ZN4Heap3popEv>
    4dd4:	48 8d 85 30 ed df ff 	lea    -0x2012d0(%rbp),%rax
    4ddb:	48 8d 50 0c          	lea    0xc(%rax),%rdx
    4ddf:	48 8d 85 f0 ff df ff 	lea    -0x200010(%rbp),%rax
    4de6:	48 89 d6             	mov    %rdx,%rsi
    4de9:	48 89 c7             	mov    %rax,%rdi
    4dec:	e8 4d 6a 00 00       	callq  b83e <_ZN4Heap4pushEP4Grid>
    4df1:	48 8d 85 f0 ff df ff 	lea    -0x200010(%rbp),%rax
    4df8:	48 89 c7             	mov    %rax,%rdi
    4dfb:	e8 74 6b 00 00       	callq  b974 <_ZN4Heap3popEv>
    4e00:	48 8d 85 30 ed df ff 	lea    -0x2012d0(%rbp),%rax
    4e07:	48 8d 50 0c          	lea    0xc(%rax),%rdx
    4e0b:	48 8d 85 f0 ff df ff 	lea    -0x200010(%rbp),%rax
    4e12:	48 89 d6             	mov    %rdx,%rsi
    4e15:	48 89 c7             	mov    %rax,%rdi
    4e18:	e8 21 6a 00 00       	callq  b83e <_ZN4Heap4pushEP4Grid>
    4e1d:	48 8d 85 f0 ff df ff 	lea    -0x200010(%rbp),%rax
    4e24:	48 89 c7             	mov    %rax,%rdi
    4e27:	e8 48 6b 00 00       	callq  b974 <_ZN4Heap3popEv>
    4e2c:	48 8d 85 30 ed df ff 	lea    -0x2012d0(%rbp),%rax
    4e33:	48 8d 50 0c          	lea    0xc(%rax),%rdx
    4e37:	48 8d 85 f0 ff df ff 	lea    -0x200010(%rbp),%rax
    4e3e:	48 89 d6             	mov    %rdx,%rsi
    4e41:	48 89 c7             	mov    %rax,%rdi
    4e44:	e8 f5 69 00 00       	callq  b83e <_ZN4Heap4pushEP4Grid>
    4e49:	48 8d 85 f0 ff df ff 	lea    -0x200010(%rbp),%rax
    4e50:	48 89 c7             	mov    %rax,%rdi
    4e53:	e8 1c 6b 00 00       	callq  b974 <_ZN4Heap3popEv>
    4e58:	48 8d 85 30 ed df ff 	lea    -0x2012d0(%rbp),%rax
    4e5f:	48 8d 50 0c          	lea    0xc(%rax),%rdx
    4e63:	48 8d 85 f0 ff df ff 	lea    -0x200010(%rbp),%rax
    4e6a:	48 89 d6             	mov    %rdx,%rsi
    4e6d:	48 89 c7             	mov    %rax,%rdi
    4e70:	e8 c9 69 00 00       	callq  b83e <_ZN4Heap4pushEP4Grid>
    4e75:	48 8d 85 f0 ff df ff 	lea    -0x200010(%rbp),%rax
    4e7c:	48 89 c7             	mov    %rax,%rdi
    4e7f:	e8 f0 6a 00 00       	callq  b974 <_ZN4Heap3popEv>
    4e84:	48 8d 85 30 ed df ff 	lea    -0x2012d0(%rbp),%rax
    4e8b:	48 8d 50 0c          	lea    0xc(%rax),%rdx
    4e8f:	48 8d 85 f0 ff df ff 	lea    -0x200010(%rbp),%rax
    4e96:	48 89 d6             	mov    %rdx,%rsi
    4e99:	48 89 c7             	mov    %rax,%rdi
    4e9c:	e8 9d 69 00 00       	callq  b83e <_ZN4Heap4pushEP4Grid>
    4ea1:	48 8d 85 f0 ff df ff 	lea    -0x200010(%rbp),%rax
    4ea8:	48 89 c7             	mov    %rax,%rdi
    4eab:	e8 c4 6a 00 00       	callq  b974 <_ZN4Heap3popEv>
    4eb0:	48 8d 85 30 ed df ff 	lea    -0x2012d0(%rbp),%rax
    4eb7:	48 8d 50 0c          	lea    0xc(%rax),%rdx
    4ebb:	48 8d 85 f0 ff df ff 	lea    -0x200010(%rbp),%rax
    4ec2:	48 89 d6             	mov    %rdx,%rsi
    4ec5:	48 89 c7             	mov    %rax,%rdi
    4ec8:	e8 71 69 00 00       	callq  b83e <_ZN4Heap4pushEP4Grid>
    4ecd:	48 8d 85 f0 ff df ff 	lea    -0x200010(%rbp),%rax
    4ed4:	48 89 c7             	mov    %rax,%rdi
    4ed7:	e8 98 6a 00 00       	callq  b974 <_ZN4Heap3popEv>
    4edc:	48 8d 85 30 ed df ff 	lea    -0x2012d0(%rbp),%rax
    4ee3:	48 8d 50 0c          	lea    0xc(%rax),%rdx
    4ee7:	48 8d 85 f0 ff df ff 	lea    -0x200010(%rbp),%rax
    4eee:	48 89 d6             	mov    %rdx,%rsi
    4ef1:	48 89 c7             	mov    %rax,%rdi
    4ef4:	e8 45 69 00 00       	callq  b83e <_ZN4Heap4pushEP4Grid>
    4ef9:	48 8d 85 f0 ff df ff 	lea    -0x200010(%rbp),%rax
    4f00:	48 89 c7             	mov    %rax,%rdi
    4f03:	e8 6c 6a 00 00       	callq  b974 <_ZN4Heap3popEv>
    4f08:	48 8d 85 30 ed df ff 	lea    -0x2012d0(%rbp),%rax
    4f0f:	48 8d 50 0c          	lea    0xc(%rax),%rdx
    4f13:	48 8d 85 f0 ff df ff 	lea    -0x200010(%rbp),%rax
    4f1a:	48 89 d6             	mov    %rdx,%rsi
    4f1d:	48 89 c7             	mov    %rax,%rdi
    4f20:	e8 19 69 00 00       	callq  b83e <_ZN4Heap4pushEP4Grid>
    4f25:	48 8d 85 f0 ff df ff 	lea    -0x200010(%rbp),%rax
    4f2c:	48 89 c7             	mov    %rax,%rdi
    4f2f:	e8 40 6a 00 00       	callq  b974 <_ZN4Heap3popEv>
    4f34:	48 8d 85 30 ed df ff 	lea    -0x2012d0(%rbp),%rax
    4f3b:	48 8d 50 0c          	lea    0xc(%rax),%rdx
    4f3f:	48 8d 85 f0 ff df ff 	lea    -0x200010(%rbp),%rax
    4f46:	48 89 d6             	mov    %rdx,%rsi
    4f49:	48 89 c7             	mov    %rax,%rdi
    4f4c:	e8 ed 68 00 00       	callq  b83e <_ZN4Heap4pushEP4Grid>
    4f51:	48 8d 85 f0 ff df ff 	lea    -0x200010(%rbp),%rax
    4f58:	48 89 c7             	mov    %rax,%rdi
    4f5b:	e8 14 6a 00 00       	callq  b974 <_ZN4Heap3popEv>
    4f60:	48 8d 85 30 ed df ff 	lea    -0x2012d0(%rbp),%rax
    4f67:	48 8d 50 0c          	lea    0xc(%rax),%rdx
    4f6b:	48 8d 85 f0 ff df ff 	lea    -0x200010(%rbp),%rax
    4f72:	48 89 d6             	mov    %rdx,%rsi
    4f75:	48 89 c7             	mov    %rax,%rdi
    4f78:	e8 c1 68 00 00       	callq  b83e <_ZN4Heap4pushEP4Grid>
    4f7d:	48 8d 85 f0 ff df ff 	lea    -0x200010(%rbp),%rax
    4f84:	48 89 c7             	mov    %rax,%rdi
    4f87:	e8 e8 69 00 00       	callq  b974 <_ZN4Heap3popEv>
    4f8c:	48 8d 85 30 ed df ff 	lea    -0x2012d0(%rbp),%rax
    4f93:	48 8d 50 0c          	lea    0xc(%rax),%rdx
    4f97:	48 8d 85 f0 ff df ff 	lea    -0x200010(%rbp),%rax
    4f9e:	48 89 d6             	mov    %rdx,%rsi
    4fa1:	48 89 c7             	mov    %rax,%rdi
    4fa4:	e8 95 68 00 00       	callq  b83e <_ZN4Heap4pushEP4Grid>
    4fa9:	48 8d 85 f0 ff df ff 	lea    -0x200010(%rbp),%rax
    4fb0:	48 89 c7             	mov    %rax,%rdi
    4fb3:	e8 bc 69 00 00       	callq  b974 <_ZN4Heap3popEv>
    4fb8:	48 8d 85 30 ed df ff 	lea    -0x2012d0(%rbp),%rax
    4fbf:	48 8d 50 0c          	lea    0xc(%rax),%rdx
    4fc3:	48 8d 85 f0 ff df ff 	lea    -0x200010(%rbp),%rax
    4fca:	48 89 d6             	mov    %rdx,%rsi
    4fcd:	48 89 c7             	mov    %rax,%rdi
    4fd0:	e8 69 68 00 00       	callq  b83e <_ZN4Heap4pushEP4Grid>
    4fd5:	48 8d 85 f0 ff df ff 	lea    -0x200010(%rbp),%rax
    4fdc:	48 89 c7             	mov    %rax,%rdi
    4fdf:	e8 90 69 00 00       	callq  b974 <_ZN4Heap3popEv>
    4fe4:	48 8d 85 30 ed df ff 	lea    -0x2012d0(%rbp),%rax
    4feb:	48 8d 50 0c          	lea    0xc(%rax),%rdx
    4fef:	48 8d 85 f0 ff df ff 	lea    -0x200010(%rbp),%rax
    4ff6:	48 89 d6             	mov    %rdx,%rsi
    4ff9:	48 89 c7             	mov    %rax,%rdi
    4ffc:	e8 3d 68 00 00       	callq  b83e <_ZN4Heap4pushEP4Grid>
    5001:	48 8d 85 f0 ff df ff 	lea    -0x200010(%rbp),%rax
    5008:	48 89 c7             	mov    %rax,%rdi
    500b:	e8 64 69 00 00       	callq  b974 <_ZN4Heap3popEv>
    5010:	48 8d 85 30 ed df ff 	lea    -0x2012d0(%rbp),%rax
    5017:	48 8d 50 0c          	lea    0xc(%rax),%rdx
    501b:	48 8d 85 f0 ff df ff 	lea    -0x200010(%rbp),%rax
    5022:	48 89 d6             	mov    %rdx,%rsi
    5025:	48 89 c7             	mov    %rax,%rdi
    5028:	e8 11 68 00 00       	callq  b83e <_ZN4Heap4pushEP4Grid>
    502d:	48 8d 85 f0 ff df ff 	lea    -0x200010(%rbp),%rax
    5034:	48 89 c7             	mov    %rax,%rdi
    5037:	e8 38 69 00 00       	callq  b974 <_ZN4Heap3popEv>
    503c:	48 8d 85 30 ed df ff 	lea    -0x2012d0(%rbp),%rax
    5043:	48 8d 50 0c          	lea    0xc(%rax),%rdx
    5047:	48 8d 85 f0 ff df ff 	lea    -0x200010(%rbp),%rax
    504e:	48 89 d6             	mov    %rdx,%rsi
    5051:	48 89 c7             	mov    %rax,%rdi
    5054:	e8 e5 67 00 00       	callq  b83e <_ZN4Heap4pushEP4Grid>
    5059:	48 8d 85 f0 ff df ff 	lea    -0x200010(%rbp),%rax
    5060:	48 89 c7             	mov    %rax,%rdi
    5063:	e8 0c 69 00 00       	callq  b974 <_ZN4Heap3popEv>
    5068:	48 8d 85 30 ed df ff 	lea    -0x2012d0(%rbp),%rax
    506f:	48 8d 50 0c          	lea    0xc(%rax),%rdx
    5073:	48 8d 85 f0 ff df ff 	lea    -0x200010(%rbp),%rax
    507a:	48 89 d6             	mov    %rdx,%rsi
    507d:	48 89 c7             	mov    %rax,%rdi
    5080:	e8 b9 67 00 00       	callq  b83e <_ZN4Heap4pushEP4Grid>
    5085:	48 8d 85 f0 ff df ff 	lea    -0x200010(%rbp),%rax
    508c:	48 89 c7             	mov    %rax,%rdi
    508f:	e8 e0 68 00 00       	callq  b974 <_ZN4Heap3popEv>
    5094:	48 8d 85 30 ed df ff 	lea    -0x2012d0(%rbp),%rax
    509b:	48 8d 50 0c          	lea    0xc(%rax),%rdx
    509f:	48 8d 85 f0 ff df ff 	lea    -0x200010(%rbp),%rax
    50a6:	48 89 d6             	mov    %rdx,%rsi
    50a9:	48 89 c7             	mov    %rax,%rdi
    50ac:	e8 8d 67 00 00       	callq  b83e <_ZN4Heap4pushEP4Grid>
    50b1:	48 8d 85 f0 ff df ff 	lea    -0x200010(%rbp),%rax
    50b8:	48 89 c7             	mov    %rax,%rdi
    50bb:	e8 b4 68 00 00       	callq  b974 <_ZN4Heap3popEv>
    50c0:	48 8d 85 30 ed df ff 	lea    -0x2012d0(%rbp),%rax
    50c7:	48 8d 50 0c          	lea    0xc(%rax),%rdx
    50cb:	48 8d 85 f0 ff df ff 	lea    -0x200010(%rbp),%rax
    50d2:	48 89 d6             	mov    %rdx,%rsi
    50d5:	48 89 c7             	mov    %rax,%rdi
    50d8:	e8 61 67 00 00       	callq  b83e <_ZN4Heap4pushEP4Grid>
    50dd:	48 8d 85 f0 ff df ff 	lea    -0x200010(%rbp),%rax
    50e4:	48 89 c7             	mov    %rax,%rdi
    50e7:	e8 88 68 00 00       	callq  b974 <_ZN4Heap3popEv>
    50ec:	48 8d 85 30 ed df ff 	lea    -0x2012d0(%rbp),%rax
    50f3:	48 8d 50 0c          	lea    0xc(%rax),%rdx
    50f7:	48 8d 85 f0 ff df ff 	lea    -0x200010(%rbp),%rax
    50fe:	48 89 d6             	mov    %rdx,%rsi
    5101:	48 89 c7             	mov    %rax,%rdi
    5104:	e8 35 67 00 00       	callq  b83e <_ZN4Heap4pushEP4Grid>
    5109:	48 8d 85 f0 ff df ff 	lea    -0x200010(%rbp),%rax
    5110:	48 89 c7             	mov    %rax,%rdi
    5113:	e8 5c 68 00 00       	callq  b974 <_ZN4Heap3popEv>
    5118:	48 8d 85 30 ed df ff 	lea    -0x2012d0(%rbp),%rax
    511f:	48 8d 50 0c          	lea    0xc(%rax),%rdx
    5123:	48 8d 85 f0 ff df ff 	lea    -0x200010(%rbp),%rax
    512a:	48 89 d6             	mov    %rdx,%rsi
    512d:	48 89 c7             	mov    %rax,%rdi
    5130:	e8 09 67 00 00       	callq  b83e <_ZN4Heap4pushEP4Grid>
    5135:	48 8d 85 f0 ff df ff 	lea    -0x200010(%rbp),%rax
    513c:	48 89 c7             	mov    %rax,%rdi
    513f:	e8 30 68 00 00       	callq  b974 <_ZN4Heap3popEv>
    5144:	48 8d 85 30 ed df ff 	lea    -0x2012d0(%rbp),%rax
    514b:	48 8d 50 0c          	lea    0xc(%rax),%rdx
    514f:	48 8d 85 f0 ff df ff 	lea    -0x200010(%rbp),%rax
    5156:	48 89 d6             	mov    %rdx,%rsi
    5159:	48 89 c7             	mov    %rax,%rdi
    515c:	e8 dd 66 00 00       	callq  b83e <_ZN4Heap4pushEP4Grid>
    5161:	48 8d 85 f0 ff df ff 	lea    -0x200010(%rbp),%rax
    5168:	48 89 c7             	mov    %rax,%rdi
    516b:	e8 04 68 00 00       	callq  b974 <_ZN4Heap3popEv>
    5170:	48 8d 85 30 ed df ff 	lea    -0x2012d0(%rbp),%rax
    5177:	48 8d 50 0c          	lea    0xc(%rax),%rdx
    517b:	48 8d 85 f0 ff df ff 	lea    -0x200010(%rbp),%rax
    5182:	48 89 d6             	mov    %rdx,%rsi
    5185:	48 89 c7             	mov    %rax,%rdi
    5188:	e8 b1 66 00 00       	callq  b83e <_ZN4Heap4pushEP4Grid>
    518d:	48 8d 85 f0 ff df ff 	lea    -0x200010(%rbp),%rax
    5194:	48 89 c7             	mov    %rax,%rdi
    5197:	e8 d8 67 00 00       	callq  b974 <_ZN4Heap3popEv>
    519c:	48 8d 85 30 ed df ff 	lea    -0x2012d0(%rbp),%rax
    51a3:	48 8d 50 0c          	lea    0xc(%rax),%rdx
    51a7:	48 8d 85 f0 ff df ff 	lea    -0x200010(%rbp),%rax
    51ae:	48 89 d6             	mov    %rdx,%rsi
    51b1:	48 89 c7             	mov    %rax,%rdi
    51b4:	e8 85 66 00 00       	callq  b83e <_ZN4Heap4pushEP4Grid>
    51b9:	48 8d 85 f0 ff df ff 	lea    -0x200010(%rbp),%rax
    51c0:	48 89 c7             	mov    %rax,%rdi
    51c3:	e8 ac 67 00 00       	callq  b974 <_ZN4Heap3popEv>
    51c8:	48 8d 85 30 ed df ff 	lea    -0x2012d0(%rbp),%rax
    51cf:	48 8d 50 0c          	lea    0xc(%rax),%rdx
    51d3:	48 8d 85 f0 ff df ff 	lea    -0x200010(%rbp),%rax
    51da:	48 89 d6             	mov    %rdx,%rsi
    51dd:	48 89 c7             	mov    %rax,%rdi
    51e0:	e8 59 66 00 00       	callq  b83e <_ZN4Heap4pushEP4Grid>
    51e5:	48 8d 85 f0 ff df ff 	lea    -0x200010(%rbp),%rax
    51ec:	48 89 c7             	mov    %rax,%rdi
    51ef:	e8 80 67 00 00       	callq  b974 <_ZN4Heap3popEv>
    51f4:	48 8d 85 30 ed df ff 	lea    -0x2012d0(%rbp),%rax
    51fb:	48 8d 50 0c          	lea    0xc(%rax),%rdx
    51ff:	48 8d 85 f0 ff df ff 	lea    -0x200010(%rbp),%rax
    5206:	48 89 d6             	mov    %rdx,%rsi
    5209:	48 89 c7             	mov    %rax,%rdi
    520c:	e8 2d 66 00 00       	callq  b83e <_ZN4Heap4pushEP4Grid>
    5211:	48 8d 85 f0 ff df ff 	lea    -0x200010(%rbp),%rax
    5218:	48 89 c7             	mov    %rax,%rdi
    521b:	e8 54 67 00 00       	callq  b974 <_ZN4Heap3popEv>
    5220:	48 8d 85 30 ed df ff 	lea    -0x2012d0(%rbp),%rax
    5227:	48 8d 50 0c          	lea    0xc(%rax),%rdx
    522b:	48 8d 85 f0 ff df ff 	lea    -0x200010(%rbp),%rax
    5232:	48 89 d6             	mov    %rdx,%rsi
    5235:	48 89 c7             	mov    %rax,%rdi
    5238:	e8 01 66 00 00       	callq  b83e <_ZN4Heap4pushEP4Grid>
    523d:	48 8d 85 f0 ff df ff 	lea    -0x200010(%rbp),%rax
    5244:	48 89 c7             	mov    %rax,%rdi
    5247:	e8 28 67 00 00       	callq  b974 <_ZN4Heap3popEv>
    524c:	48 8d 85 30 ed df ff 	lea    -0x2012d0(%rbp),%rax
    5253:	48 8d 50 0c          	lea    0xc(%rax),%rdx
    5257:	48 8d 85 f0 ff df ff 	lea    -0x200010(%rbp),%rax
    525e:	48 89 d6             	mov    %rdx,%rsi
    5261:	48 89 c7             	mov    %rax,%rdi
    5264:	e8 d5 65 00 00       	callq  b83e <_ZN4Heap4pushEP4Grid>
    5269:	48 8d 85 f0 ff df ff 	lea    -0x200010(%rbp),%rax
    5270:	48 89 c7             	mov    %rax,%rdi
    5273:	e8 fc 66 00 00       	callq  b974 <_ZN4Heap3popEv>
    5278:	48 8d 85 30 ed df ff 	lea    -0x2012d0(%rbp),%rax
    527f:	48 8d 50 0c          	lea    0xc(%rax),%rdx
    5283:	48 8d 85 f0 ff df ff 	lea    -0x200010(%rbp),%rax
    528a:	48 89 d6             	mov    %rdx,%rsi
    528d:	48 89 c7             	mov    %rax,%rdi
    5290:	e8 a9 65 00 00       	callq  b83e <_ZN4Heap4pushEP4Grid>
    5295:	48 8d 85 f0 ff df ff 	lea    -0x200010(%rbp),%rax
    529c:	48 89 c7             	mov    %rax,%rdi
    529f:	e8 d0 66 00 00       	callq  b974 <_ZN4Heap3popEv>
    52a4:	48 8d 85 30 ed df ff 	lea    -0x2012d0(%rbp),%rax
    52ab:	48 8d 50 0c          	lea    0xc(%rax),%rdx
    52af:	48 8d 85 f0 ff df ff 	lea    -0x200010(%rbp),%rax
    52b6:	48 89 d6             	mov    %rdx,%rsi
    52b9:	48 89 c7             	mov    %rax,%rdi
    52bc:	e8 7d 65 00 00       	callq  b83e <_ZN4Heap4pushEP4Grid>
    52c1:	48 8d 85 f0 ff df ff 	lea    -0x200010(%rbp),%rax
    52c8:	48 89 c7             	mov    %rax,%rdi
    52cb:	e8 a4 66 00 00       	callq  b974 <_ZN4Heap3popEv>
    52d0:	48 8d 85 30 ed df ff 	lea    -0x2012d0(%rbp),%rax
    52d7:	48 8d 50 0c          	lea    0xc(%rax),%rdx
    52db:	48 8d 85 f0 ff df ff 	lea    -0x200010(%rbp),%rax
    52e2:	48 89 d6             	mov    %rdx,%rsi
    52e5:	48 89 c7             	mov    %rax,%rdi
    52e8:	e8 51 65 00 00       	callq  b83e <_ZN4Heap4pushEP4Grid>
    52ed:	48 8d 85 f0 ff df ff 	lea    -0x200010(%rbp),%rax
    52f4:	48 89 c7             	mov    %rax,%rdi
    52f7:	e8 78 66 00 00       	callq  b974 <_ZN4Heap3popEv>
    52fc:	48 8d 85 30 ed df ff 	lea    -0x2012d0(%rbp),%rax
    5303:	48 8d 50 0c          	lea    0xc(%rax),%rdx
    5307:	48 8d 85 f0 ff df ff 	lea    -0x200010(%rbp),%rax
    530e:	48 89 d6             	mov    %rdx,%rsi
    5311:	48 89 c7             	mov    %rax,%rdi
    5314:	e8 25 65 00 00       	callq  b83e <_ZN4Heap4pushEP4Grid>
    5319:	48 8d 85 f0 ff df ff 	lea    -0x200010(%rbp),%rax
    5320:	48 89 c7             	mov    %rax,%rdi
    5323:	e8 4c 66 00 00       	callq  b974 <_ZN4Heap3popEv>
    5328:	48 8d 85 30 ed df ff 	lea    -0x2012d0(%rbp),%rax
    532f:	48 8d 50 0c          	lea    0xc(%rax),%rdx
    5333:	48 8d 85 f0 ff df ff 	lea    -0x200010(%rbp),%rax
    533a:	48 89 d6             	mov    %rdx,%rsi
    533d:	48 89 c7             	mov    %rax,%rdi
    5340:	e8 f9 64 00 00       	callq  b83e <_ZN4Heap4pushEP4Grid>
    5345:	48 8d 85 f0 ff df ff 	lea    -0x200010(%rbp),%rax
    534c:	48 89 c7             	mov    %rax,%rdi
    534f:	e8 20 66 00 00       	callq  b974 <_ZN4Heap3popEv>
    5354:	48 8d 85 30 ed df ff 	lea    -0x2012d0(%rbp),%rax
    535b:	48 8d 50 0c          	lea    0xc(%rax),%rdx
    535f:	48 8d 85 f0 ff df ff 	lea    -0x200010(%rbp),%rax
    5366:	48 89 d6             	mov    %rdx,%rsi
    5369:	48 89 c7             	mov    %rax,%rdi
    536c:	e8 cd 64 00 00       	callq  b83e <_ZN4Heap4pushEP4Grid>
    5371:	48 8d 85 f0 ff df ff 	lea    -0x200010(%rbp),%rax
    5378:	48 89 c7             	mov    %rax,%rdi
    537b:	e8 f4 65 00 00       	callq  b974 <_ZN4Heap3popEv>
    5380:	48 8d 85 30 ed df ff 	lea    -0x2012d0(%rbp),%rax
    5387:	48 8d 50 0c          	lea    0xc(%rax),%rdx
    538b:	48 8d 85 f0 ff df ff 	lea    -0x200010(%rbp),%rax
    5392:	48 89 d6             	mov    %rdx,%rsi
    5395:	48 89 c7             	mov    %rax,%rdi
    5398:	e8 a1 64 00 00       	callq  b83e <_ZN4Heap4pushEP4Grid>
    539d:	48 8d 85 f0 ff df ff 	lea    -0x200010(%rbp),%rax
    53a4:	48 89 c7             	mov    %rax,%rdi
    53a7:	e8 c8 65 00 00       	callq  b974 <_ZN4Heap3popEv>
    53ac:	48 8d 85 30 ed df ff 	lea    -0x2012d0(%rbp),%rax
    53b3:	48 8d 50 0c          	lea    0xc(%rax),%rdx
    53b7:	48 8d 85 f0 ff df ff 	lea    -0x200010(%rbp),%rax
    53be:	48 89 d6             	mov    %rdx,%rsi
    53c1:	48 89 c7             	mov    %rax,%rdi
    53c4:	e8 75 64 00 00       	callq  b83e <_ZN4Heap4pushEP4Grid>
    53c9:	48 8d 85 f0 ff df ff 	lea    -0x200010(%rbp),%rax
    53d0:	48 89 c7             	mov    %rax,%rdi
    53d3:	e8 9c 65 00 00       	callq  b974 <_ZN4Heap3popEv>
    53d8:	48 8d 85 30 ed df ff 	lea    -0x2012d0(%rbp),%rax
    53df:	48 8d 50 0c          	lea    0xc(%rax),%rdx
    53e3:	48 8d 85 f0 ff df ff 	lea    -0x200010(%rbp),%rax
    53ea:	48 89 d6             	mov    %rdx,%rsi
    53ed:	48 89 c7             	mov    %rax,%rdi
    53f0:	e8 49 64 00 00       	callq  b83e <_ZN4Heap4pushEP4Grid>
    53f5:	48 8d 85 f0 ff df ff 	lea    -0x200010(%rbp),%rax
    53fc:	48 89 c7             	mov    %rax,%rdi
    53ff:	e8 70 65 00 00       	callq  b974 <_ZN4Heap3popEv>
    5404:	48 8d 85 30 ed df ff 	lea    -0x2012d0(%rbp),%rax
    540b:	48 8d 50 0c          	lea    0xc(%rax),%rdx
    540f:	48 8d 85 f0 ff df ff 	lea    -0x200010(%rbp),%rax
    5416:	48 89 d6             	mov    %rdx,%rsi
    5419:	48 89 c7             	mov    %rax,%rdi
    541c:	e8 1d 64 00 00       	callq  b83e <_ZN4Heap4pushEP4Grid>
    5421:	48 8d 85 f0 ff df ff 	lea    -0x200010(%rbp),%rax
    5428:	48 89 c7             	mov    %rax,%rdi
    542b:	e8 44 65 00 00       	callq  b974 <_ZN4Heap3popEv>
    5430:	48 8d 85 30 ed df ff 	lea    -0x2012d0(%rbp),%rax
    5437:	48 8d 50 0c          	lea    0xc(%rax),%rdx
    543b:	48 8d 85 f0 ff df ff 	lea    -0x200010(%rbp),%rax
    5442:	48 89 d6             	mov    %rdx,%rsi
    5445:	48 89 c7             	mov    %rax,%rdi
    5448:	e8 f1 63 00 00       	callq  b83e <_ZN4Heap4pushEP4Grid>
    544d:	48 8d 85 f0 ff df ff 	lea    -0x200010(%rbp),%rax
    5454:	48 89 c7             	mov    %rax,%rdi
    5457:	e8 18 65 00 00       	callq  b974 <_ZN4Heap3popEv>
    545c:	48 8d 85 30 ed df ff 	lea    -0x2012d0(%rbp),%rax
    5463:	48 8d 50 0c          	lea    0xc(%rax),%rdx
    5467:	48 8d 85 f0 ff df ff 	lea    -0x200010(%rbp),%rax
    546e:	48 89 d6             	mov    %rdx,%rsi
    5471:	48 89 c7             	mov    %rax,%rdi
    5474:	e8 c5 63 00 00       	callq  b83e <_ZN4Heap4pushEP4Grid>
    5479:	48 8d 85 f0 ff df ff 	lea    -0x200010(%rbp),%rax
    5480:	48 89 c7             	mov    %rax,%rdi
    5483:	e8 ec 64 00 00       	callq  b974 <_ZN4Heap3popEv>
    5488:	48 8d 85 30 ed df ff 	lea    -0x2012d0(%rbp),%rax
    548f:	48 8d 50 0c          	lea    0xc(%rax),%rdx
    5493:	48 8d 85 f0 ff df ff 	lea    -0x200010(%rbp),%rax
    549a:	48 89 d6             	mov    %rdx,%rsi
    549d:	48 89 c7             	mov    %rax,%rdi
    54a0:	e8 99 63 00 00       	callq  b83e <_ZN4Heap4pushEP4Grid>
    54a5:	48 8d 85 f0 ff df ff 	lea    -0x200010(%rbp),%rax
    54ac:	48 89 c7             	mov    %rax,%rdi
    54af:	e8 c0 64 00 00       	callq  b974 <_ZN4Heap3popEv>
    54b4:	48 8d 85 30 ed df ff 	lea    -0x2012d0(%rbp),%rax
    54bb:	48 8d 50 0c          	lea    0xc(%rax),%rdx
    54bf:	48 8d 85 f0 ff df ff 	lea    -0x200010(%rbp),%rax
    54c6:	48 89 d6             	mov    %rdx,%rsi
    54c9:	48 89 c7             	mov    %rax,%rdi
    54cc:	e8 6d 63 00 00       	callq  b83e <_ZN4Heap4pushEP4Grid>
    54d1:	48 8d 85 f0 ff df ff 	lea    -0x200010(%rbp),%rax
    54d8:	48 89 c7             	mov    %rax,%rdi
    54db:	e8 94 64 00 00       	callq  b974 <_ZN4Heap3popEv>
    54e0:	48 8d 85 30 ed df ff 	lea    -0x2012d0(%rbp),%rax
    54e7:	48 8d 50 0c          	lea    0xc(%rax),%rdx
    54eb:	48 8d 85 f0 ff df ff 	lea    -0x200010(%rbp),%rax
    54f2:	48 89 d6             	mov    %rdx,%rsi
    54f5:	48 89 c7             	mov    %rax,%rdi
    54f8:	e8 41 63 00 00       	callq  b83e <_ZN4Heap4pushEP4Grid>
    54fd:	48 8d 85 f0 ff df ff 	lea    -0x200010(%rbp),%rax
    5504:	48 89 c7             	mov    %rax,%rdi
    5507:	e8 68 64 00 00       	callq  b974 <_ZN4Heap3popEv>
    550c:	48 8d 85 30 ed df ff 	lea    -0x2012d0(%rbp),%rax
    5513:	48 8d 50 0c          	lea    0xc(%rax),%rdx
    5517:	48 8d 85 f0 ff df ff 	lea    -0x200010(%rbp),%rax
    551e:	48 89 d6             	mov    %rdx,%rsi
    5521:	48 89 c7             	mov    %rax,%rdi
    5524:	e8 15 63 00 00       	callq  b83e <_ZN4Heap4pushEP4Grid>
    5529:	48 8d 85 f0 ff df ff 	lea    -0x200010(%rbp),%rax
    5530:	48 89 c7             	mov    %rax,%rdi
    5533:	e8 3c 64 00 00       	callq  b974 <_ZN4Heap3popEv>
    5538:	48 8d 85 30 ed df ff 	lea    -0x2012d0(%rbp),%rax
    553f:	48 8d 50 0c          	lea    0xc(%rax),%rdx
    5543:	48 8d 85 f0 ff df ff 	lea    -0x200010(%rbp),%rax
    554a:	48 89 d6             	mov    %rdx,%rsi
    554d:	48 89 c7             	mov    %rax,%rdi
    5550:	e8 e9 62 00 00       	callq  b83e <_ZN4Heap4pushEP4Grid>
    5555:	48 8d 85 f0 ff df ff 	lea    -0x200010(%rbp),%rax
    555c:	48 89 c7             	mov    %rax,%rdi
    555f:	e8 10 64 00 00       	callq  b974 <_ZN4Heap3popEv>
    5564:	48 8d 85 30 ed df ff 	lea    -0x2012d0(%rbp),%rax
    556b:	48 8d 50 0c          	lea    0xc(%rax),%rdx
    556f:	48 8d 85 f0 ff df ff 	lea    -0x200010(%rbp),%rax
    5576:	48 89 d6             	mov    %rdx,%rsi
    5579:	48 89 c7             	mov    %rax,%rdi
    557c:	e8 bd 62 00 00       	callq  b83e <_ZN4Heap4pushEP4Grid>
    5581:	48 8d 85 f0 ff df ff 	lea    -0x200010(%rbp),%rax
    5588:	48 89 c7             	mov    %rax,%rdi
    558b:	e8 e4 63 00 00       	callq  b974 <_ZN4Heap3popEv>
    5590:	48 8d 85 30 ed df ff 	lea    -0x2012d0(%rbp),%rax
    5597:	48 8d 50 0c          	lea    0xc(%rax),%rdx
    559b:	48 8d 85 f0 ff df ff 	lea    -0x200010(%rbp),%rax
    55a2:	48 89 d6             	mov    %rdx,%rsi
    55a5:	48 89 c7             	mov    %rax,%rdi
    55a8:	e8 91 62 00 00       	callq  b83e <_ZN4Heap4pushEP4Grid>
    55ad:	48 8d 85 f0 ff df ff 	lea    -0x200010(%rbp),%rax
    55b4:	48 89 c7             	mov    %rax,%rdi
    55b7:	e8 b8 63 00 00       	callq  b974 <_ZN4Heap3popEv>
    55bc:	48 8d 85 30 ed df ff 	lea    -0x2012d0(%rbp),%rax
    55c3:	48 8d 50 0c          	lea    0xc(%rax),%rdx
    55c7:	48 8d 85 f0 ff df ff 	lea    -0x200010(%rbp),%rax
    55ce:	48 89 d6             	mov    %rdx,%rsi
    55d1:	48 89 c7             	mov    %rax,%rdi
    55d4:	e8 65 62 00 00       	callq  b83e <_ZN4Heap4pushEP4Grid>
    55d9:	48 8d 85 f0 ff df ff 	lea    -0x200010(%rbp),%rax
    55e0:	48 89 c7             	mov    %rax,%rdi
    55e3:	e8 8c 63 00 00       	callq  b974 <_ZN4Heap3popEv>
    55e8:	48 8d 85 30 ed df ff 	lea    -0x2012d0(%rbp),%rax
    55ef:	48 8d 50 0c          	lea    0xc(%rax),%rdx
    55f3:	48 8d 85 f0 ff df ff 	lea    -0x200010(%rbp),%rax
    55fa:	48 89 d6             	mov    %rdx,%rsi
    55fd:	48 89 c7             	mov    %rax,%rdi
    5600:	e8 39 62 00 00       	callq  b83e <_ZN4Heap4pushEP4Grid>
    5605:	48 8d 85 f0 ff df ff 	lea    -0x200010(%rbp),%rax
    560c:	48 89 c7             	mov    %rax,%rdi
    560f:	e8 60 63 00 00       	callq  b974 <_ZN4Heap3popEv>
    5614:	48 8d 85 30 ed df ff 	lea    -0x2012d0(%rbp),%rax
    561b:	48 8d 50 0c          	lea    0xc(%rax),%rdx
    561f:	48 8d 85 f0 ff df ff 	lea    -0x200010(%rbp),%rax
    5626:	48 89 d6             	mov    %rdx,%rsi
    5629:	48 89 c7             	mov    %rax,%rdi
    562c:	e8 0d 62 00 00       	callq  b83e <_ZN4Heap4pushEP4Grid>
    5631:	48 8d 85 f0 ff df ff 	lea    -0x200010(%rbp),%rax
    5638:	48 89 c7             	mov    %rax,%rdi
    563b:	e8 34 63 00 00       	callq  b974 <_ZN4Heap3popEv>
    5640:	48 8d 85 30 ed df ff 	lea    -0x2012d0(%rbp),%rax
    5647:	48 8d 50 0c          	lea    0xc(%rax),%rdx
    564b:	48 8d 85 f0 ff df ff 	lea    -0x200010(%rbp),%rax
    5652:	48 89 d6             	mov    %rdx,%rsi
    5655:	48 89 c7             	mov    %rax,%rdi
    5658:	e8 e1 61 00 00       	callq  b83e <_ZN4Heap4pushEP4Grid>
    565d:	48 8d 85 f0 ff df ff 	lea    -0x200010(%rbp),%rax
    5664:	48 89 c7             	mov    %rax,%rdi
    5667:	e8 08 63 00 00       	callq  b974 <_ZN4Heap3popEv>
    566c:	48 8d 85 30 ed df ff 	lea    -0x2012d0(%rbp),%rax
    5673:	48 8d 50 0c          	lea    0xc(%rax),%rdx
    5677:	48 8d 85 f0 ff df ff 	lea    -0x200010(%rbp),%rax
    567e:	48 89 d6             	mov    %rdx,%rsi
    5681:	48 89 c7             	mov    %rax,%rdi
    5684:	e8 b5 61 00 00       	callq  b83e <_ZN4Heap4pushEP4Grid>
    5689:	48 8d 85 f0 ff df ff 	lea    -0x200010(%rbp),%rax
    5690:	48 89 c7             	mov    %rax,%rdi
    5693:	e8 dc 62 00 00       	callq  b974 <_ZN4Heap3popEv>
    5698:	48 8d 85 30 ed df ff 	lea    -0x2012d0(%rbp),%rax
    569f:	48 8d 50 0c          	lea    0xc(%rax),%rdx
    56a3:	48 8d 85 f0 ff df ff 	lea    -0x200010(%rbp),%rax
    56aa:	48 89 d6             	mov    %rdx,%rsi
    56ad:	48 89 c7             	mov    %rax,%rdi
    56b0:	e8 89 61 00 00       	callq  b83e <_ZN4Heap4pushEP4Grid>
    56b5:	48 8d 85 f0 ff df ff 	lea    -0x200010(%rbp),%rax
    56bc:	48 89 c7             	mov    %rax,%rdi
    56bf:	e8 b0 62 00 00       	callq  b974 <_ZN4Heap3popEv>
    56c4:	48 8d 85 30 ed df ff 	lea    -0x2012d0(%rbp),%rax
    56cb:	48 8d 50 0c          	lea    0xc(%rax),%rdx
    56cf:	48 8d 85 f0 ff df ff 	lea    -0x200010(%rbp),%rax
    56d6:	48 89 d6             	mov    %rdx,%rsi
    56d9:	48 89 c7             	mov    %rax,%rdi
    56dc:	e8 5d 61 00 00       	callq  b83e <_ZN4Heap4pushEP4Grid>
    56e1:	48 8d 85 f0 ff df ff 	lea    -0x200010(%rbp),%rax
    56e8:	48 89 c7             	mov    %rax,%rdi
    56eb:	e8 84 62 00 00       	callq  b974 <_ZN4Heap3popEv>
    56f0:	48 8d 85 30 ed df ff 	lea    -0x2012d0(%rbp),%rax
    56f7:	48 8d 50 0c          	lea    0xc(%rax),%rdx
    56fb:	48 8d 85 f0 ff df ff 	lea    -0x200010(%rbp),%rax
    5702:	48 89 d6             	mov    %rdx,%rsi
    5705:	48 89 c7             	mov    %rax,%rdi
    5708:	e8 31 61 00 00       	callq  b83e <_ZN4Heap4pushEP4Grid>
    570d:	48 8d 85 f0 ff df ff 	lea    -0x200010(%rbp),%rax
    5714:	48 89 c7             	mov    %rax,%rdi
    5717:	e8 58 62 00 00       	callq  b974 <_ZN4Heap3popEv>
    571c:	48 8d 85 30 ed df ff 	lea    -0x2012d0(%rbp),%rax
    5723:	48 8d 50 0c          	lea    0xc(%rax),%rdx
    5727:	48 8d 85 f0 ff df ff 	lea    -0x200010(%rbp),%rax
    572e:	48 89 d6             	mov    %rdx,%rsi
    5731:	48 89 c7             	mov    %rax,%rdi
    5734:	e8 05 61 00 00       	callq  b83e <_ZN4Heap4pushEP4Grid>
    5739:	48 8d 85 f0 ff df ff 	lea    -0x200010(%rbp),%rax
    5740:	48 89 c7             	mov    %rax,%rdi
    5743:	e8 2c 62 00 00       	callq  b974 <_ZN4Heap3popEv>
    5748:	48 8d 85 30 ed df ff 	lea    -0x2012d0(%rbp),%rax
    574f:	48 8d 50 0c          	lea    0xc(%rax),%rdx
    5753:	48 8d 85 f0 ff df ff 	lea    -0x200010(%rbp),%rax
    575a:	48 89 d6             	mov    %rdx,%rsi
    575d:	48 89 c7             	mov    %rax,%rdi
    5760:	e8 d9 60 00 00       	callq  b83e <_ZN4Heap4pushEP4Grid>
    5765:	48 8d 85 f0 ff df ff 	lea    -0x200010(%rbp),%rax
    576c:	48 89 c7             	mov    %rax,%rdi
    576f:	e8 00 62 00 00       	callq  b974 <_ZN4Heap3popEv>
    5774:	48 8d 85 30 ed df ff 	lea    -0x2012d0(%rbp),%rax
    577b:	48 8d 50 0c          	lea    0xc(%rax),%rdx
    577f:	48 8d 85 f0 ff df ff 	lea    -0x200010(%rbp),%rax
    5786:	48 89 d6             	mov    %rdx,%rsi
    5789:	48 89 c7             	mov    %rax,%rdi
    578c:	e8 ad 60 00 00       	callq  b83e <_ZN4Heap4pushEP4Grid>
    5791:	48 8d 85 f0 ff df ff 	lea    -0x200010(%rbp),%rax
    5798:	48 89 c7             	mov    %rax,%rdi
    579b:	e8 d4 61 00 00       	callq  b974 <_ZN4Heap3popEv>
    57a0:	48 8d 85 30 ed df ff 	lea    -0x2012d0(%rbp),%rax
    57a7:	48 8d 50 0c          	lea    0xc(%rax),%rdx
    57ab:	48 8d 85 f0 ff df ff 	lea    -0x200010(%rbp),%rax
    57b2:	48 89 d6             	mov    %rdx,%rsi
    57b5:	48 89 c7             	mov    %rax,%rdi
    57b8:	e8 81 60 00 00       	callq  b83e <_ZN4Heap4pushEP4Grid>
    57bd:	48 8d 85 f0 ff df ff 	lea    -0x200010(%rbp),%rax
    57c4:	48 89 c7             	mov    %rax,%rdi
    57c7:	e8 a8 61 00 00       	callq  b974 <_ZN4Heap3popEv>
    57cc:	48 8d 85 30 ed df ff 	lea    -0x2012d0(%rbp),%rax
    57d3:	48 8d 50 0c          	lea    0xc(%rax),%rdx
    57d7:	48 8d 85 f0 ff df ff 	lea    -0x200010(%rbp),%rax
    57de:	48 89 d6             	mov    %rdx,%rsi
    57e1:	48 89 c7             	mov    %rax,%rdi
    57e4:	e8 55 60 00 00       	callq  b83e <_ZN4Heap4pushEP4Grid>
    57e9:	48 8d 85 f0 ff df ff 	lea    -0x200010(%rbp),%rax
    57f0:	48 89 c7             	mov    %rax,%rdi
    57f3:	e8 7c 61 00 00       	callq  b974 <_ZN4Heap3popEv>
    57f8:	48 8d 85 30 ed df ff 	lea    -0x2012d0(%rbp),%rax
    57ff:	48 8d 50 0c          	lea    0xc(%rax),%rdx
    5803:	48 8d 85 f0 ff df ff 	lea    -0x200010(%rbp),%rax
    580a:	48 89 d6             	mov    %rdx,%rsi
    580d:	48 89 c7             	mov    %rax,%rdi
    5810:	e8 29 60 00 00       	callq  b83e <_ZN4Heap4pushEP4Grid>
    5815:	48 8d 85 f0 ff df ff 	lea    -0x200010(%rbp),%rax
    581c:	48 89 c7             	mov    %rax,%rdi
    581f:	e8 50 61 00 00       	callq  b974 <_ZN4Heap3popEv>
    5824:	48 8d 85 30 ed df ff 	lea    -0x2012d0(%rbp),%rax
    582b:	48 8d 50 0c          	lea    0xc(%rax),%rdx
    582f:	48 8d 85 f0 ff df ff 	lea    -0x200010(%rbp),%rax
    5836:	48 89 d6             	mov    %rdx,%rsi
    5839:	48 89 c7             	mov    %rax,%rdi
    583c:	e8 fd 5f 00 00       	callq  b83e <_ZN4Heap4pushEP4Grid>
    5841:	48 8d 85 f0 ff df ff 	lea    -0x200010(%rbp),%rax
    5848:	48 89 c7             	mov    %rax,%rdi
    584b:	e8 24 61 00 00       	callq  b974 <_ZN4Heap3popEv>
    5850:	48 8d 85 30 ed df ff 	lea    -0x2012d0(%rbp),%rax
    5857:	48 8d 50 0c          	lea    0xc(%rax),%rdx
    585b:	48 8d 85 f0 ff df ff 	lea    -0x200010(%rbp),%rax
    5862:	48 89 d6             	mov    %rdx,%rsi
    5865:	48 89 c7             	mov    %rax,%rdi
    5868:	e8 d1 5f 00 00       	callq  b83e <_ZN4Heap4pushEP4Grid>
    586d:	48 8d 85 f0 ff df ff 	lea    -0x200010(%rbp),%rax
    5874:	48 89 c7             	mov    %rax,%rdi
    5877:	e8 f8 60 00 00       	callq  b974 <_ZN4Heap3popEv>
    587c:	48 8d 85 30 ed df ff 	lea    -0x2012d0(%rbp),%rax
    5883:	48 8d 50 0c          	lea    0xc(%rax),%rdx
    5887:	48 8d 85 f0 ff df ff 	lea    -0x200010(%rbp),%rax
    588e:	48 89 d6             	mov    %rdx,%rsi
    5891:	48 89 c7             	mov    %rax,%rdi
    5894:	e8 a5 5f 00 00       	callq  b83e <_ZN4Heap4pushEP4Grid>
    5899:	48 8d 85 f0 ff df ff 	lea    -0x200010(%rbp),%rax
    58a0:	48 89 c7             	mov    %rax,%rdi
    58a3:	e8 cc 60 00 00       	callq  b974 <_ZN4Heap3popEv>
    58a8:	48 8d 85 30 ed df ff 	lea    -0x2012d0(%rbp),%rax
    58af:	48 8d 50 0c          	lea    0xc(%rax),%rdx
    58b3:	48 8d 85 f0 ff df ff 	lea    -0x200010(%rbp),%rax
    58ba:	48 89 d6             	mov    %rdx,%rsi
    58bd:	48 89 c7             	mov    %rax,%rdi
    58c0:	e8 79 5f 00 00       	callq  b83e <_ZN4Heap4pushEP4Grid>
    58c5:	48 8d 85 f0 ff df ff 	lea    -0x200010(%rbp),%rax
    58cc:	48 89 c7             	mov    %rax,%rdi
    58cf:	e8 a0 60 00 00       	callq  b974 <_ZN4Heap3popEv>
    58d4:	48 8d 85 30 ed df ff 	lea    -0x2012d0(%rbp),%rax
    58db:	48 8d 50 0c          	lea    0xc(%rax),%rdx
    58df:	48 8d 85 f0 ff df ff 	lea    -0x200010(%rbp),%rax
    58e6:	48 89 d6             	mov    %rdx,%rsi
    58e9:	48 89 c7             	mov    %rax,%rdi
    58ec:	e8 4d 5f 00 00       	callq  b83e <_ZN4Heap4pushEP4Grid>
    58f1:	48 8d 85 f0 ff df ff 	lea    -0x200010(%rbp),%rax
    58f8:	48 89 c7             	mov    %rax,%rdi
    58fb:	e8 74 60 00 00       	callq  b974 <_ZN4Heap3popEv>
    5900:	48 8d 85 30 ed df ff 	lea    -0x2012d0(%rbp),%rax
    5907:	48 8d 50 0c          	lea    0xc(%rax),%rdx
    590b:	48 8d 85 f0 ff df ff 	lea    -0x200010(%rbp),%rax
    5912:	48 89 d6             	mov    %rdx,%rsi
    5915:	48 89 c7             	mov    %rax,%rdi
    5918:	e8 21 5f 00 00       	callq  b83e <_ZN4Heap4pushEP4Grid>
    591d:	48 8d 85 f0 ff df ff 	lea    -0x200010(%rbp),%rax
    5924:	48 89 c7             	mov    %rax,%rdi
    5927:	e8 48 60 00 00       	callq  b974 <_ZN4Heap3popEv>
    592c:	48 8d 85 30 ed df ff 	lea    -0x2012d0(%rbp),%rax
    5933:	48 8d 50 0c          	lea    0xc(%rax),%rdx
    5937:	48 8d 85 f0 ff df ff 	lea    -0x200010(%rbp),%rax
    593e:	48 89 d6             	mov    %rdx,%rsi
    5941:	48 89 c7             	mov    %rax,%rdi
    5944:	e8 f5 5e 00 00       	callq  b83e <_ZN4Heap4pushEP4Grid>
    5949:	48 8d 85 f0 ff df ff 	lea    -0x200010(%rbp),%rax
    5950:	48 89 c7             	mov    %rax,%rdi
    5953:	e8 1c 60 00 00       	callq  b974 <_ZN4Heap3popEv>
    5958:	48 8d 85 30 ed df ff 	lea    -0x2012d0(%rbp),%rax
    595f:	48 8d 50 0c          	lea    0xc(%rax),%rdx
    5963:	48 8d 85 f0 ff df ff 	lea    -0x200010(%rbp),%rax
    596a:	48 89 d6             	mov    %rdx,%rsi
    596d:	48 89 c7             	mov    %rax,%rdi
    5970:	e8 c9 5e 00 00       	callq  b83e <_ZN4Heap4pushEP4Grid>
    5975:	48 8d 85 f0 ff df ff 	lea    -0x200010(%rbp),%rax
    597c:	48 89 c7             	mov    %rax,%rdi
    597f:	e8 f0 5f 00 00       	callq  b974 <_ZN4Heap3popEv>
    5984:	48 8d 85 30 ed df ff 	lea    -0x2012d0(%rbp),%rax
    598b:	48 8d 50 0c          	lea    0xc(%rax),%rdx
    598f:	48 8d 85 f0 ff df ff 	lea    -0x200010(%rbp),%rax
    5996:	48 89 d6             	mov    %rdx,%rsi
    5999:	48 89 c7             	mov    %rax,%rdi
    599c:	e8 9d 5e 00 00       	callq  b83e <_ZN4Heap4pushEP4Grid>
    59a1:	48 8d 85 f0 ff df ff 	lea    -0x200010(%rbp),%rax
    59a8:	48 89 c7             	mov    %rax,%rdi
    59ab:	e8 c4 5f 00 00       	callq  b974 <_ZN4Heap3popEv>
    59b0:	48 8d 85 30 ed df ff 	lea    -0x2012d0(%rbp),%rax
    59b7:	48 8d 50 0c          	lea    0xc(%rax),%rdx
    59bb:	48 8d 85 f0 ff df ff 	lea    -0x200010(%rbp),%rax
    59c2:	48 89 d6             	mov    %rdx,%rsi
    59c5:	48 89 c7             	mov    %rax,%rdi
    59c8:	e8 71 5e 00 00       	callq  b83e <_ZN4Heap4pushEP4Grid>
    59cd:	48 8d 85 f0 ff df ff 	lea    -0x200010(%rbp),%rax
    59d4:	48 89 c7             	mov    %rax,%rdi
    59d7:	e8 98 5f 00 00       	callq  b974 <_ZN4Heap3popEv>
    59dc:	48 8d 85 30 ed df ff 	lea    -0x2012d0(%rbp),%rax
    59e3:	48 8d 50 0c          	lea    0xc(%rax),%rdx
    59e7:	48 8d 85 f0 ff df ff 	lea    -0x200010(%rbp),%rax
    59ee:	48 89 d6             	mov    %rdx,%rsi
    59f1:	48 89 c7             	mov    %rax,%rdi
    59f4:	e8 45 5e 00 00       	callq  b83e <_ZN4Heap4pushEP4Grid>
    59f9:	48 8d 85 f0 ff df ff 	lea    -0x200010(%rbp),%rax
    5a00:	48 89 c7             	mov    %rax,%rdi
    5a03:	e8 6c 5f 00 00       	callq  b974 <_ZN4Heap3popEv>
    5a08:	48 8d 85 30 ed df ff 	lea    -0x2012d0(%rbp),%rax
    5a0f:	48 8d 50 0c          	lea    0xc(%rax),%rdx
    5a13:	48 8d 85 f0 ff df ff 	lea    -0x200010(%rbp),%rax
    5a1a:	48 89 d6             	mov    %rdx,%rsi
    5a1d:	48 89 c7             	mov    %rax,%rdi
    5a20:	e8 19 5e 00 00       	callq  b83e <_ZN4Heap4pushEP4Grid>
    5a25:	48 8d 85 f0 ff df ff 	lea    -0x200010(%rbp),%rax
    5a2c:	48 89 c7             	mov    %rax,%rdi
    5a2f:	e8 40 5f 00 00       	callq  b974 <_ZN4Heap3popEv>
    5a34:	48 8d 85 30 ed df ff 	lea    -0x2012d0(%rbp),%rax
    5a3b:	48 8d 50 0c          	lea    0xc(%rax),%rdx
    5a3f:	48 8d 85 f0 ff df ff 	lea    -0x200010(%rbp),%rax
    5a46:	48 89 d6             	mov    %rdx,%rsi
    5a49:	48 89 c7             	mov    %rax,%rdi
    5a4c:	e8 ed 5d 00 00       	callq  b83e <_ZN4Heap4pushEP4Grid>
    5a51:	48 8d 85 f0 ff df ff 	lea    -0x200010(%rbp),%rax
    5a58:	48 89 c7             	mov    %rax,%rdi
    5a5b:	e8 14 5f 00 00       	callq  b974 <_ZN4Heap3popEv>
    5a60:	48 8d 85 30 ed df ff 	lea    -0x2012d0(%rbp),%rax
    5a67:	48 8d 50 0c          	lea    0xc(%rax),%rdx
    5a6b:	48 8d 85 f0 ff df ff 	lea    -0x200010(%rbp),%rax
    5a72:	48 89 d6             	mov    %rdx,%rsi
    5a75:	48 89 c7             	mov    %rax,%rdi
    5a78:	e8 c1 5d 00 00       	callq  b83e <_ZN4Heap4pushEP4Grid>
    5a7d:	48 8d 85 f0 ff df ff 	lea    -0x200010(%rbp),%rax
    5a84:	48 89 c7             	mov    %rax,%rdi
    5a87:	e8 e8 5e 00 00       	callq  b974 <_ZN4Heap3popEv>
    5a8c:	48 8d 85 30 ed df ff 	lea    -0x2012d0(%rbp),%rax
    5a93:	48 8d 50 0c          	lea    0xc(%rax),%rdx
    5a97:	48 8d 85 f0 ff df ff 	lea    -0x200010(%rbp),%rax
    5a9e:	48 89 d6             	mov    %rdx,%rsi
    5aa1:	48 89 c7             	mov    %rax,%rdi
    5aa4:	e8 95 5d 00 00       	callq  b83e <_ZN4Heap4pushEP4Grid>
    5aa9:	48 8d 85 f0 ff df ff 	lea    -0x200010(%rbp),%rax
    5ab0:	48 89 c7             	mov    %rax,%rdi
    5ab3:	e8 bc 5e 00 00       	callq  b974 <_ZN4Heap3popEv>
    5ab8:	48 8d 85 30 ed df ff 	lea    -0x2012d0(%rbp),%rax
    5abf:	48 8d 50 0c          	lea    0xc(%rax),%rdx
    5ac3:	48 8d 85 f0 ff df ff 	lea    -0x200010(%rbp),%rax
    5aca:	48 89 d6             	mov    %rdx,%rsi
    5acd:	48 89 c7             	mov    %rax,%rdi
    5ad0:	e8 69 5d 00 00       	callq  b83e <_ZN4Heap4pushEP4Grid>
    5ad5:	48 8d 85 f0 ff df ff 	lea    -0x200010(%rbp),%rax
    5adc:	48 89 c7             	mov    %rax,%rdi
    5adf:	e8 90 5e 00 00       	callq  b974 <_ZN4Heap3popEv>
    5ae4:	48 8d 85 30 ed df ff 	lea    -0x2012d0(%rbp),%rax
    5aeb:	48 8d 50 0c          	lea    0xc(%rax),%rdx
    5aef:	48 8d 85 f0 ff df ff 	lea    -0x200010(%rbp),%rax
    5af6:	48 89 d6             	mov    %rdx,%rsi
    5af9:	48 89 c7             	mov    %rax,%rdi
    5afc:	e8 3d 5d 00 00       	callq  b83e <_ZN4Heap4pushEP4Grid>
    5b01:	48 8d 85 f0 ff df ff 	lea    -0x200010(%rbp),%rax
    5b08:	48 89 c7             	mov    %rax,%rdi
    5b0b:	e8 64 5e 00 00       	callq  b974 <_ZN4Heap3popEv>
    5b10:	48 8d 85 30 ed df ff 	lea    -0x2012d0(%rbp),%rax
    5b17:	48 8d 50 0c          	lea    0xc(%rax),%rdx
    5b1b:	48 8d 85 f0 ff df ff 	lea    -0x200010(%rbp),%rax
    5b22:	48 89 d6             	mov    %rdx,%rsi
    5b25:	48 89 c7             	mov    %rax,%rdi
    5b28:	e8 11 5d 00 00       	callq  b83e <_ZN4Heap4pushEP4Grid>
    5b2d:	48 8d 85 f0 ff df ff 	lea    -0x200010(%rbp),%rax
    5b34:	48 89 c7             	mov    %rax,%rdi
    5b37:	e8 38 5e 00 00       	callq  b974 <_ZN4Heap3popEv>
    5b3c:	48 8d 85 30 ed df ff 	lea    -0x2012d0(%rbp),%rax
    5b43:	48 8d 50 0c          	lea    0xc(%rax),%rdx
    5b47:	48 8d 85 f0 ff df ff 	lea    -0x200010(%rbp),%rax
    5b4e:	48 89 d6             	mov    %rdx,%rsi
    5b51:	48 89 c7             	mov    %rax,%rdi
    5b54:	e8 e5 5c 00 00       	callq  b83e <_ZN4Heap4pushEP4Grid>
    5b59:	48 8d 85 f0 ff df ff 	lea    -0x200010(%rbp),%rax
    5b60:	48 89 c7             	mov    %rax,%rdi
    5b63:	e8 0c 5e 00 00       	callq  b974 <_ZN4Heap3popEv>
    5b68:	48 8d 85 30 ed df ff 	lea    -0x2012d0(%rbp),%rax
    5b6f:	48 8d 50 0c          	lea    0xc(%rax),%rdx
    5b73:	48 8d 85 f0 ff df ff 	lea    -0x200010(%rbp),%rax
    5b7a:	48 89 d6             	mov    %rdx,%rsi
    5b7d:	48 89 c7             	mov    %rax,%rdi
    5b80:	e8 b9 5c 00 00       	callq  b83e <_ZN4Heap4pushEP4Grid>
    5b85:	48 8d 85 f0 ff df ff 	lea    -0x200010(%rbp),%rax
    5b8c:	48 89 c7             	mov    %rax,%rdi
    5b8f:	e8 e0 5d 00 00       	callq  b974 <_ZN4Heap3popEv>
    5b94:	48 8d 85 30 ed df ff 	lea    -0x2012d0(%rbp),%rax
    5b9b:	48 8d 50 0c          	lea    0xc(%rax),%rdx
    5b9f:	48 8d 85 f0 ff df ff 	lea    -0x200010(%rbp),%rax
    5ba6:	48 89 d6             	mov    %rdx,%rsi
    5ba9:	48 89 c7             	mov    %rax,%rdi
    5bac:	e8 8d 5c 00 00       	callq  b83e <_ZN4Heap4pushEP4Grid>
    5bb1:	48 8d 85 f0 ff df ff 	lea    -0x200010(%rbp),%rax
    5bb8:	48 89 c7             	mov    %rax,%rdi
    5bbb:	e8 b4 5d 00 00       	callq  b974 <_ZN4Heap3popEv>
