
bm:     file format elf64-x86-64


Disassembly of section .init:

0000000000000870 <_init>:
 870:	48 83 ec 08          	sub    $0x8,%rsp
 874:	48 8d 05 e5 00 00 00 	lea    0xe5(%rip),%rax        # 960 <__gmon_start__>
 87b:	48 85 c0             	test   %rax,%rax
 87e:	74 02                	je     882 <_init+0x12>
 880:	ff d0                	callq  *%rax
 882:	48 83 c4 08          	add    $0x8,%rsp
 886:	c3                   	retq   

Disassembly of section .plt:

0000000000000890 <.plt>:
 890:	ff 35 e2 c6 20 00    	pushq  0x20c6e2(%rip)        # 20cf78 <_GLOBAL_OFFSET_TABLE_+0x8>
 896:	ff 25 e4 c6 20 00    	jmpq   *0x20c6e4(%rip)        # 20cf80 <_GLOBAL_OFFSET_TABLE_+0x10>
 89c:	0f 1f 40 00          	nopl   0x0(%rax)

00000000000008a0 <__cxa_atexit@plt>:
 8a0:	ff 25 e2 c6 20 00    	jmpq   *0x20c6e2(%rip)        # 20cf88 <__cxa_atexit@GLIBC_2.2.5>
 8a6:	68 00 00 00 00       	pushq  $0x0
 8ab:	e9 e0 ff ff ff       	jmpq   890 <.plt>

00000000000008b0 <_ZNSolsEy@plt>:
 8b0:	ff 25 da c6 20 00    	jmpq   *0x20c6da(%rip)        # 20cf90 <_ZNSolsEy@GLIBCXX_3.4>
 8b6:	68 01 00 00 00       	pushq  $0x1
 8bb:	e9 d0 ff ff ff       	jmpq   890 <.plt>

00000000000008c0 <_ZStlsISt11char_traitsIcEERSt13basic_ostreamIcT_ES5_PKc@plt>:
 8c0:	ff 25 d2 c6 20 00    	jmpq   *0x20c6d2(%rip)        # 20cf98 <_ZStlsISt11char_traitsIcEERSt13basic_ostreamIcT_ES5_PKc@GLIBCXX_3.4>
 8c6:	68 02 00 00 00       	pushq  $0x2
 8cb:	e9 c0 ff ff ff       	jmpq   890 <.plt>

00000000000008d0 <__monstartup@plt>:
 8d0:	ff 25 ca c6 20 00    	jmpq   *0x20c6ca(%rip)        # 20cfa0 <__monstartup@GLIBC_2.2.5>
 8d6:	68 03 00 00 00       	pushq  $0x3
 8db:	e9 b0 ff ff ff       	jmpq   890 <.plt>

00000000000008e0 <_ZNSolsEPFRSoS_E@plt>:
 8e0:	ff 25 c2 c6 20 00    	jmpq   *0x20c6c2(%rip)        # 20cfa8 <_ZNSolsEPFRSoS_E@GLIBCXX_3.4>
 8e6:	68 04 00 00 00       	pushq  $0x4
 8eb:	e9 a0 ff ff ff       	jmpq   890 <.plt>

00000000000008f0 <__stack_chk_fail@plt>:
 8f0:	ff 25 ba c6 20 00    	jmpq   *0x20c6ba(%rip)        # 20cfb0 <__stack_chk_fail@GLIBC_2.4>
 8f6:	68 05 00 00 00       	pushq  $0x5
 8fb:	e9 90 ff ff ff       	jmpq   890 <.plt>

0000000000000900 <_ZNSt8ios_base4InitC1Ev@plt>:
 900:	ff 25 b2 c6 20 00    	jmpq   *0x20c6b2(%rip)        # 20cfb8 <_ZNSt8ios_base4InitC1Ev@GLIBCXX_3.4>
 906:	68 06 00 00 00       	pushq  $0x6
 90b:	e9 80 ff ff ff       	jmpq   890 <.plt>

0000000000000910 <_ZNSolsEi@plt>:
 910:	ff 25 aa c6 20 00    	jmpq   *0x20c6aa(%rip)        # 20cfc0 <_ZNSolsEi@GLIBCXX_3.4>
 916:	68 07 00 00 00       	pushq  $0x7
 91b:	e9 70 ff ff ff       	jmpq   890 <.plt>

Disassembly of section .plt.got:

0000000000000920 <__cxa_finalize@plt>:
 920:	ff 25 a2 c6 20 00    	jmpq   *0x20c6a2(%rip)        # 20cfc8 <__cxa_finalize@GLIBC_2.2.5>
 926:	66 90                	xchg   %ax,%ax

Disassembly of section .text:

0000000000000930 <_start>:
     930:	31 ed                	xor    %ebp,%ebp
     932:	49 89 d1             	mov    %rdx,%r9
     935:	5e                   	pop    %rsi
     936:	48 89 e2             	mov    %rsp,%rdx
     939:	48 83 e4 f0          	and    $0xfffffffffffffff0,%rsp
     93d:	50                   	push   %rax
     93e:	54                   	push   %rsp
     93f:	4c 8d 05 ba b3 00 00 	lea    0xb3ba(%rip),%r8        # bd00 <__libc_csu_fini>
     946:	48 8d 0d 43 b3 00 00 	lea    0xb343(%rip),%rcx        # bc90 <__libc_csu_init>
     94d:	48 8d 3d 8a 01 00 00 	lea    0x18a(%rip),%rdi        # ade <main>
     954:	ff 15 8e c6 20 00    	callq  *0x20c68e(%rip)        # 20cfe8 <__libc_start_main@GLIBC_2.2.5>
     95a:	f4                   	hlt    
     95b:	0f 1f 44 00 00       	nopl   0x0(%rax,%rax,1)

0000000000000960 <__gmon_start__>:
     960:	8b 05 ca c7 20 00    	mov    0x20c7ca(%rip),%eax        # 20d130 <called.4604>
     966:	85 c0                	test   %eax,%eax
     968:	74 06                	je     970 <__gmon_start__+0x10>
     96a:	f3 c3                	repz retq 
     96c:	0f 1f 40 00          	nopl   0x0(%rax)
     970:	48 83 ec 08          	sub    $0x8,%rsp
     974:	48 8d 3d b5 ff ff ff 	lea    -0x4b(%rip),%rdi        # 930 <_start>
     97b:	48 8d 35 a7 b3 00 00 	lea    0xb3a7(%rip),%rsi        # bd29 <etext>
     982:	c7 05 a4 c7 20 00 01 	movl   $0x1,0x20c7a4(%rip)        # 20d130 <called.4604>
     989:	00 00 00 
     98c:	e8 3f ff ff ff       	callq  8d0 <__monstartup@plt>
     991:	48 8b 3d 40 c6 20 00 	mov    0x20c640(%rip),%rdi        # 20cfd8 <_mcleanup@GLIBC_2.2.5>
     998:	48 83 c4 08          	add    $0x8,%rsp
     99c:	e9 6f b3 00 00       	jmpq   bd10 <atexit>
     9a1:	66 2e 0f 1f 84 00 00 	nopw   %cs:0x0(%rax,%rax,1)
     9a8:	00 00 00 
     9ab:	0f 1f 44 00 00       	nopl   0x0(%rax,%rax,1)

00000000000009b0 <_dl_relocate_static_pie>:
     9b0:	f3 c3                	repz retq 
     9b2:	66 2e 0f 1f 84 00 00 	nopw   %cs:0x0(%rax,%rax,1)
     9b9:	00 00 00 
     9bc:	0f 1f 40 00          	nopl   0x0(%rax)

00000000000009c0 <deregister_tm_clones>:
     9c0:	48 8d 3d 49 c6 20 00 	lea    0x20c649(%rip),%rdi        # 20d010 <__TMC_END__>
     9c7:	55                   	push   %rbp
     9c8:	48 8d 05 41 c6 20 00 	lea    0x20c641(%rip),%rax        # 20d010 <__TMC_END__>
     9cf:	48 39 f8             	cmp    %rdi,%rax
     9d2:	48 89 e5             	mov    %rsp,%rbp
     9d5:	74 19                	je     9f0 <deregister_tm_clones+0x30>
     9d7:	48 8b 05 02 c6 20 00 	mov    0x20c602(%rip),%rax        # 20cfe0 <_ITM_deregisterTMCloneTable>
     9de:	48 85 c0             	test   %rax,%rax
     9e1:	74 0d                	je     9f0 <deregister_tm_clones+0x30>
     9e3:	5d                   	pop    %rbp
     9e4:	ff e0                	jmpq   *%rax
     9e6:	66 2e 0f 1f 84 00 00 	nopw   %cs:0x0(%rax,%rax,1)
     9ed:	00 00 00 
     9f0:	5d                   	pop    %rbp
     9f1:	c3                   	retq   
     9f2:	0f 1f 40 00          	nopl   0x0(%rax)
     9f6:	66 2e 0f 1f 84 00 00 	nopw   %cs:0x0(%rax,%rax,1)
     9fd:	00 00 00 

0000000000000a00 <register_tm_clones>:
     a00:	48 8d 3d 09 c6 20 00 	lea    0x20c609(%rip),%rdi        # 20d010 <__TMC_END__>
     a07:	48 8d 35 02 c6 20 00 	lea    0x20c602(%rip),%rsi        # 20d010 <__TMC_END__>
     a0e:	55                   	push   %rbp
     a0f:	48 29 fe             	sub    %rdi,%rsi
     a12:	48 89 e5             	mov    %rsp,%rbp
     a15:	48 c1 fe 03          	sar    $0x3,%rsi
     a19:	48 89 f0             	mov    %rsi,%rax
     a1c:	48 c1 e8 3f          	shr    $0x3f,%rax
     a20:	48 01 c6             	add    %rax,%rsi
     a23:	48 d1 fe             	sar    %rsi
     a26:	74 18                	je     a40 <register_tm_clones+0x40>
     a28:	48 8b 05 c1 c5 20 00 	mov    0x20c5c1(%rip),%rax        # 20cff0 <_ITM_registerTMCloneTable>
     a2f:	48 85 c0             	test   %rax,%rax
     a32:	74 0c                	je     a40 <register_tm_clones+0x40>
     a34:	5d                   	pop    %rbp
     a35:	ff e0                	jmpq   *%rax
     a37:	66 0f 1f 84 00 00 00 	nopw   0x0(%rax,%rax,1)
     a3e:	00 00 
     a40:	5d                   	pop    %rbp
     a41:	c3                   	retq   
     a42:	0f 1f 40 00          	nopl   0x0(%rax)
     a46:	66 2e 0f 1f 84 00 00 	nopw   %cs:0x0(%rax,%rax,1)
     a4d:	00 00 00 

0000000000000a50 <__do_global_dtors_aux>:
     a50:	80 3d dd c6 20 00 00 	cmpb   $0x0,0x20c6dd(%rip)        # 20d134 <completed.7696>
     a57:	75 2f                	jne    a88 <__do_global_dtors_aux+0x38>
     a59:	48 83 3d 67 c5 20 00 	cmpq   $0x0,0x20c567(%rip)        # 20cfc8 <__cxa_finalize@GLIBC_2.2.5>
     a60:	00 
     a61:	55                   	push   %rbp
     a62:	48 89 e5             	mov    %rsp,%rbp
     a65:	74 0c                	je     a73 <__do_global_dtors_aux+0x23>
     a67:	48 8b 3d 9a c5 20 00 	mov    0x20c59a(%rip),%rdi        # 20d008 <__dso_handle>
     a6e:	e8 ad fe ff ff       	callq  920 <__cxa_finalize@plt>
     a73:	e8 48 ff ff ff       	callq  9c0 <deregister_tm_clones>
     a78:	c6 05 b5 c6 20 00 01 	movb   $0x1,0x20c6b5(%rip)        # 20d134 <completed.7696>
     a7f:	5d                   	pop    %rbp
     a80:	c3                   	retq   
     a81:	0f 1f 80 00 00 00 00 	nopl   0x0(%rax)
     a88:	f3 c3                	repz retq 
     a8a:	66 0f 1f 44 00 00    	nopw   0x0(%rax,%rax,1)

0000000000000a90 <frame_dummy>:
     a90:	55                   	push   %rbp
     a91:	48 89 e5             	mov    %rsp,%rbp
     a94:	5d                   	pop    %rbp
     a95:	e9 66 ff ff ff       	jmpq   a00 <register_tm_clones>

0000000000000a9a <_Z10init_gridsP4Grid>:
     a9a:	55                   	push   %rbp
     a9b:	48 89 e5             	mov    %rsp,%rbp
     a9e:	48 89 7d e8          	mov    %rdi,-0x18(%rbp)
     aa2:	c7 45 fc 00 00 00 00 	movl   $0x0,-0x4(%rbp)
     aa9:	81 7d fc 8f 01 00 00 	cmpl   $0x18f,-0x4(%rbp)
     ab0:	7f 29                	jg     adb <_Z10init_gridsP4Grid+0x41>
     ab2:	8b 45 fc             	mov    -0x4(%rbp),%eax
     ab5:	48 63 d0             	movslq %eax,%rdx
     ab8:	48 89 d0             	mov    %rdx,%rax
     abb:	48 01 c0             	add    %rax,%rax
     abe:	48 01 d0             	add    %rdx,%rax
     ac1:	48 c1 e0 02          	shl    $0x2,%rax
     ac5:	48 89 c2             	mov    %rax,%rdx
     ac8:	48 8b 45 e8          	mov    -0x18(%rbp),%rax
     acc:	48 01 c2             	add    %rax,%rdx
     acf:	8b 45 fc             	mov    -0x4(%rbp),%eax
     ad2:	89 42 04             	mov    %eax,0x4(%rdx)
     ad5:	83 45 fc 01          	addl   $0x1,-0x4(%rbp)
     ad9:	eb ce                	jmp    aa9 <_Z10init_gridsP4Grid+0xf>
     adb:	90                   	nop
     adc:	5d                   	pop    %rbp
     add:	c3                   	retq   

0000000000000ade <main>:
     ade:	55                   	push   %rbp
     adf:	48 89 e5             	mov    %rsp,%rbp
     ae2:	48 81 ec f0 12 20 00 	sub    $0x2012f0,%rsp
     ae9:	64 48 8b 04 25 28 00 	mov    %fs:0x28,%rax
     af0:	00 00 
     af2:	48 89 45 f8          	mov    %rax,-0x8(%rbp)
     af6:	31 c0                	xor    %eax,%eax
     af8:	48 8d 85 f0 ff df ff 	lea    -0x200010(%rbp),%rax
     aff:	48 89 c7             	mov    %rax,%rdi
     b02:	e8 e7 ad 00 00       	callq  b8ee <_ZN4HeapC1Ev>
     b07:	48 8d 85 30 ed df ff 	lea    -0x2012d0(%rbp),%rax
     b0e:	48 89 c7             	mov    %rax,%rdi
     b11:	e8 84 ff ff ff       	callq  a9a <_Z10init_gridsP4Grid>
     b16:	c7 85 1c ed df ff 02 	movl   $0x2,-0x2012e4(%rbp)
     b1d:	00 00 00 
     b20:	81 bd 1c ed df ff 90 	cmpl   $0x190,-0x2012e4(%rbp)
     b27:	01 00 00 
     b2a:	7f 3c                	jg     b68 <main+0x8a>
     b2c:	48 8d 8d 30 ed df ff 	lea    -0x2012d0(%rbp),%rcx
     b33:	8b 85 1c ed df ff    	mov    -0x2012e4(%rbp),%eax
     b39:	48 63 d0             	movslq %eax,%rdx
     b3c:	48 89 d0             	mov    %rdx,%rax
     b3f:	48 01 c0             	add    %rax,%rax
     b42:	48 01 d0             	add    %rdx,%rax
     b45:	48 c1 e0 02          	shl    $0x2,%rax
     b49:	48 8d 14 01          	lea    (%rcx,%rax,1),%rdx
     b4d:	48 8d 85 f0 ff df ff 	lea    -0x200010(%rbp),%rax
     b54:	48 89 d6             	mov    %rdx,%rsi
     b57:	48 89 c7             	mov    %rax,%rdi
     b5a:	e8 cb ad 00 00       	callq  b92a <_ZN4Heap4pushEP4Grid>
     b5f:	83 85 1c ed df ff 01 	addl   $0x1,-0x2012e4(%rbp)
     b66:	eb b8                	jmp    b20 <main+0x42>
     b68:	e8 fd b0 00 00       	callq  bc6a <_Z5rdtscv>
     b6d:	48 89 85 20 ed df ff 	mov    %rax,-0x2012e0(%rbp)
     b74:	48 8d 85 30 ed df ff 	lea    -0x2012d0(%rbp),%rax
     b7b:	48 8d 50 0c          	lea    0xc(%rax),%rdx
     b7f:	48 8d 85 f0 ff df ff 	lea    -0x200010(%rbp),%rax
     b86:	48 89 d6             	mov    %rdx,%rsi
     b89:	48 89 c7             	mov    %rax,%rdi
     b8c:	e8 99 ad 00 00       	callq  b92a <_ZN4Heap4pushEP4Grid>
     b91:	48 8d 85 f0 ff df ff 	lea    -0x200010(%rbp),%rax
     b98:	48 89 c7             	mov    %rax,%rdi
     b9b:	e8 e2 ae 00 00       	callq  ba82 <_ZN4Heap3popEv>
     ba0:	48 8d 85 30 ed df ff 	lea    -0x2012d0(%rbp),%rax
     ba7:	48 8d 50 0c          	lea    0xc(%rax),%rdx
     bab:	48 8d 85 f0 ff df ff 	lea    -0x200010(%rbp),%rax
     bb2:	48 89 d6             	mov    %rdx,%rsi
     bb5:	48 89 c7             	mov    %rax,%rdi
     bb8:	e8 6d ad 00 00       	callq  b92a <_ZN4Heap4pushEP4Grid>
     bbd:	48 8d 85 f0 ff df ff 	lea    -0x200010(%rbp),%rax
     bc4:	48 89 c7             	mov    %rax,%rdi
     bc7:	e8 b6 ae 00 00       	callq  ba82 <_ZN4Heap3popEv>
     bcc:	48 8d 85 30 ed df ff 	lea    -0x2012d0(%rbp),%rax
     bd3:	48 8d 50 0c          	lea    0xc(%rax),%rdx
     bd7:	48 8d 85 f0 ff df ff 	lea    -0x200010(%rbp),%rax
     bde:	48 89 d6             	mov    %rdx,%rsi
     be1:	48 89 c7             	mov    %rax,%rdi
     be4:	e8 41 ad 00 00       	callq  b92a <_ZN4Heap4pushEP4Grid>
     be9:	48 8d 85 f0 ff df ff 	lea    -0x200010(%rbp),%rax
     bf0:	48 89 c7             	mov    %rax,%rdi
     bf3:	e8 8a ae 00 00       	callq  ba82 <_ZN4Heap3popEv>
     bf8:	48 8d 85 30 ed df ff 	lea    -0x2012d0(%rbp),%rax
     bff:	48 8d 50 0c          	lea    0xc(%rax),%rdx
     c03:	48 8d 85 f0 ff df ff 	lea    -0x200010(%rbp),%rax
     c0a:	48 89 d6             	mov    %rdx,%rsi
     c0d:	48 89 c7             	mov    %rax,%rdi
     c10:	e8 15 ad 00 00       	callq  b92a <_ZN4Heap4pushEP4Grid>
     c15:	48 8d 85 f0 ff df ff 	lea    -0x200010(%rbp),%rax
     c1c:	48 89 c7             	mov    %rax,%rdi
     c1f:	e8 5e ae 00 00       	callq  ba82 <_ZN4Heap3popEv>
     c24:	48 8d 85 30 ed df ff 	lea    -0x2012d0(%rbp),%rax
     c2b:	48 8d 50 0c          	lea    0xc(%rax),%rdx
     c2f:	48 8d 85 f0 ff df ff 	lea    -0x200010(%rbp),%rax
     c36:	48 89 d6             	mov    %rdx,%rsi
     c39:	48 89 c7             	mov    %rax,%rdi
     c3c:	e8 e9 ac 00 00       	callq  b92a <_ZN4Heap4pushEP4Grid>
     c41:	48 8d 85 f0 ff df ff 	lea    -0x200010(%rbp),%rax
     c48:	48 89 c7             	mov    %rax,%rdi
     c4b:	e8 32 ae 00 00       	callq  ba82 <_ZN4Heap3popEv>
     c50:	48 8d 85 30 ed df ff 	lea    -0x2012d0(%rbp),%rax
     c57:	48 8d 50 0c          	lea    0xc(%rax),%rdx
     c5b:	48 8d 85 f0 ff df ff 	lea    -0x200010(%rbp),%rax
     c62:	48 89 d6             	mov    %rdx,%rsi
     c65:	48 89 c7             	mov    %rax,%rdi
     c68:	e8 bd ac 00 00       	callq  b92a <_ZN4Heap4pushEP4Grid>
     c6d:	48 8d 85 f0 ff df ff 	lea    -0x200010(%rbp),%rax
     c74:	48 89 c7             	mov    %rax,%rdi
     c77:	e8 06 ae 00 00       	callq  ba82 <_ZN4Heap3popEv>
     c7c:	48 8d 85 30 ed df ff 	lea    -0x2012d0(%rbp),%rax
     c83:	48 8d 50 0c          	lea    0xc(%rax),%rdx
     c87:	48 8d 85 f0 ff df ff 	lea    -0x200010(%rbp),%rax
     c8e:	48 89 d6             	mov    %rdx,%rsi
     c91:	48 89 c7             	mov    %rax,%rdi
     c94:	e8 91 ac 00 00       	callq  b92a <_ZN4Heap4pushEP4Grid>
     c99:	48 8d 85 f0 ff df ff 	lea    -0x200010(%rbp),%rax
     ca0:	48 89 c7             	mov    %rax,%rdi
     ca3:	e8 da ad 00 00       	callq  ba82 <_ZN4Heap3popEv>
     ca8:	48 8d 85 30 ed df ff 	lea    -0x2012d0(%rbp),%rax
     caf:	48 8d 50 0c          	lea    0xc(%rax),%rdx
     cb3:	48 8d 85 f0 ff df ff 	lea    -0x200010(%rbp),%rax
     cba:	48 89 d6             	mov    %rdx,%rsi
     cbd:	48 89 c7             	mov    %rax,%rdi
     cc0:	e8 65 ac 00 00       	callq  b92a <_ZN4Heap4pushEP4Grid>
     cc5:	48 8d 85 f0 ff df ff 	lea    -0x200010(%rbp),%rax
     ccc:	48 89 c7             	mov    %rax,%rdi
     ccf:	e8 ae ad 00 00       	callq  ba82 <_ZN4Heap3popEv>
     cd4:	48 8d 85 30 ed df ff 	lea    -0x2012d0(%rbp),%rax
     cdb:	48 8d 50 0c          	lea    0xc(%rax),%rdx
     cdf:	48 8d 85 f0 ff df ff 	lea    -0x200010(%rbp),%rax
     ce6:	48 89 d6             	mov    %rdx,%rsi
     ce9:	48 89 c7             	mov    %rax,%rdi
     cec:	e8 39 ac 00 00       	callq  b92a <_ZN4Heap4pushEP4Grid>
     cf1:	48 8d 85 f0 ff df ff 	lea    -0x200010(%rbp),%rax
     cf8:	48 89 c7             	mov    %rax,%rdi
     cfb:	e8 82 ad 00 00       	callq  ba82 <_ZN4Heap3popEv>
     d00:	48 8d 85 30 ed df ff 	lea    -0x2012d0(%rbp),%rax
     d07:	48 8d 50 0c          	lea    0xc(%rax),%rdx
     d0b:	48 8d 85 f0 ff df ff 	lea    -0x200010(%rbp),%rax
     d12:	48 89 d6             	mov    %rdx,%rsi
     d15:	48 89 c7             	mov    %rax,%rdi
     d18:	e8 0d ac 00 00       	callq  b92a <_ZN4Heap4pushEP4Grid>
     d1d:	48 8d 85 f0 ff df ff 	lea    -0x200010(%rbp),%rax
     d24:	48 89 c7             	mov    %rax,%rdi
     d27:	e8 56 ad 00 00       	callq  ba82 <_ZN4Heap3popEv>
     d2c:	48 8d 85 30 ed df ff 	lea    -0x2012d0(%rbp),%rax
     d33:	48 8d 50 0c          	lea    0xc(%rax),%rdx
     d37:	48 8d 85 f0 ff df ff 	lea    -0x200010(%rbp),%rax
     d3e:	48 89 d6             	mov    %rdx,%rsi
     d41:	48 89 c7             	mov    %rax,%rdi
     d44:	e8 e1 ab 00 00       	callq  b92a <_ZN4Heap4pushEP4Grid>
     d49:	48 8d 85 f0 ff df ff 	lea    -0x200010(%rbp),%rax
     d50:	48 89 c7             	mov    %rax,%rdi
     d53:	e8 2a ad 00 00       	callq  ba82 <_ZN4Heap3popEv>
     d58:	48 8d 85 30 ed df ff 	lea    -0x2012d0(%rbp),%rax
     d5f:	48 8d 50 0c          	lea    0xc(%rax),%rdx
     d63:	48 8d 85 f0 ff df ff 	lea    -0x200010(%rbp),%rax
     d6a:	48 89 d6             	mov    %rdx,%rsi
     d6d:	48 89 c7             	mov    %rax,%rdi
     d70:	e8 b5 ab 00 00       	callq  b92a <_ZN4Heap4pushEP4Grid>
     d75:	48 8d 85 f0 ff df ff 	lea    -0x200010(%rbp),%rax
     d7c:	48 89 c7             	mov    %rax,%rdi
     d7f:	e8 fe ac 00 00       	callq  ba82 <_ZN4Heap3popEv>
     d84:	48 8d 85 30 ed df ff 	lea    -0x2012d0(%rbp),%rax
     d8b:	48 8d 50 0c          	lea    0xc(%rax),%rdx
     d8f:	48 8d 85 f0 ff df ff 	lea    -0x200010(%rbp),%rax
     d96:	48 89 d6             	mov    %rdx,%rsi
     d99:	48 89 c7             	mov    %rax,%rdi
     d9c:	e8 89 ab 00 00       	callq  b92a <_ZN4Heap4pushEP4Grid>
     da1:	48 8d 85 f0 ff df ff 	lea    -0x200010(%rbp),%rax
     da8:	48 89 c7             	mov    %rax,%rdi
     dab:	e8 d2 ac 00 00       	callq  ba82 <_ZN4Heap3popEv>
     db0:	48 8d 85 30 ed df ff 	lea    -0x2012d0(%rbp),%rax
     db7:	48 8d 50 0c          	lea    0xc(%rax),%rdx
     dbb:	48 8d 85 f0 ff df ff 	lea    -0x200010(%rbp),%rax
     dc2:	48 89 d6             	mov    %rdx,%rsi
     dc5:	48 89 c7             	mov    %rax,%rdi
     dc8:	e8 5d ab 00 00       	callq  b92a <_ZN4Heap4pushEP4Grid>
     dcd:	48 8d 85 f0 ff df ff 	lea    -0x200010(%rbp),%rax
     dd4:	48 89 c7             	mov    %rax,%rdi
     dd7:	e8 a6 ac 00 00       	callq  ba82 <_ZN4Heap3popEv>
     ddc:	48 8d 85 30 ed df ff 	lea    -0x2012d0(%rbp),%rax
     de3:	48 8d 50 0c          	lea    0xc(%rax),%rdx
     de7:	48 8d 85 f0 ff df ff 	lea    -0x200010(%rbp),%rax
     dee:	48 89 d6             	mov    %rdx,%rsi
     df1:	48 89 c7             	mov    %rax,%rdi
     df4:	e8 31 ab 00 00       	callq  b92a <_ZN4Heap4pushEP4Grid>
     df9:	48 8d 85 f0 ff df ff 	lea    -0x200010(%rbp),%rax
     e00:	48 89 c7             	mov    %rax,%rdi
     e03:	e8 7a ac 00 00       	callq  ba82 <_ZN4Heap3popEv>
     e08:	48 8d 85 30 ed df ff 	lea    -0x2012d0(%rbp),%rax
     e0f:	48 8d 50 0c          	lea    0xc(%rax),%rdx
     e13:	48 8d 85 f0 ff df ff 	lea    -0x200010(%rbp),%rax
     e1a:	48 89 d6             	mov    %rdx,%rsi
     e1d:	48 89 c7             	mov    %rax,%rdi
     e20:	e8 05 ab 00 00       	callq  b92a <_ZN4Heap4pushEP4Grid>
     e25:	48 8d 85 f0 ff df ff 	lea    -0x200010(%rbp),%rax
     e2c:	48 89 c7             	mov    %rax,%rdi
     e2f:	e8 4e ac 00 00       	callq  ba82 <_ZN4Heap3popEv>
     e34:	48 8d 85 30 ed df ff 	lea    -0x2012d0(%rbp),%rax
     e3b:	48 8d 50 0c          	lea    0xc(%rax),%rdx
     e3f:	48 8d 85 f0 ff df ff 	lea    -0x200010(%rbp),%rax
     e46:	48 89 d6             	mov    %rdx,%rsi
     e49:	48 89 c7             	mov    %rax,%rdi
     e4c:	e8 d9 aa 00 00       	callq  b92a <_ZN4Heap4pushEP4Grid>
     e51:	48 8d 85 f0 ff df ff 	lea    -0x200010(%rbp),%rax
     e58:	48 89 c7             	mov    %rax,%rdi
     e5b:	e8 22 ac 00 00       	callq  ba82 <_ZN4Heap3popEv>
     e60:	48 8d 85 30 ed df ff 	lea    -0x2012d0(%rbp),%rax
     e67:	48 8d 50 0c          	lea    0xc(%rax),%rdx
     e6b:	48 8d 85 f0 ff df ff 	lea    -0x200010(%rbp),%rax
     e72:	48 89 d6             	mov    %rdx,%rsi
     e75:	48 89 c7             	mov    %rax,%rdi
     e78:	e8 ad aa 00 00       	callq  b92a <_ZN4Heap4pushEP4Grid>
     e7d:	48 8d 85 f0 ff df ff 	lea    -0x200010(%rbp),%rax
     e84:	48 89 c7             	mov    %rax,%rdi
     e87:	e8 f6 ab 00 00       	callq  ba82 <_ZN4Heap3popEv>
     e8c:	48 8d 85 30 ed df ff 	lea    -0x2012d0(%rbp),%rax
     e93:	48 8d 50 0c          	lea    0xc(%rax),%rdx
     e97:	48 8d 85 f0 ff df ff 	lea    -0x200010(%rbp),%rax
     e9e:	48 89 d6             	mov    %rdx,%rsi
     ea1:	48 89 c7             	mov    %rax,%rdi
     ea4:	e8 81 aa 00 00       	callq  b92a <_ZN4Heap4pushEP4Grid>
     ea9:	48 8d 85 f0 ff df ff 	lea    -0x200010(%rbp),%rax
     eb0:	48 89 c7             	mov    %rax,%rdi
     eb3:	e8 ca ab 00 00       	callq  ba82 <_ZN4Heap3popEv>
     eb8:	48 8d 85 30 ed df ff 	lea    -0x2012d0(%rbp),%rax
     ebf:	48 8d 50 0c          	lea    0xc(%rax),%rdx
     ec3:	48 8d 85 f0 ff df ff 	lea    -0x200010(%rbp),%rax
     eca:	48 89 d6             	mov    %rdx,%rsi
     ecd:	48 89 c7             	mov    %rax,%rdi
     ed0:	e8 55 aa 00 00       	callq  b92a <_ZN4Heap4pushEP4Grid>
     ed5:	48 8d 85 f0 ff df ff 	lea    -0x200010(%rbp),%rax
     edc:	48 89 c7             	mov    %rax,%rdi
     edf:	e8 9e ab 00 00       	callq  ba82 <_ZN4Heap3popEv>
     ee4:	48 8d 85 30 ed df ff 	lea    -0x2012d0(%rbp),%rax
     eeb:	48 8d 50 0c          	lea    0xc(%rax),%rdx
     eef:	48 8d 85 f0 ff df ff 	lea    -0x200010(%rbp),%rax
     ef6:	48 89 d6             	mov    %rdx,%rsi
     ef9:	48 89 c7             	mov    %rax,%rdi
     efc:	e8 29 aa 00 00       	callq  b92a <_ZN4Heap4pushEP4Grid>
     f01:	48 8d 85 f0 ff df ff 	lea    -0x200010(%rbp),%rax
     f08:	48 89 c7             	mov    %rax,%rdi
     f0b:	e8 72 ab 00 00       	callq  ba82 <_ZN4Heap3popEv>
     f10:	48 8d 85 30 ed df ff 	lea    -0x2012d0(%rbp),%rax
     f17:	48 8d 50 0c          	lea    0xc(%rax),%rdx
     f1b:	48 8d 85 f0 ff df ff 	lea    -0x200010(%rbp),%rax
     f22:	48 89 d6             	mov    %rdx,%rsi
     f25:	48 89 c7             	mov    %rax,%rdi
     f28:	e8 fd a9 00 00       	callq  b92a <_ZN4Heap4pushEP4Grid>
     f2d:	48 8d 85 f0 ff df ff 	lea    -0x200010(%rbp),%rax
     f34:	48 89 c7             	mov    %rax,%rdi
     f37:	e8 46 ab 00 00       	callq  ba82 <_ZN4Heap3popEv>
     f3c:	48 8d 85 30 ed df ff 	lea    -0x2012d0(%rbp),%rax
     f43:	48 8d 50 0c          	lea    0xc(%rax),%rdx
     f47:	48 8d 85 f0 ff df ff 	lea    -0x200010(%rbp),%rax
     f4e:	48 89 d6             	mov    %rdx,%rsi
     f51:	48 89 c7             	mov    %rax,%rdi
     f54:	e8 d1 a9 00 00       	callq  b92a <_ZN4Heap4pushEP4Grid>
     f59:	48 8d 85 f0 ff df ff 	lea    -0x200010(%rbp),%rax
     f60:	48 89 c7             	mov    %rax,%rdi
     f63:	e8 1a ab 00 00       	callq  ba82 <_ZN4Heap3popEv>
     f68:	48 8d 85 30 ed df ff 	lea    -0x2012d0(%rbp),%rax
     f6f:	48 8d 50 0c          	lea    0xc(%rax),%rdx
     f73:	48 8d 85 f0 ff df ff 	lea    -0x200010(%rbp),%rax
     f7a:	48 89 d6             	mov    %rdx,%rsi
     f7d:	48 89 c7             	mov    %rax,%rdi
     f80:	e8 a5 a9 00 00       	callq  b92a <_ZN4Heap4pushEP4Grid>
     f85:	48 8d 85 f0 ff df ff 	lea    -0x200010(%rbp),%rax
     f8c:	48 89 c7             	mov    %rax,%rdi
     f8f:	e8 ee aa 00 00       	callq  ba82 <_ZN4Heap3popEv>
     f94:	48 8d 85 30 ed df ff 	lea    -0x2012d0(%rbp),%rax
     f9b:	48 8d 50 0c          	lea    0xc(%rax),%rdx
     f9f:	48 8d 85 f0 ff df ff 	lea    -0x200010(%rbp),%rax
     fa6:	48 89 d6             	mov    %rdx,%rsi
     fa9:	48 89 c7             	mov    %rax,%rdi
     fac:	e8 79 a9 00 00       	callq  b92a <_ZN4Heap4pushEP4Grid>
     fb1:	48 8d 85 f0 ff df ff 	lea    -0x200010(%rbp),%rax
     fb8:	48 89 c7             	mov    %rax,%rdi
     fbb:	e8 c2 aa 00 00       	callq  ba82 <_ZN4Heap3popEv>
     fc0:	48 8d 85 30 ed df ff 	lea    -0x2012d0(%rbp),%rax
     fc7:	48 8d 50 0c          	lea    0xc(%rax),%rdx
     fcb:	48 8d 85 f0 ff df ff 	lea    -0x200010(%rbp),%rax
     fd2:	48 89 d6             	mov    %rdx,%rsi
     fd5:	48 89 c7             	mov    %rax,%rdi
     fd8:	e8 4d a9 00 00       	callq  b92a <_ZN4Heap4pushEP4Grid>
     fdd:	48 8d 85 f0 ff df ff 	lea    -0x200010(%rbp),%rax
     fe4:	48 89 c7             	mov    %rax,%rdi
     fe7:	e8 96 aa 00 00       	callq  ba82 <_ZN4Heap3popEv>
     fec:	48 8d 85 30 ed df ff 	lea    -0x2012d0(%rbp),%rax
     ff3:	48 8d 50 0c          	lea    0xc(%rax),%rdx
     ff7:	48 8d 85 f0 ff df ff 	lea    -0x200010(%rbp),%rax
     ffe:	48 89 d6             	mov    %rdx,%rsi
    1001:	48 89 c7             	mov    %rax,%rdi
    1004:	e8 21 a9 00 00       	callq  b92a <_ZN4Heap4pushEP4Grid>
    1009:	48 8d 85 f0 ff df ff 	lea    -0x200010(%rbp),%rax
    1010:	48 89 c7             	mov    %rax,%rdi
    1013:	e8 6a aa 00 00       	callq  ba82 <_ZN4Heap3popEv>
    1018:	48 8d 85 30 ed df ff 	lea    -0x2012d0(%rbp),%rax
    101f:	48 8d 50 0c          	lea    0xc(%rax),%rdx
    1023:	48 8d 85 f0 ff df ff 	lea    -0x200010(%rbp),%rax
    102a:	48 89 d6             	mov    %rdx,%rsi
    102d:	48 89 c7             	mov    %rax,%rdi
    1030:	e8 f5 a8 00 00       	callq  b92a <_ZN4Heap4pushEP4Grid>
    1035:	48 8d 85 f0 ff df ff 	lea    -0x200010(%rbp),%rax
    103c:	48 89 c7             	mov    %rax,%rdi
    103f:	e8 3e aa 00 00       	callq  ba82 <_ZN4Heap3popEv>
    1044:	48 8d 85 30 ed df ff 	lea    -0x2012d0(%rbp),%rax
    104b:	48 8d 50 0c          	lea    0xc(%rax),%rdx
    104f:	48 8d 85 f0 ff df ff 	lea    -0x200010(%rbp),%rax
    1056:	48 89 d6             	mov    %rdx,%rsi
    1059:	48 89 c7             	mov    %rax,%rdi
    105c:	e8 c9 a8 00 00       	callq  b92a <_ZN4Heap4pushEP4Grid>
    1061:	48 8d 85 f0 ff df ff 	lea    -0x200010(%rbp),%rax
    1068:	48 89 c7             	mov    %rax,%rdi
    106b:	e8 12 aa 00 00       	callq  ba82 <_ZN4Heap3popEv>
    1070:	48 8d 85 30 ed df ff 	lea    -0x2012d0(%rbp),%rax
    1077:	48 8d 50 0c          	lea    0xc(%rax),%rdx
    107b:	48 8d 85 f0 ff df ff 	lea    -0x200010(%rbp),%rax
    1082:	48 89 d6             	mov    %rdx,%rsi
    1085:	48 89 c7             	mov    %rax,%rdi
    1088:	e8 9d a8 00 00       	callq  b92a <_ZN4Heap4pushEP4Grid>
    108d:	48 8d 85 f0 ff df ff 	lea    -0x200010(%rbp),%rax
    1094:	48 89 c7             	mov    %rax,%rdi
    1097:	e8 e6 a9 00 00       	callq  ba82 <_ZN4Heap3popEv>
    109c:	48 8d 85 30 ed df ff 	lea    -0x2012d0(%rbp),%rax
    10a3:	48 8d 50 0c          	lea    0xc(%rax),%rdx
    10a7:	48 8d 85 f0 ff df ff 	lea    -0x200010(%rbp),%rax
    10ae:	48 89 d6             	mov    %rdx,%rsi
    10b1:	48 89 c7             	mov    %rax,%rdi
    10b4:	e8 71 a8 00 00       	callq  b92a <_ZN4Heap4pushEP4Grid>
    10b9:	48 8d 85 f0 ff df ff 	lea    -0x200010(%rbp),%rax
    10c0:	48 89 c7             	mov    %rax,%rdi
    10c3:	e8 ba a9 00 00       	callq  ba82 <_ZN4Heap3popEv>
    10c8:	48 8d 85 30 ed df ff 	lea    -0x2012d0(%rbp),%rax
    10cf:	48 8d 50 0c          	lea    0xc(%rax),%rdx
    10d3:	48 8d 85 f0 ff df ff 	lea    -0x200010(%rbp),%rax
    10da:	48 89 d6             	mov    %rdx,%rsi
    10dd:	48 89 c7             	mov    %rax,%rdi
    10e0:	e8 45 a8 00 00       	callq  b92a <_ZN4Heap4pushEP4Grid>
    10e5:	48 8d 85 f0 ff df ff 	lea    -0x200010(%rbp),%rax
    10ec:	48 89 c7             	mov    %rax,%rdi
    10ef:	e8 8e a9 00 00       	callq  ba82 <_ZN4Heap3popEv>
    10f4:	48 8d 85 30 ed df ff 	lea    -0x2012d0(%rbp),%rax
    10fb:	48 8d 50 0c          	lea    0xc(%rax),%rdx
    10ff:	48 8d 85 f0 ff df ff 	lea    -0x200010(%rbp),%rax
    1106:	48 89 d6             	mov    %rdx,%rsi
    1109:	48 89 c7             	mov    %rax,%rdi
    110c:	e8 19 a8 00 00       	callq  b92a <_ZN4Heap4pushEP4Grid>
    1111:	48 8d 85 f0 ff df ff 	lea    -0x200010(%rbp),%rax
    1118:	48 89 c7             	mov    %rax,%rdi
    111b:	e8 62 a9 00 00       	callq  ba82 <_ZN4Heap3popEv>
    1120:	48 8d 85 30 ed df ff 	lea    -0x2012d0(%rbp),%rax
    1127:	48 8d 50 0c          	lea    0xc(%rax),%rdx
    112b:	48 8d 85 f0 ff df ff 	lea    -0x200010(%rbp),%rax
    1132:	48 89 d6             	mov    %rdx,%rsi
    1135:	48 89 c7             	mov    %rax,%rdi
    1138:	e8 ed a7 00 00       	callq  b92a <_ZN4Heap4pushEP4Grid>
    113d:	48 8d 85 f0 ff df ff 	lea    -0x200010(%rbp),%rax
    1144:	48 89 c7             	mov    %rax,%rdi
    1147:	e8 36 a9 00 00       	callq  ba82 <_ZN4Heap3popEv>
    114c:	48 8d 85 30 ed df ff 	lea    -0x2012d0(%rbp),%rax
    1153:	48 8d 50 0c          	lea    0xc(%rax),%rdx
    1157:	48 8d 85 f0 ff df ff 	lea    -0x200010(%rbp),%rax
    115e:	48 89 d6             	mov    %rdx,%rsi
    1161:	48 89 c7             	mov    %rax,%rdi
    1164:	e8 c1 a7 00 00       	callq  b92a <_ZN4Heap4pushEP4Grid>
    1169:	48 8d 85 f0 ff df ff 	lea    -0x200010(%rbp),%rax
    1170:	48 89 c7             	mov    %rax,%rdi
    1173:	e8 0a a9 00 00       	callq  ba82 <_ZN4Heap3popEv>
    1178:	48 8d 85 30 ed df ff 	lea    -0x2012d0(%rbp),%rax
    117f:	48 8d 50 0c          	lea    0xc(%rax),%rdx
    1183:	48 8d 85 f0 ff df ff 	lea    -0x200010(%rbp),%rax
    118a:	48 89 d6             	mov    %rdx,%rsi
    118d:	48 89 c7             	mov    %rax,%rdi
    1190:	e8 95 a7 00 00       	callq  b92a <_ZN4Heap4pushEP4Grid>
    1195:	48 8d 85 f0 ff df ff 	lea    -0x200010(%rbp),%rax
    119c:	48 89 c7             	mov    %rax,%rdi
    119f:	e8 de a8 00 00       	callq  ba82 <_ZN4Heap3popEv>
    11a4:	48 8d 85 30 ed df ff 	lea    -0x2012d0(%rbp),%rax
    11ab:	48 8d 50 0c          	lea    0xc(%rax),%rdx
    11af:	48 8d 85 f0 ff df ff 	lea    -0x200010(%rbp),%rax
    11b6:	48 89 d6             	mov    %rdx,%rsi
    11b9:	48 89 c7             	mov    %rax,%rdi
    11bc:	e8 69 a7 00 00       	callq  b92a <_ZN4Heap4pushEP4Grid>
    11c1:	48 8d 85 f0 ff df ff 	lea    -0x200010(%rbp),%rax
    11c8:	48 89 c7             	mov    %rax,%rdi
    11cb:	e8 b2 a8 00 00       	callq  ba82 <_ZN4Heap3popEv>
    11d0:	48 8d 85 30 ed df ff 	lea    -0x2012d0(%rbp),%rax
    11d7:	48 8d 50 0c          	lea    0xc(%rax),%rdx
    11db:	48 8d 85 f0 ff df ff 	lea    -0x200010(%rbp),%rax
    11e2:	48 89 d6             	mov    %rdx,%rsi
    11e5:	48 89 c7             	mov    %rax,%rdi
    11e8:	e8 3d a7 00 00       	callq  b92a <_ZN4Heap4pushEP4Grid>
    11ed:	48 8d 85 f0 ff df ff 	lea    -0x200010(%rbp),%rax
    11f4:	48 89 c7             	mov    %rax,%rdi
    11f7:	e8 86 a8 00 00       	callq  ba82 <_ZN4Heap3popEv>
    11fc:	48 8d 85 30 ed df ff 	lea    -0x2012d0(%rbp),%rax
    1203:	48 8d 50 0c          	lea    0xc(%rax),%rdx
    1207:	48 8d 85 f0 ff df ff 	lea    -0x200010(%rbp),%rax
    120e:	48 89 d6             	mov    %rdx,%rsi
    1211:	48 89 c7             	mov    %rax,%rdi
    1214:	e8 11 a7 00 00       	callq  b92a <_ZN4Heap4pushEP4Grid>
    1219:	48 8d 85 f0 ff df ff 	lea    -0x200010(%rbp),%rax
    1220:	48 89 c7             	mov    %rax,%rdi
    1223:	e8 5a a8 00 00       	callq  ba82 <_ZN4Heap3popEv>
    1228:	48 8d 85 30 ed df ff 	lea    -0x2012d0(%rbp),%rax
    122f:	48 8d 50 0c          	lea    0xc(%rax),%rdx
    1233:	48 8d 85 f0 ff df ff 	lea    -0x200010(%rbp),%rax
    123a:	48 89 d6             	mov    %rdx,%rsi
    123d:	48 89 c7             	mov    %rax,%rdi
    1240:	e8 e5 a6 00 00       	callq  b92a <_ZN4Heap4pushEP4Grid>
    1245:	48 8d 85 f0 ff df ff 	lea    -0x200010(%rbp),%rax
    124c:	48 89 c7             	mov    %rax,%rdi
    124f:	e8 2e a8 00 00       	callq  ba82 <_ZN4Heap3popEv>
    1254:	48 8d 85 30 ed df ff 	lea    -0x2012d0(%rbp),%rax
    125b:	48 8d 50 0c          	lea    0xc(%rax),%rdx
    125f:	48 8d 85 f0 ff df ff 	lea    -0x200010(%rbp),%rax
    1266:	48 89 d6             	mov    %rdx,%rsi
    1269:	48 89 c7             	mov    %rax,%rdi
    126c:	e8 b9 a6 00 00       	callq  b92a <_ZN4Heap4pushEP4Grid>
    1271:	48 8d 85 f0 ff df ff 	lea    -0x200010(%rbp),%rax
    1278:	48 89 c7             	mov    %rax,%rdi
    127b:	e8 02 a8 00 00       	callq  ba82 <_ZN4Heap3popEv>
    1280:	48 8d 85 30 ed df ff 	lea    -0x2012d0(%rbp),%rax
    1287:	48 8d 50 0c          	lea    0xc(%rax),%rdx
    128b:	48 8d 85 f0 ff df ff 	lea    -0x200010(%rbp),%rax
    1292:	48 89 d6             	mov    %rdx,%rsi
    1295:	48 89 c7             	mov    %rax,%rdi
    1298:	e8 8d a6 00 00       	callq  b92a <_ZN4Heap4pushEP4Grid>
    129d:	48 8d 85 f0 ff df ff 	lea    -0x200010(%rbp),%rax
    12a4:	48 89 c7             	mov    %rax,%rdi
    12a7:	e8 d6 a7 00 00       	callq  ba82 <_ZN4Heap3popEv>
    12ac:	48 8d 85 30 ed df ff 	lea    -0x2012d0(%rbp),%rax
    12b3:	48 8d 50 0c          	lea    0xc(%rax),%rdx
    12b7:	48 8d 85 f0 ff df ff 	lea    -0x200010(%rbp),%rax
    12be:	48 89 d6             	mov    %rdx,%rsi
    12c1:	48 89 c7             	mov    %rax,%rdi
    12c4:	e8 61 a6 00 00       	callq  b92a <_ZN4Heap4pushEP4Grid>
    12c9:	48 8d 85 f0 ff df ff 	lea    -0x200010(%rbp),%rax
    12d0:	48 89 c7             	mov    %rax,%rdi
    12d3:	e8 aa a7 00 00       	callq  ba82 <_ZN4Heap3popEv>
    12d8:	48 8d 85 30 ed df ff 	lea    -0x2012d0(%rbp),%rax
    12df:	48 8d 50 0c          	lea    0xc(%rax),%rdx
    12e3:	48 8d 85 f0 ff df ff 	lea    -0x200010(%rbp),%rax
    12ea:	48 89 d6             	mov    %rdx,%rsi
    12ed:	48 89 c7             	mov    %rax,%rdi
    12f0:	e8 35 a6 00 00       	callq  b92a <_ZN4Heap4pushEP4Grid>
    12f5:	48 8d 85 f0 ff df ff 	lea    -0x200010(%rbp),%rax
    12fc:	48 89 c7             	mov    %rax,%rdi
    12ff:	e8 7e a7 00 00       	callq  ba82 <_ZN4Heap3popEv>
    1304:	48 8d 85 30 ed df ff 	lea    -0x2012d0(%rbp),%rax
    130b:	48 8d 50 0c          	lea    0xc(%rax),%rdx
    130f:	48 8d 85 f0 ff df ff 	lea    -0x200010(%rbp),%rax
    1316:	48 89 d6             	mov    %rdx,%rsi
    1319:	48 89 c7             	mov    %rax,%rdi
    131c:	e8 09 a6 00 00       	callq  b92a <_ZN4Heap4pushEP4Grid>
    1321:	48 8d 85 f0 ff df ff 	lea    -0x200010(%rbp),%rax
    1328:	48 89 c7             	mov    %rax,%rdi
    132b:	e8 52 a7 00 00       	callq  ba82 <_ZN4Heap3popEv>
    1330:	48 8d 85 30 ed df ff 	lea    -0x2012d0(%rbp),%rax
    1337:	48 8d 50 0c          	lea    0xc(%rax),%rdx
    133b:	48 8d 85 f0 ff df ff 	lea    -0x200010(%rbp),%rax
    1342:	48 89 d6             	mov    %rdx,%rsi
    1345:	48 89 c7             	mov    %rax,%rdi
    1348:	e8 dd a5 00 00       	callq  b92a <_ZN4Heap4pushEP4Grid>
    134d:	48 8d 85 f0 ff df ff 	lea    -0x200010(%rbp),%rax
    1354:	48 89 c7             	mov    %rax,%rdi
    1357:	e8 26 a7 00 00       	callq  ba82 <_ZN4Heap3popEv>
    135c:	48 8d 85 30 ed df ff 	lea    -0x2012d0(%rbp),%rax
    1363:	48 8d 50 0c          	lea    0xc(%rax),%rdx
    1367:	48 8d 85 f0 ff df ff 	lea    -0x200010(%rbp),%rax
    136e:	48 89 d6             	mov    %rdx,%rsi
    1371:	48 89 c7             	mov    %rax,%rdi
    1374:	e8 b1 a5 00 00       	callq  b92a <_ZN4Heap4pushEP4Grid>
    1379:	48 8d 85 f0 ff df ff 	lea    -0x200010(%rbp),%rax
    1380:	48 89 c7             	mov    %rax,%rdi
    1383:	e8 fa a6 00 00       	callq  ba82 <_ZN4Heap3popEv>
    1388:	48 8d 85 30 ed df ff 	lea    -0x2012d0(%rbp),%rax
    138f:	48 8d 50 0c          	lea    0xc(%rax),%rdx
    1393:	48 8d 85 f0 ff df ff 	lea    -0x200010(%rbp),%rax
    139a:	48 89 d6             	mov    %rdx,%rsi
    139d:	48 89 c7             	mov    %rax,%rdi
    13a0:	e8 85 a5 00 00       	callq  b92a <_ZN4Heap4pushEP4Grid>
    13a5:	48 8d 85 f0 ff df ff 	lea    -0x200010(%rbp),%rax
    13ac:	48 89 c7             	mov    %rax,%rdi
    13af:	e8 ce a6 00 00       	callq  ba82 <_ZN4Heap3popEv>
    13b4:	48 8d 85 30 ed df ff 	lea    -0x2012d0(%rbp),%rax
    13bb:	48 8d 50 0c          	lea    0xc(%rax),%rdx
    13bf:	48 8d 85 f0 ff df ff 	lea    -0x200010(%rbp),%rax
    13c6:	48 89 d6             	mov    %rdx,%rsi
    13c9:	48 89 c7             	mov    %rax,%rdi
    13cc:	e8 59 a5 00 00       	callq  b92a <_ZN4Heap4pushEP4Grid>
    13d1:	48 8d 85 f0 ff df ff 	lea    -0x200010(%rbp),%rax
    13d8:	48 89 c7             	mov    %rax,%rdi
    13db:	e8 a2 a6 00 00       	callq  ba82 <_ZN4Heap3popEv>
    13e0:	48 8d 85 30 ed df ff 	lea    -0x2012d0(%rbp),%rax
    13e7:	48 8d 50 0c          	lea    0xc(%rax),%rdx
    13eb:	48 8d 85 f0 ff df ff 	lea    -0x200010(%rbp),%rax
    13f2:	48 89 d6             	mov    %rdx,%rsi
    13f5:	48 89 c7             	mov    %rax,%rdi
    13f8:	e8 2d a5 00 00       	callq  b92a <_ZN4Heap4pushEP4Grid>
    13fd:	48 8d 85 f0 ff df ff 	lea    -0x200010(%rbp),%rax
    1404:	48 89 c7             	mov    %rax,%rdi
    1407:	e8 76 a6 00 00       	callq  ba82 <_ZN4Heap3popEv>
    140c:	48 8d 85 30 ed df ff 	lea    -0x2012d0(%rbp),%rax
    1413:	48 8d 50 0c          	lea    0xc(%rax),%rdx
    1417:	48 8d 85 f0 ff df ff 	lea    -0x200010(%rbp),%rax
    141e:	48 89 d6             	mov    %rdx,%rsi
    1421:	48 89 c7             	mov    %rax,%rdi
    1424:	e8 01 a5 00 00       	callq  b92a <_ZN4Heap4pushEP4Grid>
    1429:	48 8d 85 f0 ff df ff 	lea    -0x200010(%rbp),%rax
    1430:	48 89 c7             	mov    %rax,%rdi
    1433:	e8 4a a6 00 00       	callq  ba82 <_ZN4Heap3popEv>
    1438:	48 8d 85 30 ed df ff 	lea    -0x2012d0(%rbp),%rax
    143f:	48 8d 50 0c          	lea    0xc(%rax),%rdx
    1443:	48 8d 85 f0 ff df ff 	lea    -0x200010(%rbp),%rax
    144a:	48 89 d6             	mov    %rdx,%rsi
    144d:	48 89 c7             	mov    %rax,%rdi
    1450:	e8 d5 a4 00 00       	callq  b92a <_ZN4Heap4pushEP4Grid>
    1455:	48 8d 85 f0 ff df ff 	lea    -0x200010(%rbp),%rax
    145c:	48 89 c7             	mov    %rax,%rdi
    145f:	e8 1e a6 00 00       	callq  ba82 <_ZN4Heap3popEv>
    1464:	48 8d 85 30 ed df ff 	lea    -0x2012d0(%rbp),%rax
    146b:	48 8d 50 0c          	lea    0xc(%rax),%rdx
    146f:	48 8d 85 f0 ff df ff 	lea    -0x200010(%rbp),%rax
    1476:	48 89 d6             	mov    %rdx,%rsi
    1479:	48 89 c7             	mov    %rax,%rdi
    147c:	e8 a9 a4 00 00       	callq  b92a <_ZN4Heap4pushEP4Grid>
    1481:	48 8d 85 f0 ff df ff 	lea    -0x200010(%rbp),%rax
    1488:	48 89 c7             	mov    %rax,%rdi
    148b:	e8 f2 a5 00 00       	callq  ba82 <_ZN4Heap3popEv>
    1490:	48 8d 85 30 ed df ff 	lea    -0x2012d0(%rbp),%rax
    1497:	48 8d 50 0c          	lea    0xc(%rax),%rdx
    149b:	48 8d 85 f0 ff df ff 	lea    -0x200010(%rbp),%rax
    14a2:	48 89 d6             	mov    %rdx,%rsi
    14a5:	48 89 c7             	mov    %rax,%rdi
    14a8:	e8 7d a4 00 00       	callq  b92a <_ZN4Heap4pushEP4Grid>
    14ad:	48 8d 85 f0 ff df ff 	lea    -0x200010(%rbp),%rax
    14b4:	48 89 c7             	mov    %rax,%rdi
    14b7:	e8 c6 a5 00 00       	callq  ba82 <_ZN4Heap3popEv>
    14bc:	48 8d 85 30 ed df ff 	lea    -0x2012d0(%rbp),%rax
    14c3:	48 8d 50 0c          	lea    0xc(%rax),%rdx
    14c7:	48 8d 85 f0 ff df ff 	lea    -0x200010(%rbp),%rax
    14ce:	48 89 d6             	mov    %rdx,%rsi
    14d1:	48 89 c7             	mov    %rax,%rdi
    14d4:	e8 51 a4 00 00       	callq  b92a <_ZN4Heap4pushEP4Grid>
    14d9:	48 8d 85 f0 ff df ff 	lea    -0x200010(%rbp),%rax
    14e0:	48 89 c7             	mov    %rax,%rdi
    14e3:	e8 9a a5 00 00       	callq  ba82 <_ZN4Heap3popEv>
    14e8:	48 8d 85 30 ed df ff 	lea    -0x2012d0(%rbp),%rax
    14ef:	48 8d 50 0c          	lea    0xc(%rax),%rdx
    14f3:	48 8d 85 f0 ff df ff 	lea    -0x200010(%rbp),%rax
    14fa:	48 89 d6             	mov    %rdx,%rsi
    14fd:	48 89 c7             	mov    %rax,%rdi
    1500:	e8 25 a4 00 00       	callq  b92a <_ZN4Heap4pushEP4Grid>
    1505:	48 8d 85 f0 ff df ff 	lea    -0x200010(%rbp),%rax
    150c:	48 89 c7             	mov    %rax,%rdi
    150f:	e8 6e a5 00 00       	callq  ba82 <_ZN4Heap3popEv>
    1514:	48 8d 85 30 ed df ff 	lea    -0x2012d0(%rbp),%rax
    151b:	48 8d 50 0c          	lea    0xc(%rax),%rdx
    151f:	48 8d 85 f0 ff df ff 	lea    -0x200010(%rbp),%rax
    1526:	48 89 d6             	mov    %rdx,%rsi
    1529:	48 89 c7             	mov    %rax,%rdi
    152c:	e8 f9 a3 00 00       	callq  b92a <_ZN4Heap4pushEP4Grid>
    1531:	48 8d 85 f0 ff df ff 	lea    -0x200010(%rbp),%rax
    1538:	48 89 c7             	mov    %rax,%rdi
    153b:	e8 42 a5 00 00       	callq  ba82 <_ZN4Heap3popEv>
    1540:	48 8d 85 30 ed df ff 	lea    -0x2012d0(%rbp),%rax
    1547:	48 8d 50 0c          	lea    0xc(%rax),%rdx
    154b:	48 8d 85 f0 ff df ff 	lea    -0x200010(%rbp),%rax
    1552:	48 89 d6             	mov    %rdx,%rsi
    1555:	48 89 c7             	mov    %rax,%rdi
    1558:	e8 cd a3 00 00       	callq  b92a <_ZN4Heap4pushEP4Grid>
    155d:	48 8d 85 f0 ff df ff 	lea    -0x200010(%rbp),%rax
    1564:	48 89 c7             	mov    %rax,%rdi
    1567:	e8 16 a5 00 00       	callq  ba82 <_ZN4Heap3popEv>
    156c:	48 8d 85 30 ed df ff 	lea    -0x2012d0(%rbp),%rax
    1573:	48 8d 50 0c          	lea    0xc(%rax),%rdx
    1577:	48 8d 85 f0 ff df ff 	lea    -0x200010(%rbp),%rax
    157e:	48 89 d6             	mov    %rdx,%rsi
    1581:	48 89 c7             	mov    %rax,%rdi
    1584:	e8 a1 a3 00 00       	callq  b92a <_ZN4Heap4pushEP4Grid>
    1589:	48 8d 85 f0 ff df ff 	lea    -0x200010(%rbp),%rax
    1590:	48 89 c7             	mov    %rax,%rdi
    1593:	e8 ea a4 00 00       	callq  ba82 <_ZN4Heap3popEv>
    1598:	48 8d 85 30 ed df ff 	lea    -0x2012d0(%rbp),%rax
    159f:	48 8d 50 0c          	lea    0xc(%rax),%rdx
    15a3:	48 8d 85 f0 ff df ff 	lea    -0x200010(%rbp),%rax
    15aa:	48 89 d6             	mov    %rdx,%rsi
    15ad:	48 89 c7             	mov    %rax,%rdi
    15b0:	e8 75 a3 00 00       	callq  b92a <_ZN4Heap4pushEP4Grid>
    15b5:	48 8d 85 f0 ff df ff 	lea    -0x200010(%rbp),%rax
    15bc:	48 89 c7             	mov    %rax,%rdi
    15bf:	e8 be a4 00 00       	callq  ba82 <_ZN4Heap3popEv>
    15c4:	48 8d 85 30 ed df ff 	lea    -0x2012d0(%rbp),%rax
    15cb:	48 8d 50 0c          	lea    0xc(%rax),%rdx
    15cf:	48 8d 85 f0 ff df ff 	lea    -0x200010(%rbp),%rax
    15d6:	48 89 d6             	mov    %rdx,%rsi
    15d9:	48 89 c7             	mov    %rax,%rdi
    15dc:	e8 49 a3 00 00       	callq  b92a <_ZN4Heap4pushEP4Grid>
    15e1:	48 8d 85 f0 ff df ff 	lea    -0x200010(%rbp),%rax
    15e8:	48 89 c7             	mov    %rax,%rdi
    15eb:	e8 92 a4 00 00       	callq  ba82 <_ZN4Heap3popEv>
    15f0:	48 8d 85 30 ed df ff 	lea    -0x2012d0(%rbp),%rax
    15f7:	48 8d 50 0c          	lea    0xc(%rax),%rdx
    15fb:	48 8d 85 f0 ff df ff 	lea    -0x200010(%rbp),%rax
    1602:	48 89 d6             	mov    %rdx,%rsi
    1605:	48 89 c7             	mov    %rax,%rdi
    1608:	e8 1d a3 00 00       	callq  b92a <_ZN4Heap4pushEP4Grid>
    160d:	48 8d 85 f0 ff df ff 	lea    -0x200010(%rbp),%rax
    1614:	48 89 c7             	mov    %rax,%rdi
    1617:	e8 66 a4 00 00       	callq  ba82 <_ZN4Heap3popEv>
    161c:	48 8d 85 30 ed df ff 	lea    -0x2012d0(%rbp),%rax
    1623:	48 8d 50 0c          	lea    0xc(%rax),%rdx
    1627:	48 8d 85 f0 ff df ff 	lea    -0x200010(%rbp),%rax
    162e:	48 89 d6             	mov    %rdx,%rsi
    1631:	48 89 c7             	mov    %rax,%rdi
    1634:	e8 f1 a2 00 00       	callq  b92a <_ZN4Heap4pushEP4Grid>
    1639:	48 8d 85 f0 ff df ff 	lea    -0x200010(%rbp),%rax
    1640:	48 89 c7             	mov    %rax,%rdi
    1643:	e8 3a a4 00 00       	callq  ba82 <_ZN4Heap3popEv>
    1648:	48 8d 85 30 ed df ff 	lea    -0x2012d0(%rbp),%rax
    164f:	48 8d 50 0c          	lea    0xc(%rax),%rdx
    1653:	48 8d 85 f0 ff df ff 	lea    -0x200010(%rbp),%rax
    165a:	48 89 d6             	mov    %rdx,%rsi
    165d:	48 89 c7             	mov    %rax,%rdi
    1660:	e8 c5 a2 00 00       	callq  b92a <_ZN4Heap4pushEP4Grid>
    1665:	48 8d 85 f0 ff df ff 	lea    -0x200010(%rbp),%rax
    166c:	48 89 c7             	mov    %rax,%rdi
    166f:	e8 0e a4 00 00       	callq  ba82 <_ZN4Heap3popEv>
    1674:	48 8d 85 30 ed df ff 	lea    -0x2012d0(%rbp),%rax
    167b:	48 8d 50 0c          	lea    0xc(%rax),%rdx
    167f:	48 8d 85 f0 ff df ff 	lea    -0x200010(%rbp),%rax
    1686:	48 89 d6             	mov    %rdx,%rsi
    1689:	48 89 c7             	mov    %rax,%rdi
    168c:	e8 99 a2 00 00       	callq  b92a <_ZN4Heap4pushEP4Grid>
    1691:	48 8d 85 f0 ff df ff 	lea    -0x200010(%rbp),%rax
    1698:	48 89 c7             	mov    %rax,%rdi
    169b:	e8 e2 a3 00 00       	callq  ba82 <_ZN4Heap3popEv>
    16a0:	48 8d 85 30 ed df ff 	lea    -0x2012d0(%rbp),%rax
    16a7:	48 8d 50 0c          	lea    0xc(%rax),%rdx
    16ab:	48 8d 85 f0 ff df ff 	lea    -0x200010(%rbp),%rax
    16b2:	48 89 d6             	mov    %rdx,%rsi
    16b5:	48 89 c7             	mov    %rax,%rdi
    16b8:	e8 6d a2 00 00       	callq  b92a <_ZN4Heap4pushEP4Grid>
    16bd:	48 8d 85 f0 ff df ff 	lea    -0x200010(%rbp),%rax
    16c4:	48 89 c7             	mov    %rax,%rdi
    16c7:	e8 b6 a3 00 00       	callq  ba82 <_ZN4Heap3popEv>
    16cc:	48 8d 85 30 ed df ff 	lea    -0x2012d0(%rbp),%rax
    16d3:	48 8d 50 0c          	lea    0xc(%rax),%rdx
    16d7:	48 8d 85 f0 ff df ff 	lea    -0x200010(%rbp),%rax
    16de:	48 89 d6             	mov    %rdx,%rsi
    16e1:	48 89 c7             	mov    %rax,%rdi
    16e4:	e8 41 a2 00 00       	callq  b92a <_ZN4Heap4pushEP4Grid>
    16e9:	48 8d 85 f0 ff df ff 	lea    -0x200010(%rbp),%rax
    16f0:	48 89 c7             	mov    %rax,%rdi
    16f3:	e8 8a a3 00 00       	callq  ba82 <_ZN4Heap3popEv>
    16f8:	48 8d 85 30 ed df ff 	lea    -0x2012d0(%rbp),%rax
    16ff:	48 8d 50 0c          	lea    0xc(%rax),%rdx
    1703:	48 8d 85 f0 ff df ff 	lea    -0x200010(%rbp),%rax
    170a:	48 89 d6             	mov    %rdx,%rsi
    170d:	48 89 c7             	mov    %rax,%rdi
    1710:	e8 15 a2 00 00       	callq  b92a <_ZN4Heap4pushEP4Grid>
    1715:	48 8d 85 f0 ff df ff 	lea    -0x200010(%rbp),%rax
    171c:	48 89 c7             	mov    %rax,%rdi
    171f:	e8 5e a3 00 00       	callq  ba82 <_ZN4Heap3popEv>
    1724:	48 8d 85 30 ed df ff 	lea    -0x2012d0(%rbp),%rax
    172b:	48 8d 50 0c          	lea    0xc(%rax),%rdx
    172f:	48 8d 85 f0 ff df ff 	lea    -0x200010(%rbp),%rax
    1736:	48 89 d6             	mov    %rdx,%rsi
    1739:	48 89 c7             	mov    %rax,%rdi
    173c:	e8 e9 a1 00 00       	callq  b92a <_ZN4Heap4pushEP4Grid>
    1741:	48 8d 85 f0 ff df ff 	lea    -0x200010(%rbp),%rax
    1748:	48 89 c7             	mov    %rax,%rdi
    174b:	e8 32 a3 00 00       	callq  ba82 <_ZN4Heap3popEv>
    1750:	48 8d 85 30 ed df ff 	lea    -0x2012d0(%rbp),%rax
    1757:	48 8d 50 0c          	lea    0xc(%rax),%rdx
    175b:	48 8d 85 f0 ff df ff 	lea    -0x200010(%rbp),%rax
    1762:	48 89 d6             	mov    %rdx,%rsi
    1765:	48 89 c7             	mov    %rax,%rdi
    1768:	e8 bd a1 00 00       	callq  b92a <_ZN4Heap4pushEP4Grid>
    176d:	48 8d 85 f0 ff df ff 	lea    -0x200010(%rbp),%rax
    1774:	48 89 c7             	mov    %rax,%rdi
    1777:	e8 06 a3 00 00       	callq  ba82 <_ZN4Heap3popEv>
    177c:	48 8d 85 30 ed df ff 	lea    -0x2012d0(%rbp),%rax
    1783:	48 8d 50 0c          	lea    0xc(%rax),%rdx
    1787:	48 8d 85 f0 ff df ff 	lea    -0x200010(%rbp),%rax
    178e:	48 89 d6             	mov    %rdx,%rsi
    1791:	48 89 c7             	mov    %rax,%rdi
    1794:	e8 91 a1 00 00       	callq  b92a <_ZN4Heap4pushEP4Grid>
    1799:	48 8d 85 f0 ff df ff 	lea    -0x200010(%rbp),%rax
    17a0:	48 89 c7             	mov    %rax,%rdi
    17a3:	e8 da a2 00 00       	callq  ba82 <_ZN4Heap3popEv>
    17a8:	48 8d 85 30 ed df ff 	lea    -0x2012d0(%rbp),%rax
    17af:	48 8d 50 0c          	lea    0xc(%rax),%rdx
    17b3:	48 8d 85 f0 ff df ff 	lea    -0x200010(%rbp),%rax
    17ba:	48 89 d6             	mov    %rdx,%rsi
    17bd:	48 89 c7             	mov    %rax,%rdi
    17c0:	e8 65 a1 00 00       	callq  b92a <_ZN4Heap4pushEP4Grid>
    17c5:	48 8d 85 f0 ff df ff 	lea    -0x200010(%rbp),%rax
    17cc:	48 89 c7             	mov    %rax,%rdi
    17cf:	e8 ae a2 00 00       	callq  ba82 <_ZN4Heap3popEv>
    17d4:	48 8d 85 30 ed df ff 	lea    -0x2012d0(%rbp),%rax
    17db:	48 8d 50 0c          	lea    0xc(%rax),%rdx
    17df:	48 8d 85 f0 ff df ff 	lea    -0x200010(%rbp),%rax
    17e6:	48 89 d6             	mov    %rdx,%rsi
    17e9:	48 89 c7             	mov    %rax,%rdi
    17ec:	e8 39 a1 00 00       	callq  b92a <_ZN4Heap4pushEP4Grid>
    17f1:	48 8d 85 f0 ff df ff 	lea    -0x200010(%rbp),%rax
    17f8:	48 89 c7             	mov    %rax,%rdi
    17fb:	e8 82 a2 00 00       	callq  ba82 <_ZN4Heap3popEv>
    1800:	48 8d 85 30 ed df ff 	lea    -0x2012d0(%rbp),%rax
    1807:	48 8d 50 0c          	lea    0xc(%rax),%rdx
    180b:	48 8d 85 f0 ff df ff 	lea    -0x200010(%rbp),%rax
    1812:	48 89 d6             	mov    %rdx,%rsi
    1815:	48 89 c7             	mov    %rax,%rdi
    1818:	e8 0d a1 00 00       	callq  b92a <_ZN4Heap4pushEP4Grid>
    181d:	48 8d 85 f0 ff df ff 	lea    -0x200010(%rbp),%rax
    1824:	48 89 c7             	mov    %rax,%rdi
    1827:	e8 56 a2 00 00       	callq  ba82 <_ZN4Heap3popEv>
    182c:	48 8d 85 30 ed df ff 	lea    -0x2012d0(%rbp),%rax
    1833:	48 8d 50 0c          	lea    0xc(%rax),%rdx
    1837:	48 8d 85 f0 ff df ff 	lea    -0x200010(%rbp),%rax
    183e:	48 89 d6             	mov    %rdx,%rsi
    1841:	48 89 c7             	mov    %rax,%rdi
    1844:	e8 e1 a0 00 00       	callq  b92a <_ZN4Heap4pushEP4Grid>
    1849:	48 8d 85 f0 ff df ff 	lea    -0x200010(%rbp),%rax
    1850:	48 89 c7             	mov    %rax,%rdi
    1853:	e8 2a a2 00 00       	callq  ba82 <_ZN4Heap3popEv>
    1858:	48 8d 85 30 ed df ff 	lea    -0x2012d0(%rbp),%rax
    185f:	48 8d 50 0c          	lea    0xc(%rax),%rdx
    1863:	48 8d 85 f0 ff df ff 	lea    -0x200010(%rbp),%rax
    186a:	48 89 d6             	mov    %rdx,%rsi
    186d:	48 89 c7             	mov    %rax,%rdi
    1870:	e8 b5 a0 00 00       	callq  b92a <_ZN4Heap4pushEP4Grid>
    1875:	48 8d 85 f0 ff df ff 	lea    -0x200010(%rbp),%rax
    187c:	48 89 c7             	mov    %rax,%rdi
    187f:	e8 fe a1 00 00       	callq  ba82 <_ZN4Heap3popEv>
    1884:	48 8d 85 30 ed df ff 	lea    -0x2012d0(%rbp),%rax
    188b:	48 8d 50 0c          	lea    0xc(%rax),%rdx
    188f:	48 8d 85 f0 ff df ff 	lea    -0x200010(%rbp),%rax
    1896:	48 89 d6             	mov    %rdx,%rsi
    1899:	48 89 c7             	mov    %rax,%rdi
    189c:	e8 89 a0 00 00       	callq  b92a <_ZN4Heap4pushEP4Grid>
    18a1:	48 8d 85 f0 ff df ff 	lea    -0x200010(%rbp),%rax
    18a8:	48 89 c7             	mov    %rax,%rdi
    18ab:	e8 d2 a1 00 00       	callq  ba82 <_ZN4Heap3popEv>
    18b0:	48 8d 85 30 ed df ff 	lea    -0x2012d0(%rbp),%rax
    18b7:	48 8d 50 0c          	lea    0xc(%rax),%rdx
    18bb:	48 8d 85 f0 ff df ff 	lea    -0x200010(%rbp),%rax
    18c2:	48 89 d6             	mov    %rdx,%rsi
    18c5:	48 89 c7             	mov    %rax,%rdi
    18c8:	e8 5d a0 00 00       	callq  b92a <_ZN4Heap4pushEP4Grid>
    18cd:	48 8d 85 f0 ff df ff 	lea    -0x200010(%rbp),%rax
    18d4:	48 89 c7             	mov    %rax,%rdi
    18d7:	e8 a6 a1 00 00       	callq  ba82 <_ZN4Heap3popEv>
    18dc:	48 8d 85 30 ed df ff 	lea    -0x2012d0(%rbp),%rax
    18e3:	48 8d 50 0c          	lea    0xc(%rax),%rdx
    18e7:	48 8d 85 f0 ff df ff 	lea    -0x200010(%rbp),%rax
    18ee:	48 89 d6             	mov    %rdx,%rsi
    18f1:	48 89 c7             	mov    %rax,%rdi
    18f4:	e8 31 a0 00 00       	callq  b92a <_ZN4Heap4pushEP4Grid>
    18f9:	48 8d 85 f0 ff df ff 	lea    -0x200010(%rbp),%rax
    1900:	48 89 c7             	mov    %rax,%rdi
    1903:	e8 7a a1 00 00       	callq  ba82 <_ZN4Heap3popEv>
    1908:	48 8d 85 30 ed df ff 	lea    -0x2012d0(%rbp),%rax
    190f:	48 8d 50 0c          	lea    0xc(%rax),%rdx
    1913:	48 8d 85 f0 ff df ff 	lea    -0x200010(%rbp),%rax
    191a:	48 89 d6             	mov    %rdx,%rsi
    191d:	48 89 c7             	mov    %rax,%rdi
    1920:	e8 05 a0 00 00       	callq  b92a <_ZN4Heap4pushEP4Grid>
    1925:	48 8d 85 f0 ff df ff 	lea    -0x200010(%rbp),%rax
    192c:	48 89 c7             	mov    %rax,%rdi
    192f:	e8 4e a1 00 00       	callq  ba82 <_ZN4Heap3popEv>
    1934:	48 8d 85 30 ed df ff 	lea    -0x2012d0(%rbp),%rax
    193b:	48 8d 50 0c          	lea    0xc(%rax),%rdx
    193f:	48 8d 85 f0 ff df ff 	lea    -0x200010(%rbp),%rax
    1946:	48 89 d6             	mov    %rdx,%rsi
    1949:	48 89 c7             	mov    %rax,%rdi
    194c:	e8 d9 9f 00 00       	callq  b92a <_ZN4Heap4pushEP4Grid>
    1951:	48 8d 85 f0 ff df ff 	lea    -0x200010(%rbp),%rax
    1958:	48 89 c7             	mov    %rax,%rdi
    195b:	e8 22 a1 00 00       	callq  ba82 <_ZN4Heap3popEv>
    1960:	48 8d 85 30 ed df ff 	lea    -0x2012d0(%rbp),%rax
    1967:	48 8d 50 0c          	lea    0xc(%rax),%rdx
    196b:	48 8d 85 f0 ff df ff 	lea    -0x200010(%rbp),%rax
    1972:	48 89 d6             	mov    %rdx,%rsi
    1975:	48 89 c7             	mov    %rax,%rdi
    1978:	e8 ad 9f 00 00       	callq  b92a <_ZN4Heap4pushEP4Grid>
    197d:	48 8d 85 f0 ff df ff 	lea    -0x200010(%rbp),%rax
    1984:	48 89 c7             	mov    %rax,%rdi
    1987:	e8 f6 a0 00 00       	callq  ba82 <_ZN4Heap3popEv>
    198c:	48 8d 85 30 ed df ff 	lea    -0x2012d0(%rbp),%rax
    1993:	48 8d 50 0c          	lea    0xc(%rax),%rdx
    1997:	48 8d 85 f0 ff df ff 	lea    -0x200010(%rbp),%rax
    199e:	48 89 d6             	mov    %rdx,%rsi
    19a1:	48 89 c7             	mov    %rax,%rdi
    19a4:	e8 81 9f 00 00       	callq  b92a <_ZN4Heap4pushEP4Grid>
    19a9:	48 8d 85 f0 ff df ff 	lea    -0x200010(%rbp),%rax
    19b0:	48 89 c7             	mov    %rax,%rdi
    19b3:	e8 ca a0 00 00       	callq  ba82 <_ZN4Heap3popEv>
    19b8:	48 8d 85 30 ed df ff 	lea    -0x2012d0(%rbp),%rax
    19bf:	48 8d 50 0c          	lea    0xc(%rax),%rdx
    19c3:	48 8d 85 f0 ff df ff 	lea    -0x200010(%rbp),%rax
    19ca:	48 89 d6             	mov    %rdx,%rsi
    19cd:	48 89 c7             	mov    %rax,%rdi
    19d0:	e8 55 9f 00 00       	callq  b92a <_ZN4Heap4pushEP4Grid>
    19d5:	48 8d 85 f0 ff df ff 	lea    -0x200010(%rbp),%rax
    19dc:	48 89 c7             	mov    %rax,%rdi
    19df:	e8 9e a0 00 00       	callq  ba82 <_ZN4Heap3popEv>
    19e4:	48 8d 85 30 ed df ff 	lea    -0x2012d0(%rbp),%rax
    19eb:	48 8d 50 0c          	lea    0xc(%rax),%rdx
    19ef:	48 8d 85 f0 ff df ff 	lea    -0x200010(%rbp),%rax
    19f6:	48 89 d6             	mov    %rdx,%rsi
    19f9:	48 89 c7             	mov    %rax,%rdi
    19fc:	e8 29 9f 00 00       	callq  b92a <_ZN4Heap4pushEP4Grid>
    1a01:	48 8d 85 f0 ff df ff 	lea    -0x200010(%rbp),%rax
    1a08:	48 89 c7             	mov    %rax,%rdi
    1a0b:	e8 72 a0 00 00       	callq  ba82 <_ZN4Heap3popEv>
    1a10:	48 8d 85 30 ed df ff 	lea    -0x2012d0(%rbp),%rax
    1a17:	48 8d 50 0c          	lea    0xc(%rax),%rdx
    1a1b:	48 8d 85 f0 ff df ff 	lea    -0x200010(%rbp),%rax
    1a22:	48 89 d6             	mov    %rdx,%rsi
    1a25:	48 89 c7             	mov    %rax,%rdi
    1a28:	e8 fd 9e 00 00       	callq  b92a <_ZN4Heap4pushEP4Grid>
    1a2d:	48 8d 85 f0 ff df ff 	lea    -0x200010(%rbp),%rax
    1a34:	48 89 c7             	mov    %rax,%rdi
    1a37:	e8 46 a0 00 00       	callq  ba82 <_ZN4Heap3popEv>
    1a3c:	48 8d 85 30 ed df ff 	lea    -0x2012d0(%rbp),%rax
    1a43:	48 8d 50 0c          	lea    0xc(%rax),%rdx
    1a47:	48 8d 85 f0 ff df ff 	lea    -0x200010(%rbp),%rax
    1a4e:	48 89 d6             	mov    %rdx,%rsi
    1a51:	48 89 c7             	mov    %rax,%rdi
    1a54:	e8 d1 9e 00 00       	callq  b92a <_ZN4Heap4pushEP4Grid>
    1a59:	48 8d 85 f0 ff df ff 	lea    -0x200010(%rbp),%rax
    1a60:	48 89 c7             	mov    %rax,%rdi
    1a63:	e8 1a a0 00 00       	callq  ba82 <_ZN4Heap3popEv>
    1a68:	48 8d 85 30 ed df ff 	lea    -0x2012d0(%rbp),%rax
    1a6f:	48 8d 50 0c          	lea    0xc(%rax),%rdx
    1a73:	48 8d 85 f0 ff df ff 	lea    -0x200010(%rbp),%rax
    1a7a:	48 89 d6             	mov    %rdx,%rsi
    1a7d:	48 89 c7             	mov    %rax,%rdi
    1a80:	e8 a5 9e 00 00       	callq  b92a <_ZN4Heap4pushEP4Grid>
    1a85:	48 8d 85 f0 ff df ff 	lea    -0x200010(%rbp),%rax
    1a8c:	48 89 c7             	mov    %rax,%rdi
    1a8f:	e8 ee 9f 00 00       	callq  ba82 <_ZN4Heap3popEv>
    1a94:	48 8d 85 30 ed df ff 	lea    -0x2012d0(%rbp),%rax
    1a9b:	48 8d 50 0c          	lea    0xc(%rax),%rdx
    1a9f:	48 8d 85 f0 ff df ff 	lea    -0x200010(%rbp),%rax
    1aa6:	48 89 d6             	mov    %rdx,%rsi
    1aa9:	48 89 c7             	mov    %rax,%rdi
    1aac:	e8 79 9e 00 00       	callq  b92a <_ZN4Heap4pushEP4Grid>
    1ab1:	48 8d 85 f0 ff df ff 	lea    -0x200010(%rbp),%rax
    1ab8:	48 89 c7             	mov    %rax,%rdi
    1abb:	e8 c2 9f 00 00       	callq  ba82 <_ZN4Heap3popEv>
    1ac0:	48 8d 85 30 ed df ff 	lea    -0x2012d0(%rbp),%rax
    1ac7:	48 8d 50 0c          	lea    0xc(%rax),%rdx
    1acb:	48 8d 85 f0 ff df ff 	lea    -0x200010(%rbp),%rax
    1ad2:	48 89 d6             	mov    %rdx,%rsi
    1ad5:	48 89 c7             	mov    %rax,%rdi
    1ad8:	e8 4d 9e 00 00       	callq  b92a <_ZN4Heap4pushEP4Grid>
    1add:	48 8d 85 f0 ff df ff 	lea    -0x200010(%rbp),%rax
    1ae4:	48 89 c7             	mov    %rax,%rdi
    1ae7:	e8 96 9f 00 00       	callq  ba82 <_ZN4Heap3popEv>
    1aec:	48 8d 85 30 ed df ff 	lea    -0x2012d0(%rbp),%rax
    1af3:	48 8d 50 0c          	lea    0xc(%rax),%rdx
    1af7:	48 8d 85 f0 ff df ff 	lea    -0x200010(%rbp),%rax
    1afe:	48 89 d6             	mov    %rdx,%rsi
    1b01:	48 89 c7             	mov    %rax,%rdi
    1b04:	e8 21 9e 00 00       	callq  b92a <_ZN4Heap4pushEP4Grid>
    1b09:	48 8d 85 f0 ff df ff 	lea    -0x200010(%rbp),%rax
    1b10:	48 89 c7             	mov    %rax,%rdi
    1b13:	e8 6a 9f 00 00       	callq  ba82 <_ZN4Heap3popEv>
    1b18:	48 8d 85 30 ed df ff 	lea    -0x2012d0(%rbp),%rax
    1b1f:	48 8d 50 0c          	lea    0xc(%rax),%rdx
    1b23:	48 8d 85 f0 ff df ff 	lea    -0x200010(%rbp),%rax
    1b2a:	48 89 d6             	mov    %rdx,%rsi
    1b2d:	48 89 c7             	mov    %rax,%rdi
    1b30:	e8 f5 9d 00 00       	callq  b92a <_ZN4Heap4pushEP4Grid>
    1b35:	48 8d 85 f0 ff df ff 	lea    -0x200010(%rbp),%rax
    1b3c:	48 89 c7             	mov    %rax,%rdi
    1b3f:	e8 3e 9f 00 00       	callq  ba82 <_ZN4Heap3popEv>
    1b44:	48 8d 85 30 ed df ff 	lea    -0x2012d0(%rbp),%rax
    1b4b:	48 8d 50 0c          	lea    0xc(%rax),%rdx
    1b4f:	48 8d 85 f0 ff df ff 	lea    -0x200010(%rbp),%rax
    1b56:	48 89 d6             	mov    %rdx,%rsi
    1b59:	48 89 c7             	mov    %rax,%rdi
    1b5c:	e8 c9 9d 00 00       	callq  b92a <_ZN4Heap4pushEP4Grid>
    1b61:	48 8d 85 f0 ff df ff 	lea    -0x200010(%rbp),%rax
    1b68:	48 89 c7             	mov    %rax,%rdi
    1b6b:	e8 12 9f 00 00       	callq  ba82 <_ZN4Heap3popEv>
    1b70:	48 8d 85 30 ed df ff 	lea    -0x2012d0(%rbp),%rax
    1b77:	48 8d 50 0c          	lea    0xc(%rax),%rdx
    1b7b:	48 8d 85 f0 ff df ff 	lea    -0x200010(%rbp),%rax
    1b82:	48 89 d6             	mov    %rdx,%rsi
    1b85:	48 89 c7             	mov    %rax,%rdi
    1b88:	e8 9d 9d 00 00       	callq  b92a <_ZN4Heap4pushEP4Grid>
    1b8d:	48 8d 85 f0 ff df ff 	lea    -0x200010(%rbp),%rax
    1b94:	48 89 c7             	mov    %rax,%rdi
    1b97:	e8 e6 9e 00 00       	callq  ba82 <_ZN4Heap3popEv>
    1b9c:	48 8d 85 30 ed df ff 	lea    -0x2012d0(%rbp),%rax
    1ba3:	48 8d 50 0c          	lea    0xc(%rax),%rdx
    1ba7:	48 8d 85 f0 ff df ff 	lea    -0x200010(%rbp),%rax
    1bae:	48 89 d6             	mov    %rdx,%rsi
    1bb1:	48 89 c7             	mov    %rax,%rdi
    1bb4:	e8 71 9d 00 00       	callq  b92a <_ZN4Heap4pushEP4Grid>
    1bb9:	48 8d 85 f0 ff df ff 	lea    -0x200010(%rbp),%rax
    1bc0:	48 89 c7             	mov    %rax,%rdi
    1bc3:	e8 ba 9e 00 00       	callq  ba82 <_ZN4Heap3popEv>
    1bc8:	48 8d 85 30 ed df ff 	lea    -0x2012d0(%rbp),%rax
    1bcf:	48 8d 50 0c          	lea    0xc(%rax),%rdx
    1bd3:	48 8d 85 f0 ff df ff 	lea    -0x200010(%rbp),%rax
    1bda:	48 89 d6             	mov    %rdx,%rsi
    1bdd:	48 89 c7             	mov    %rax,%rdi
    1be0:	e8 45 9d 00 00       	callq  b92a <_ZN4Heap4pushEP4Grid>
    1be5:	48 8d 85 f0 ff df ff 	lea    -0x200010(%rbp),%rax
    1bec:	48 89 c7             	mov    %rax,%rdi
    1bef:	e8 8e 9e 00 00       	callq  ba82 <_ZN4Heap3popEv>
    1bf4:	48 8d 85 30 ed df ff 	lea    -0x2012d0(%rbp),%rax
    1bfb:	48 8d 50 0c          	lea    0xc(%rax),%rdx
    1bff:	48 8d 85 f0 ff df ff 	lea    -0x200010(%rbp),%rax
    1c06:	48 89 d6             	mov    %rdx,%rsi
    1c09:	48 89 c7             	mov    %rax,%rdi
    1c0c:	e8 19 9d 00 00       	callq  b92a <_ZN4Heap4pushEP4Grid>
    1c11:	48 8d 85 f0 ff df ff 	lea    -0x200010(%rbp),%rax
    1c18:	48 89 c7             	mov    %rax,%rdi
    1c1b:	e8 62 9e 00 00       	callq  ba82 <_ZN4Heap3popEv>
    1c20:	48 8d 85 30 ed df ff 	lea    -0x2012d0(%rbp),%rax
    1c27:	48 8d 50 0c          	lea    0xc(%rax),%rdx
    1c2b:	48 8d 85 f0 ff df ff 	lea    -0x200010(%rbp),%rax
    1c32:	48 89 d6             	mov    %rdx,%rsi
    1c35:	48 89 c7             	mov    %rax,%rdi
    1c38:	e8 ed 9c 00 00       	callq  b92a <_ZN4Heap4pushEP4Grid>
    1c3d:	48 8d 85 f0 ff df ff 	lea    -0x200010(%rbp),%rax
    1c44:	48 89 c7             	mov    %rax,%rdi
    1c47:	e8 36 9e 00 00       	callq  ba82 <_ZN4Heap3popEv>
    1c4c:	48 8d 85 30 ed df ff 	lea    -0x2012d0(%rbp),%rax
    1c53:	48 8d 50 0c          	lea    0xc(%rax),%rdx
    1c57:	48 8d 85 f0 ff df ff 	lea    -0x200010(%rbp),%rax
    1c5e:	48 89 d6             	mov    %rdx,%rsi
    1c61:	48 89 c7             	mov    %rax,%rdi
    1c64:	e8 c1 9c 00 00       	callq  b92a <_ZN4Heap4pushEP4Grid>
    1c69:	48 8d 85 f0 ff df ff 	lea    -0x200010(%rbp),%rax
    1c70:	48 89 c7             	mov    %rax,%rdi
    1c73:	e8 0a 9e 00 00       	callq  ba82 <_ZN4Heap3popEv>
    1c78:	48 8d 85 30 ed df ff 	lea    -0x2012d0(%rbp),%rax
    1c7f:	48 8d 50 0c          	lea    0xc(%rax),%rdx
    1c83:	48 8d 85 f0 ff df ff 	lea    -0x200010(%rbp),%rax
    1c8a:	48 89 d6             	mov    %rdx,%rsi
    1c8d:	48 89 c7             	mov    %rax,%rdi
    1c90:	e8 95 9c 00 00       	callq  b92a <_ZN4Heap4pushEP4Grid>
    1c95:	48 8d 85 f0 ff df ff 	lea    -0x200010(%rbp),%rax
    1c9c:	48 89 c7             	mov    %rax,%rdi
    1c9f:	e8 de 9d 00 00       	callq  ba82 <_ZN4Heap3popEv>
    1ca4:	48 8d 85 30 ed df ff 	lea    -0x2012d0(%rbp),%rax
    1cab:	48 8d 50 0c          	lea    0xc(%rax),%rdx
    1caf:	48 8d 85 f0 ff df ff 	lea    -0x200010(%rbp),%rax
    1cb6:	48 89 d6             	mov    %rdx,%rsi
    1cb9:	48 89 c7             	mov    %rax,%rdi
    1cbc:	e8 69 9c 00 00       	callq  b92a <_ZN4Heap4pushEP4Grid>
    1cc1:	48 8d 85 f0 ff df ff 	lea    -0x200010(%rbp),%rax
    1cc8:	48 89 c7             	mov    %rax,%rdi
    1ccb:	e8 b2 9d 00 00       	callq  ba82 <_ZN4Heap3popEv>
    1cd0:	48 8d 85 30 ed df ff 	lea    -0x2012d0(%rbp),%rax
    1cd7:	48 8d 50 0c          	lea    0xc(%rax),%rdx
    1cdb:	48 8d 85 f0 ff df ff 	lea    -0x200010(%rbp),%rax
    1ce2:	48 89 d6             	mov    %rdx,%rsi
    1ce5:	48 89 c7             	mov    %rax,%rdi
    1ce8:	e8 3d 9c 00 00       	callq  b92a <_ZN4Heap4pushEP4Grid>
    1ced:	48 8d 85 f0 ff df ff 	lea    -0x200010(%rbp),%rax
    1cf4:	48 89 c7             	mov    %rax,%rdi
    1cf7:	e8 86 9d 00 00       	callq  ba82 <_ZN4Heap3popEv>
    1cfc:	48 8d 85 30 ed df ff 	lea    -0x2012d0(%rbp),%rax
    1d03:	48 8d 50 0c          	lea    0xc(%rax),%rdx
    1d07:	48 8d 85 f0 ff df ff 	lea    -0x200010(%rbp),%rax
    1d0e:	48 89 d6             	mov    %rdx,%rsi
    1d11:	48 89 c7             	mov    %rax,%rdi
    1d14:	e8 11 9c 00 00       	callq  b92a <_ZN4Heap4pushEP4Grid>
    1d19:	48 8d 85 f0 ff df ff 	lea    -0x200010(%rbp),%rax
    1d20:	48 89 c7             	mov    %rax,%rdi
    1d23:	e8 5a 9d 00 00       	callq  ba82 <_ZN4Heap3popEv>
    1d28:	48 8d 85 30 ed df ff 	lea    -0x2012d0(%rbp),%rax
    1d2f:	48 8d 50 0c          	lea    0xc(%rax),%rdx
    1d33:	48 8d 85 f0 ff df ff 	lea    -0x200010(%rbp),%rax
    1d3a:	48 89 d6             	mov    %rdx,%rsi
    1d3d:	48 89 c7             	mov    %rax,%rdi
    1d40:	e8 e5 9b 00 00       	callq  b92a <_ZN4Heap4pushEP4Grid>
    1d45:	48 8d 85 f0 ff df ff 	lea    -0x200010(%rbp),%rax
    1d4c:	48 89 c7             	mov    %rax,%rdi
    1d4f:	e8 2e 9d 00 00       	callq  ba82 <_ZN4Heap3popEv>
    1d54:	48 8d 85 30 ed df ff 	lea    -0x2012d0(%rbp),%rax
    1d5b:	48 8d 50 0c          	lea    0xc(%rax),%rdx
    1d5f:	48 8d 85 f0 ff df ff 	lea    -0x200010(%rbp),%rax
    1d66:	48 89 d6             	mov    %rdx,%rsi
    1d69:	48 89 c7             	mov    %rax,%rdi
    1d6c:	e8 b9 9b 00 00       	callq  b92a <_ZN4Heap4pushEP4Grid>
    1d71:	48 8d 85 f0 ff df ff 	lea    -0x200010(%rbp),%rax
    1d78:	48 89 c7             	mov    %rax,%rdi
    1d7b:	e8 02 9d 00 00       	callq  ba82 <_ZN4Heap3popEv>
    1d80:	48 8d 85 30 ed df ff 	lea    -0x2012d0(%rbp),%rax
    1d87:	48 8d 50 0c          	lea    0xc(%rax),%rdx
    1d8b:	48 8d 85 f0 ff df ff 	lea    -0x200010(%rbp),%rax
    1d92:	48 89 d6             	mov    %rdx,%rsi
    1d95:	48 89 c7             	mov    %rax,%rdi
    1d98:	e8 8d 9b 00 00       	callq  b92a <_ZN4Heap4pushEP4Grid>
    1d9d:	48 8d 85 f0 ff df ff 	lea    -0x200010(%rbp),%rax
    1da4:	48 89 c7             	mov    %rax,%rdi
    1da7:	e8 d6 9c 00 00       	callq  ba82 <_ZN4Heap3popEv>
    1dac:	48 8d 85 30 ed df ff 	lea    -0x2012d0(%rbp),%rax
    1db3:	48 8d 50 0c          	lea    0xc(%rax),%rdx
    1db7:	48 8d 85 f0 ff df ff 	lea    -0x200010(%rbp),%rax
    1dbe:	48 89 d6             	mov    %rdx,%rsi
    1dc1:	48 89 c7             	mov    %rax,%rdi
    1dc4:	e8 61 9b 00 00       	callq  b92a <_ZN4Heap4pushEP4Grid>
    1dc9:	48 8d 85 f0 ff df ff 	lea    -0x200010(%rbp),%rax
    1dd0:	48 89 c7             	mov    %rax,%rdi
    1dd3:	e8 aa 9c 00 00       	callq  ba82 <_ZN4Heap3popEv>
    1dd8:	48 8d 85 30 ed df ff 	lea    -0x2012d0(%rbp),%rax
    1ddf:	48 8d 50 0c          	lea    0xc(%rax),%rdx
    1de3:	48 8d 85 f0 ff df ff 	lea    -0x200010(%rbp),%rax
    1dea:	48 89 d6             	mov    %rdx,%rsi
    1ded:	48 89 c7             	mov    %rax,%rdi
    1df0:	e8 35 9b 00 00       	callq  b92a <_ZN4Heap4pushEP4Grid>
    1df5:	48 8d 85 f0 ff df ff 	lea    -0x200010(%rbp),%rax
    1dfc:	48 89 c7             	mov    %rax,%rdi
    1dff:	e8 7e 9c 00 00       	callq  ba82 <_ZN4Heap3popEv>
    1e04:	48 8d 85 30 ed df ff 	lea    -0x2012d0(%rbp),%rax
    1e0b:	48 8d 50 0c          	lea    0xc(%rax),%rdx
    1e0f:	48 8d 85 f0 ff df ff 	lea    -0x200010(%rbp),%rax
    1e16:	48 89 d6             	mov    %rdx,%rsi
    1e19:	48 89 c7             	mov    %rax,%rdi
    1e1c:	e8 09 9b 00 00       	callq  b92a <_ZN4Heap4pushEP4Grid>
    1e21:	48 8d 85 f0 ff df ff 	lea    -0x200010(%rbp),%rax
    1e28:	48 89 c7             	mov    %rax,%rdi
    1e2b:	e8 52 9c 00 00       	callq  ba82 <_ZN4Heap3popEv>
    1e30:	48 8d 85 30 ed df ff 	lea    -0x2012d0(%rbp),%rax
    1e37:	48 8d 50 0c          	lea    0xc(%rax),%rdx
    1e3b:	48 8d 85 f0 ff df ff 	lea    -0x200010(%rbp),%rax
    1e42:	48 89 d6             	mov    %rdx,%rsi
    1e45:	48 89 c7             	mov    %rax,%rdi
    1e48:	e8 dd 9a 00 00       	callq  b92a <_ZN4Heap4pushEP4Grid>
    1e4d:	48 8d 85 f0 ff df ff 	lea    -0x200010(%rbp),%rax
    1e54:	48 89 c7             	mov    %rax,%rdi
    1e57:	e8 26 9c 00 00       	callq  ba82 <_ZN4Heap3popEv>
    1e5c:	48 8d 85 30 ed df ff 	lea    -0x2012d0(%rbp),%rax
    1e63:	48 8d 50 0c          	lea    0xc(%rax),%rdx
    1e67:	48 8d 85 f0 ff df ff 	lea    -0x200010(%rbp),%rax
    1e6e:	48 89 d6             	mov    %rdx,%rsi
    1e71:	48 89 c7             	mov    %rax,%rdi
    1e74:	e8 b1 9a 00 00       	callq  b92a <_ZN4Heap4pushEP4Grid>
    1e79:	48 8d 85 f0 ff df ff 	lea    -0x200010(%rbp),%rax
    1e80:	48 89 c7             	mov    %rax,%rdi
    1e83:	e8 fa 9b 00 00       	callq  ba82 <_ZN4Heap3popEv>
    1e88:	48 8d 85 30 ed df ff 	lea    -0x2012d0(%rbp),%rax
    1e8f:	48 8d 50 0c          	lea    0xc(%rax),%rdx
    1e93:	48 8d 85 f0 ff df ff 	lea    -0x200010(%rbp),%rax
    1e9a:	48 89 d6             	mov    %rdx,%rsi
    1e9d:	48 89 c7             	mov    %rax,%rdi
    1ea0:	e8 85 9a 00 00       	callq  b92a <_ZN4Heap4pushEP4Grid>
    1ea5:	48 8d 85 f0 ff df ff 	lea    -0x200010(%rbp),%rax
    1eac:	48 89 c7             	mov    %rax,%rdi
    1eaf:	e8 ce 9b 00 00       	callq  ba82 <_ZN4Heap3popEv>
    1eb4:	48 8d 85 30 ed df ff 	lea    -0x2012d0(%rbp),%rax
    1ebb:	48 8d 50 0c          	lea    0xc(%rax),%rdx
    1ebf:	48 8d 85 f0 ff df ff 	lea    -0x200010(%rbp),%rax
    1ec6:	48 89 d6             	mov    %rdx,%rsi
    1ec9:	48 89 c7             	mov    %rax,%rdi
    1ecc:	e8 59 9a 00 00       	callq  b92a <_ZN4Heap4pushEP4Grid>
    1ed1:	48 8d 85 f0 ff df ff 	lea    -0x200010(%rbp),%rax
    1ed8:	48 89 c7             	mov    %rax,%rdi
    1edb:	e8 a2 9b 00 00       	callq  ba82 <_ZN4Heap3popEv>
    1ee0:	48 8d 85 30 ed df ff 	lea    -0x2012d0(%rbp),%rax
    1ee7:	48 8d 50 0c          	lea    0xc(%rax),%rdx
    1eeb:	48 8d 85 f0 ff df ff 	lea    -0x200010(%rbp),%rax
    1ef2:	48 89 d6             	mov    %rdx,%rsi
    1ef5:	48 89 c7             	mov    %rax,%rdi
    1ef8:	e8 2d 9a 00 00       	callq  b92a <_ZN4Heap4pushEP4Grid>
    1efd:	48 8d 85 f0 ff df ff 	lea    -0x200010(%rbp),%rax
    1f04:	48 89 c7             	mov    %rax,%rdi
    1f07:	e8 76 9b 00 00       	callq  ba82 <_ZN4Heap3popEv>
    1f0c:	48 8d 85 30 ed df ff 	lea    -0x2012d0(%rbp),%rax
    1f13:	48 8d 50 0c          	lea    0xc(%rax),%rdx
    1f17:	48 8d 85 f0 ff df ff 	lea    -0x200010(%rbp),%rax
    1f1e:	48 89 d6             	mov    %rdx,%rsi
    1f21:	48 89 c7             	mov    %rax,%rdi
    1f24:	e8 01 9a 00 00       	callq  b92a <_ZN4Heap4pushEP4Grid>
    1f29:	48 8d 85 f0 ff df ff 	lea    -0x200010(%rbp),%rax
    1f30:	48 89 c7             	mov    %rax,%rdi
    1f33:	e8 4a 9b 00 00       	callq  ba82 <_ZN4Heap3popEv>
    1f38:	48 8d 85 30 ed df ff 	lea    -0x2012d0(%rbp),%rax
    1f3f:	48 8d 50 0c          	lea    0xc(%rax),%rdx
    1f43:	48 8d 85 f0 ff df ff 	lea    -0x200010(%rbp),%rax
    1f4a:	48 89 d6             	mov    %rdx,%rsi
    1f4d:	48 89 c7             	mov    %rax,%rdi
    1f50:	e8 d5 99 00 00       	callq  b92a <_ZN4Heap4pushEP4Grid>
    1f55:	48 8d 85 f0 ff df ff 	lea    -0x200010(%rbp),%rax
    1f5c:	48 89 c7             	mov    %rax,%rdi
    1f5f:	e8 1e 9b 00 00       	callq  ba82 <_ZN4Heap3popEv>
    1f64:	48 8d 85 30 ed df ff 	lea    -0x2012d0(%rbp),%rax
    1f6b:	48 8d 50 0c          	lea    0xc(%rax),%rdx
    1f6f:	48 8d 85 f0 ff df ff 	lea    -0x200010(%rbp),%rax
    1f76:	48 89 d6             	mov    %rdx,%rsi
    1f79:	48 89 c7             	mov    %rax,%rdi
    1f7c:	e8 a9 99 00 00       	callq  b92a <_ZN4Heap4pushEP4Grid>
    1f81:	48 8d 85 f0 ff df ff 	lea    -0x200010(%rbp),%rax
    1f88:	48 89 c7             	mov    %rax,%rdi
    1f8b:	e8 f2 9a 00 00       	callq  ba82 <_ZN4Heap3popEv>
    1f90:	48 8d 85 30 ed df ff 	lea    -0x2012d0(%rbp),%rax
    1f97:	48 8d 50 0c          	lea    0xc(%rax),%rdx
    1f9b:	48 8d 85 f0 ff df ff 	lea    -0x200010(%rbp),%rax
    1fa2:	48 89 d6             	mov    %rdx,%rsi
    1fa5:	48 89 c7             	mov    %rax,%rdi
    1fa8:	e8 7d 99 00 00       	callq  b92a <_ZN4Heap4pushEP4Grid>
    1fad:	48 8d 85 f0 ff df ff 	lea    -0x200010(%rbp),%rax
    1fb4:	48 89 c7             	mov    %rax,%rdi
    1fb7:	e8 c6 9a 00 00       	callq  ba82 <_ZN4Heap3popEv>
    1fbc:	48 8d 85 30 ed df ff 	lea    -0x2012d0(%rbp),%rax
    1fc3:	48 8d 50 0c          	lea    0xc(%rax),%rdx
    1fc7:	48 8d 85 f0 ff df ff 	lea    -0x200010(%rbp),%rax
    1fce:	48 89 d6             	mov    %rdx,%rsi
    1fd1:	48 89 c7             	mov    %rax,%rdi
    1fd4:	e8 51 99 00 00       	callq  b92a <_ZN4Heap4pushEP4Grid>
    1fd9:	48 8d 85 f0 ff df ff 	lea    -0x200010(%rbp),%rax
    1fe0:	48 89 c7             	mov    %rax,%rdi
    1fe3:	e8 9a 9a 00 00       	callq  ba82 <_ZN4Heap3popEv>
    1fe8:	48 8d 85 30 ed df ff 	lea    -0x2012d0(%rbp),%rax
    1fef:	48 8d 50 0c          	lea    0xc(%rax),%rdx
    1ff3:	48 8d 85 f0 ff df ff 	lea    -0x200010(%rbp),%rax
    1ffa:	48 89 d6             	mov    %rdx,%rsi
    1ffd:	48 89 c7             	mov    %rax,%rdi
    2000:	e8 25 99 00 00       	callq  b92a <_ZN4Heap4pushEP4Grid>
    2005:	48 8d 85 f0 ff df ff 	lea    -0x200010(%rbp),%rax
    200c:	48 89 c7             	mov    %rax,%rdi
    200f:	e8 6e 9a 00 00       	callq  ba82 <_ZN4Heap3popEv>
    2014:	48 8d 85 30 ed df ff 	lea    -0x2012d0(%rbp),%rax
    201b:	48 8d 50 0c          	lea    0xc(%rax),%rdx
    201f:	48 8d 85 f0 ff df ff 	lea    -0x200010(%rbp),%rax
    2026:	48 89 d6             	mov    %rdx,%rsi
    2029:	48 89 c7             	mov    %rax,%rdi
    202c:	e8 f9 98 00 00       	callq  b92a <_ZN4Heap4pushEP4Grid>
    2031:	48 8d 85 f0 ff df ff 	lea    -0x200010(%rbp),%rax
    2038:	48 89 c7             	mov    %rax,%rdi
    203b:	e8 42 9a 00 00       	callq  ba82 <_ZN4Heap3popEv>
    2040:	48 8d 85 30 ed df ff 	lea    -0x2012d0(%rbp),%rax
    2047:	48 8d 50 0c          	lea    0xc(%rax),%rdx
    204b:	48 8d 85 f0 ff df ff 	lea    -0x200010(%rbp),%rax
    2052:	48 89 d6             	mov    %rdx,%rsi
    2055:	48 89 c7             	mov    %rax,%rdi
    2058:	e8 cd 98 00 00       	callq  b92a <_ZN4Heap4pushEP4Grid>
    205d:	48 8d 85 f0 ff df ff 	lea    -0x200010(%rbp),%rax
    2064:	48 89 c7             	mov    %rax,%rdi
    2067:	e8 16 9a 00 00       	callq  ba82 <_ZN4Heap3popEv>
    206c:	48 8d 85 30 ed df ff 	lea    -0x2012d0(%rbp),%rax
    2073:	48 8d 50 0c          	lea    0xc(%rax),%rdx
    2077:	48 8d 85 f0 ff df ff 	lea    -0x200010(%rbp),%rax
    207e:	48 89 d6             	mov    %rdx,%rsi
    2081:	48 89 c7             	mov    %rax,%rdi
    2084:	e8 a1 98 00 00       	callq  b92a <_ZN4Heap4pushEP4Grid>
    2089:	48 8d 85 f0 ff df ff 	lea    -0x200010(%rbp),%rax
    2090:	48 89 c7             	mov    %rax,%rdi
    2093:	e8 ea 99 00 00       	callq  ba82 <_ZN4Heap3popEv>
    2098:	48 8d 85 30 ed df ff 	lea    -0x2012d0(%rbp),%rax
    209f:	48 8d 50 0c          	lea    0xc(%rax),%rdx
    20a3:	48 8d 85 f0 ff df ff 	lea    -0x200010(%rbp),%rax
    20aa:	48 89 d6             	mov    %rdx,%rsi
    20ad:	48 89 c7             	mov    %rax,%rdi
    20b0:	e8 75 98 00 00       	callq  b92a <_ZN4Heap4pushEP4Grid>
    20b5:	48 8d 85 f0 ff df ff 	lea    -0x200010(%rbp),%rax
    20bc:	48 89 c7             	mov    %rax,%rdi
    20bf:	e8 be 99 00 00       	callq  ba82 <_ZN4Heap3popEv>
    20c4:	48 8d 85 30 ed df ff 	lea    -0x2012d0(%rbp),%rax
    20cb:	48 8d 50 0c          	lea    0xc(%rax),%rdx
    20cf:	48 8d 85 f0 ff df ff 	lea    -0x200010(%rbp),%rax
    20d6:	48 89 d6             	mov    %rdx,%rsi
    20d9:	48 89 c7             	mov    %rax,%rdi
    20dc:	e8 49 98 00 00       	callq  b92a <_ZN4Heap4pushEP4Grid>
    20e1:	48 8d 85 f0 ff df ff 	lea    -0x200010(%rbp),%rax
    20e8:	48 89 c7             	mov    %rax,%rdi
    20eb:	e8 92 99 00 00       	callq  ba82 <_ZN4Heap3popEv>
    20f0:	48 8d 85 30 ed df ff 	lea    -0x2012d0(%rbp),%rax
    20f7:	48 8d 50 0c          	lea    0xc(%rax),%rdx
    20fb:	48 8d 85 f0 ff df ff 	lea    -0x200010(%rbp),%rax
    2102:	48 89 d6             	mov    %rdx,%rsi
    2105:	48 89 c7             	mov    %rax,%rdi
    2108:	e8 1d 98 00 00       	callq  b92a <_ZN4Heap4pushEP4Grid>
    210d:	48 8d 85 f0 ff df ff 	lea    -0x200010(%rbp),%rax
    2114:	48 89 c7             	mov    %rax,%rdi
    2117:	e8 66 99 00 00       	callq  ba82 <_ZN4Heap3popEv>
    211c:	48 8d 85 30 ed df ff 	lea    -0x2012d0(%rbp),%rax
    2123:	48 8d 50 0c          	lea    0xc(%rax),%rdx
    2127:	48 8d 85 f0 ff df ff 	lea    -0x200010(%rbp),%rax
    212e:	48 89 d6             	mov    %rdx,%rsi
    2131:	48 89 c7             	mov    %rax,%rdi
    2134:	e8 f1 97 00 00       	callq  b92a <_ZN4Heap4pushEP4Grid>
    2139:	48 8d 85 f0 ff df ff 	lea    -0x200010(%rbp),%rax
    2140:	48 89 c7             	mov    %rax,%rdi
    2143:	e8 3a 99 00 00       	callq  ba82 <_ZN4Heap3popEv>
    2148:	48 8d 85 30 ed df ff 	lea    -0x2012d0(%rbp),%rax
    214f:	48 8d 50 0c          	lea    0xc(%rax),%rdx
    2153:	48 8d 85 f0 ff df ff 	lea    -0x200010(%rbp),%rax
    215a:	48 89 d6             	mov    %rdx,%rsi
    215d:	48 89 c7             	mov    %rax,%rdi
    2160:	e8 c5 97 00 00       	callq  b92a <_ZN4Heap4pushEP4Grid>
    2165:	48 8d 85 f0 ff df ff 	lea    -0x200010(%rbp),%rax
    216c:	48 89 c7             	mov    %rax,%rdi
    216f:	e8 0e 99 00 00       	callq  ba82 <_ZN4Heap3popEv>
    2174:	48 8d 85 30 ed df ff 	lea    -0x2012d0(%rbp),%rax
    217b:	48 8d 50 0c          	lea    0xc(%rax),%rdx
    217f:	48 8d 85 f0 ff df ff 	lea    -0x200010(%rbp),%rax
    2186:	48 89 d6             	mov    %rdx,%rsi
    2189:	48 89 c7             	mov    %rax,%rdi
    218c:	e8 99 97 00 00       	callq  b92a <_ZN4Heap4pushEP4Grid>
    2191:	48 8d 85 f0 ff df ff 	lea    -0x200010(%rbp),%rax
    2198:	48 89 c7             	mov    %rax,%rdi
    219b:	e8 e2 98 00 00       	callq  ba82 <_ZN4Heap3popEv>
    21a0:	48 8d 85 30 ed df ff 	lea    -0x2012d0(%rbp),%rax
    21a7:	48 8d 50 0c          	lea    0xc(%rax),%rdx
    21ab:	48 8d 85 f0 ff df ff 	lea    -0x200010(%rbp),%rax
    21b2:	48 89 d6             	mov    %rdx,%rsi
    21b5:	48 89 c7             	mov    %rax,%rdi
    21b8:	e8 6d 97 00 00       	callq  b92a <_ZN4Heap4pushEP4Grid>
    21bd:	48 8d 85 f0 ff df ff 	lea    -0x200010(%rbp),%rax
    21c4:	48 89 c7             	mov    %rax,%rdi
    21c7:	e8 b6 98 00 00       	callq  ba82 <_ZN4Heap3popEv>
    21cc:	48 8d 85 30 ed df ff 	lea    -0x2012d0(%rbp),%rax
    21d3:	48 8d 50 0c          	lea    0xc(%rax),%rdx
    21d7:	48 8d 85 f0 ff df ff 	lea    -0x200010(%rbp),%rax
    21de:	48 89 d6             	mov    %rdx,%rsi
    21e1:	48 89 c7             	mov    %rax,%rdi
    21e4:	e8 41 97 00 00       	callq  b92a <_ZN4Heap4pushEP4Grid>
    21e9:	48 8d 85 f0 ff df ff 	lea    -0x200010(%rbp),%rax
    21f0:	48 89 c7             	mov    %rax,%rdi
    21f3:	e8 8a 98 00 00       	callq  ba82 <_ZN4Heap3popEv>
    21f8:	48 8d 85 30 ed df ff 	lea    -0x2012d0(%rbp),%rax
    21ff:	48 8d 50 0c          	lea    0xc(%rax),%rdx
    2203:	48 8d 85 f0 ff df ff 	lea    -0x200010(%rbp),%rax
    220a:	48 89 d6             	mov    %rdx,%rsi
    220d:	48 89 c7             	mov    %rax,%rdi
    2210:	e8 15 97 00 00       	callq  b92a <_ZN4Heap4pushEP4Grid>
    2215:	48 8d 85 f0 ff df ff 	lea    -0x200010(%rbp),%rax
    221c:	48 89 c7             	mov    %rax,%rdi
    221f:	e8 5e 98 00 00       	callq  ba82 <_ZN4Heap3popEv>
    2224:	48 8d 85 30 ed df ff 	lea    -0x2012d0(%rbp),%rax
    222b:	48 8d 50 0c          	lea    0xc(%rax),%rdx
    222f:	48 8d 85 f0 ff df ff 	lea    -0x200010(%rbp),%rax
    2236:	48 89 d6             	mov    %rdx,%rsi
    2239:	48 89 c7             	mov    %rax,%rdi
    223c:	e8 e9 96 00 00       	callq  b92a <_ZN4Heap4pushEP4Grid>
    2241:	48 8d 85 f0 ff df ff 	lea    -0x200010(%rbp),%rax
    2248:	48 89 c7             	mov    %rax,%rdi
    224b:	e8 32 98 00 00       	callq  ba82 <_ZN4Heap3popEv>
    2250:	48 8d 85 30 ed df ff 	lea    -0x2012d0(%rbp),%rax
    2257:	48 8d 50 0c          	lea    0xc(%rax),%rdx
    225b:	48 8d 85 f0 ff df ff 	lea    -0x200010(%rbp),%rax
    2262:	48 89 d6             	mov    %rdx,%rsi
    2265:	48 89 c7             	mov    %rax,%rdi
    2268:	e8 bd 96 00 00       	callq  b92a <_ZN4Heap4pushEP4Grid>
    226d:	48 8d 85 f0 ff df ff 	lea    -0x200010(%rbp),%rax
    2274:	48 89 c7             	mov    %rax,%rdi
    2277:	e8 06 98 00 00       	callq  ba82 <_ZN4Heap3popEv>
    227c:	48 8d 85 30 ed df ff 	lea    -0x2012d0(%rbp),%rax
    2283:	48 8d 50 0c          	lea    0xc(%rax),%rdx
    2287:	48 8d 85 f0 ff df ff 	lea    -0x200010(%rbp),%rax
    228e:	48 89 d6             	mov    %rdx,%rsi
    2291:	48 89 c7             	mov    %rax,%rdi
    2294:	e8 91 96 00 00       	callq  b92a <_ZN4Heap4pushEP4Grid>
    2299:	48 8d 85 f0 ff df ff 	lea    -0x200010(%rbp),%rax
    22a0:	48 89 c7             	mov    %rax,%rdi
    22a3:	e8 da 97 00 00       	callq  ba82 <_ZN4Heap3popEv>
    22a8:	48 8d 85 30 ed df ff 	lea    -0x2012d0(%rbp),%rax
    22af:	48 8d 50 0c          	lea    0xc(%rax),%rdx
    22b3:	48 8d 85 f0 ff df ff 	lea    -0x200010(%rbp),%rax
    22ba:	48 89 d6             	mov    %rdx,%rsi
    22bd:	48 89 c7             	mov    %rax,%rdi
    22c0:	e8 65 96 00 00       	callq  b92a <_ZN4Heap4pushEP4Grid>
    22c5:	48 8d 85 f0 ff df ff 	lea    -0x200010(%rbp),%rax
    22cc:	48 89 c7             	mov    %rax,%rdi
    22cf:	e8 ae 97 00 00       	callq  ba82 <_ZN4Heap3popEv>
    22d4:	48 8d 85 30 ed df ff 	lea    -0x2012d0(%rbp),%rax
    22db:	48 8d 50 0c          	lea    0xc(%rax),%rdx
    22df:	48 8d 85 f0 ff df ff 	lea    -0x200010(%rbp),%rax
    22e6:	48 89 d6             	mov    %rdx,%rsi
    22e9:	48 89 c7             	mov    %rax,%rdi
    22ec:	e8 39 96 00 00       	callq  b92a <_ZN4Heap4pushEP4Grid>
    22f1:	48 8d 85 f0 ff df ff 	lea    -0x200010(%rbp),%rax
    22f8:	48 89 c7             	mov    %rax,%rdi
    22fb:	e8 82 97 00 00       	callq  ba82 <_ZN4Heap3popEv>
    2300:	48 8d 85 30 ed df ff 	lea    -0x2012d0(%rbp),%rax
    2307:	48 8d 50 0c          	lea    0xc(%rax),%rdx
    230b:	48 8d 85 f0 ff df ff 	lea    -0x200010(%rbp),%rax
    2312:	48 89 d6             	mov    %rdx,%rsi
    2315:	48 89 c7             	mov    %rax,%rdi
    2318:	e8 0d 96 00 00       	callq  b92a <_ZN4Heap4pushEP4Grid>
    231d:	48 8d 85 f0 ff df ff 	lea    -0x200010(%rbp),%rax
    2324:	48 89 c7             	mov    %rax,%rdi
    2327:	e8 56 97 00 00       	callq  ba82 <_ZN4Heap3popEv>
    232c:	48 8d 85 30 ed df ff 	lea    -0x2012d0(%rbp),%rax
    2333:	48 8d 50 0c          	lea    0xc(%rax),%rdx
    2337:	48 8d 85 f0 ff df ff 	lea    -0x200010(%rbp),%rax
    233e:	48 89 d6             	mov    %rdx,%rsi
    2341:	48 89 c7             	mov    %rax,%rdi
    2344:	e8 e1 95 00 00       	callq  b92a <_ZN4Heap4pushEP4Grid>
    2349:	48 8d 85 f0 ff df ff 	lea    -0x200010(%rbp),%rax
    2350:	48 89 c7             	mov    %rax,%rdi
    2353:	e8 2a 97 00 00       	callq  ba82 <_ZN4Heap3popEv>
    2358:	48 8d 85 30 ed df ff 	lea    -0x2012d0(%rbp),%rax
    235f:	48 8d 50 0c          	lea    0xc(%rax),%rdx
    2363:	48 8d 85 f0 ff df ff 	lea    -0x200010(%rbp),%rax
    236a:	48 89 d6             	mov    %rdx,%rsi
    236d:	48 89 c7             	mov    %rax,%rdi
    2370:	e8 b5 95 00 00       	callq  b92a <_ZN4Heap4pushEP4Grid>
    2375:	48 8d 85 f0 ff df ff 	lea    -0x200010(%rbp),%rax
    237c:	48 89 c7             	mov    %rax,%rdi
    237f:	e8 fe 96 00 00       	callq  ba82 <_ZN4Heap3popEv>
    2384:	48 8d 85 30 ed df ff 	lea    -0x2012d0(%rbp),%rax
    238b:	48 8d 50 0c          	lea    0xc(%rax),%rdx
    238f:	48 8d 85 f0 ff df ff 	lea    -0x200010(%rbp),%rax
    2396:	48 89 d6             	mov    %rdx,%rsi
    2399:	48 89 c7             	mov    %rax,%rdi
    239c:	e8 89 95 00 00       	callq  b92a <_ZN4Heap4pushEP4Grid>
    23a1:	48 8d 85 f0 ff df ff 	lea    -0x200010(%rbp),%rax
    23a8:	48 89 c7             	mov    %rax,%rdi
    23ab:	e8 d2 96 00 00       	callq  ba82 <_ZN4Heap3popEv>
    23b0:	48 8d 85 30 ed df ff 	lea    -0x2012d0(%rbp),%rax
    23b7:	48 8d 50 0c          	lea    0xc(%rax),%rdx
    23bb:	48 8d 85 f0 ff df ff 	lea    -0x200010(%rbp),%rax
    23c2:	48 89 d6             	mov    %rdx,%rsi
    23c5:	48 89 c7             	mov    %rax,%rdi
    23c8:	e8 5d 95 00 00       	callq  b92a <_ZN4Heap4pushEP4Grid>
    23cd:	48 8d 85 f0 ff df ff 	lea    -0x200010(%rbp),%rax
    23d4:	48 89 c7             	mov    %rax,%rdi
    23d7:	e8 a6 96 00 00       	callq  ba82 <_ZN4Heap3popEv>
    23dc:	48 8d 85 30 ed df ff 	lea    -0x2012d0(%rbp),%rax
    23e3:	48 8d 50 0c          	lea    0xc(%rax),%rdx
    23e7:	48 8d 85 f0 ff df ff 	lea    -0x200010(%rbp),%rax
    23ee:	48 89 d6             	mov    %rdx,%rsi
    23f1:	48 89 c7             	mov    %rax,%rdi
    23f4:	e8 31 95 00 00       	callq  b92a <_ZN4Heap4pushEP4Grid>
    23f9:	48 8d 85 f0 ff df ff 	lea    -0x200010(%rbp),%rax
    2400:	48 89 c7             	mov    %rax,%rdi
    2403:	e8 7a 96 00 00       	callq  ba82 <_ZN4Heap3popEv>
    2408:	48 8d 85 30 ed df ff 	lea    -0x2012d0(%rbp),%rax
    240f:	48 8d 50 0c          	lea    0xc(%rax),%rdx
    2413:	48 8d 85 f0 ff df ff 	lea    -0x200010(%rbp),%rax
    241a:	48 89 d6             	mov    %rdx,%rsi
    241d:	48 89 c7             	mov    %rax,%rdi
    2420:	e8 05 95 00 00       	callq  b92a <_ZN4Heap4pushEP4Grid>
    2425:	48 8d 85 f0 ff df ff 	lea    -0x200010(%rbp),%rax
    242c:	48 89 c7             	mov    %rax,%rdi
    242f:	e8 4e 96 00 00       	callq  ba82 <_ZN4Heap3popEv>
    2434:	48 8d 85 30 ed df ff 	lea    -0x2012d0(%rbp),%rax
    243b:	48 8d 50 0c          	lea    0xc(%rax),%rdx
    243f:	48 8d 85 f0 ff df ff 	lea    -0x200010(%rbp),%rax
    2446:	48 89 d6             	mov    %rdx,%rsi
    2449:	48 89 c7             	mov    %rax,%rdi
    244c:	e8 d9 94 00 00       	callq  b92a <_ZN4Heap4pushEP4Grid>
    2451:	48 8d 85 f0 ff df ff 	lea    -0x200010(%rbp),%rax
    2458:	48 89 c7             	mov    %rax,%rdi
    245b:	e8 22 96 00 00       	callq  ba82 <_ZN4Heap3popEv>
    2460:	48 8d 85 30 ed df ff 	lea    -0x2012d0(%rbp),%rax
    2467:	48 8d 50 0c          	lea    0xc(%rax),%rdx
    246b:	48 8d 85 f0 ff df ff 	lea    -0x200010(%rbp),%rax
    2472:	48 89 d6             	mov    %rdx,%rsi
    2475:	48 89 c7             	mov    %rax,%rdi
    2478:	e8 ad 94 00 00       	callq  b92a <_ZN4Heap4pushEP4Grid>
    247d:	48 8d 85 f0 ff df ff 	lea    -0x200010(%rbp),%rax
    2484:	48 89 c7             	mov    %rax,%rdi
    2487:	e8 f6 95 00 00       	callq  ba82 <_ZN4Heap3popEv>
    248c:	48 8d 85 30 ed df ff 	lea    -0x2012d0(%rbp),%rax
    2493:	48 8d 50 0c          	lea    0xc(%rax),%rdx
    2497:	48 8d 85 f0 ff df ff 	lea    -0x200010(%rbp),%rax
    249e:	48 89 d6             	mov    %rdx,%rsi
    24a1:	48 89 c7             	mov    %rax,%rdi
    24a4:	e8 81 94 00 00       	callq  b92a <_ZN4Heap4pushEP4Grid>
    24a9:	48 8d 85 f0 ff df ff 	lea    -0x200010(%rbp),%rax
    24b0:	48 89 c7             	mov    %rax,%rdi
    24b3:	e8 ca 95 00 00       	callq  ba82 <_ZN4Heap3popEv>
    24b8:	48 8d 85 30 ed df ff 	lea    -0x2012d0(%rbp),%rax
    24bf:	48 8d 50 0c          	lea    0xc(%rax),%rdx
    24c3:	48 8d 85 f0 ff df ff 	lea    -0x200010(%rbp),%rax
    24ca:	48 89 d6             	mov    %rdx,%rsi
    24cd:	48 89 c7             	mov    %rax,%rdi
    24d0:	e8 55 94 00 00       	callq  b92a <_ZN4Heap4pushEP4Grid>
    24d5:	48 8d 85 f0 ff df ff 	lea    -0x200010(%rbp),%rax
    24dc:	48 89 c7             	mov    %rax,%rdi
    24df:	e8 9e 95 00 00       	callq  ba82 <_ZN4Heap3popEv>
    24e4:	48 8d 85 30 ed df ff 	lea    -0x2012d0(%rbp),%rax
    24eb:	48 8d 50 0c          	lea    0xc(%rax),%rdx
    24ef:	48 8d 85 f0 ff df ff 	lea    -0x200010(%rbp),%rax
    24f6:	48 89 d6             	mov    %rdx,%rsi
    24f9:	48 89 c7             	mov    %rax,%rdi
    24fc:	e8 29 94 00 00       	callq  b92a <_ZN4Heap4pushEP4Grid>
    2501:	48 8d 85 f0 ff df ff 	lea    -0x200010(%rbp),%rax
    2508:	48 89 c7             	mov    %rax,%rdi
    250b:	e8 72 95 00 00       	callq  ba82 <_ZN4Heap3popEv>
    2510:	48 8d 85 30 ed df ff 	lea    -0x2012d0(%rbp),%rax
    2517:	48 8d 50 0c          	lea    0xc(%rax),%rdx
    251b:	48 8d 85 f0 ff df ff 	lea    -0x200010(%rbp),%rax
    2522:	48 89 d6             	mov    %rdx,%rsi
    2525:	48 89 c7             	mov    %rax,%rdi
    2528:	e8 fd 93 00 00       	callq  b92a <_ZN4Heap4pushEP4Grid>
    252d:	48 8d 85 f0 ff df ff 	lea    -0x200010(%rbp),%rax
    2534:	48 89 c7             	mov    %rax,%rdi
    2537:	e8 46 95 00 00       	callq  ba82 <_ZN4Heap3popEv>
    253c:	48 8d 85 30 ed df ff 	lea    -0x2012d0(%rbp),%rax
    2543:	48 8d 50 0c          	lea    0xc(%rax),%rdx
    2547:	48 8d 85 f0 ff df ff 	lea    -0x200010(%rbp),%rax
    254e:	48 89 d6             	mov    %rdx,%rsi
    2551:	48 89 c7             	mov    %rax,%rdi
    2554:	e8 d1 93 00 00       	callq  b92a <_ZN4Heap4pushEP4Grid>
    2559:	48 8d 85 f0 ff df ff 	lea    -0x200010(%rbp),%rax
    2560:	48 89 c7             	mov    %rax,%rdi
    2563:	e8 1a 95 00 00       	callq  ba82 <_ZN4Heap3popEv>
    2568:	48 8d 85 30 ed df ff 	lea    -0x2012d0(%rbp),%rax
    256f:	48 8d 50 0c          	lea    0xc(%rax),%rdx
    2573:	48 8d 85 f0 ff df ff 	lea    -0x200010(%rbp),%rax
    257a:	48 89 d6             	mov    %rdx,%rsi
    257d:	48 89 c7             	mov    %rax,%rdi
    2580:	e8 a5 93 00 00       	callq  b92a <_ZN4Heap4pushEP4Grid>
    2585:	48 8d 85 f0 ff df ff 	lea    -0x200010(%rbp),%rax
    258c:	48 89 c7             	mov    %rax,%rdi
    258f:	e8 ee 94 00 00       	callq  ba82 <_ZN4Heap3popEv>
    2594:	48 8d 85 30 ed df ff 	lea    -0x2012d0(%rbp),%rax
    259b:	48 8d 50 0c          	lea    0xc(%rax),%rdx
    259f:	48 8d 85 f0 ff df ff 	lea    -0x200010(%rbp),%rax
    25a6:	48 89 d6             	mov    %rdx,%rsi
    25a9:	48 89 c7             	mov    %rax,%rdi
    25ac:	e8 79 93 00 00       	callq  b92a <_ZN4Heap4pushEP4Grid>
    25b1:	48 8d 85 f0 ff df ff 	lea    -0x200010(%rbp),%rax
    25b8:	48 89 c7             	mov    %rax,%rdi
    25bb:	e8 c2 94 00 00       	callq  ba82 <_ZN4Heap3popEv>
    25c0:	48 8d 85 30 ed df ff 	lea    -0x2012d0(%rbp),%rax
    25c7:	48 8d 50 0c          	lea    0xc(%rax),%rdx
    25cb:	48 8d 85 f0 ff df ff 	lea    -0x200010(%rbp),%rax
    25d2:	48 89 d6             	mov    %rdx,%rsi
    25d5:	48 89 c7             	mov    %rax,%rdi
    25d8:	e8 4d 93 00 00       	callq  b92a <_ZN4Heap4pushEP4Grid>
    25dd:	48 8d 85 f0 ff df ff 	lea    -0x200010(%rbp),%rax
    25e4:	48 89 c7             	mov    %rax,%rdi
    25e7:	e8 96 94 00 00       	callq  ba82 <_ZN4Heap3popEv>
    25ec:	48 8d 85 30 ed df ff 	lea    -0x2012d0(%rbp),%rax
    25f3:	48 8d 50 0c          	lea    0xc(%rax),%rdx
    25f7:	48 8d 85 f0 ff df ff 	lea    -0x200010(%rbp),%rax
    25fe:	48 89 d6             	mov    %rdx,%rsi
    2601:	48 89 c7             	mov    %rax,%rdi
    2604:	e8 21 93 00 00       	callq  b92a <_ZN4Heap4pushEP4Grid>
    2609:	48 8d 85 f0 ff df ff 	lea    -0x200010(%rbp),%rax
    2610:	48 89 c7             	mov    %rax,%rdi
    2613:	e8 6a 94 00 00       	callq  ba82 <_ZN4Heap3popEv>
    2618:	48 8d 85 30 ed df ff 	lea    -0x2012d0(%rbp),%rax
    261f:	48 8d 50 0c          	lea    0xc(%rax),%rdx
    2623:	48 8d 85 f0 ff df ff 	lea    -0x200010(%rbp),%rax
    262a:	48 89 d6             	mov    %rdx,%rsi
    262d:	48 89 c7             	mov    %rax,%rdi
    2630:	e8 f5 92 00 00       	callq  b92a <_ZN4Heap4pushEP4Grid>
    2635:	48 8d 85 f0 ff df ff 	lea    -0x200010(%rbp),%rax
    263c:	48 89 c7             	mov    %rax,%rdi
    263f:	e8 3e 94 00 00       	callq  ba82 <_ZN4Heap3popEv>
    2644:	48 8d 85 30 ed df ff 	lea    -0x2012d0(%rbp),%rax
    264b:	48 8d 50 0c          	lea    0xc(%rax),%rdx
    264f:	48 8d 85 f0 ff df ff 	lea    -0x200010(%rbp),%rax
    2656:	48 89 d6             	mov    %rdx,%rsi
    2659:	48 89 c7             	mov    %rax,%rdi
    265c:	e8 c9 92 00 00       	callq  b92a <_ZN4Heap4pushEP4Grid>
    2661:	48 8d 85 f0 ff df ff 	lea    -0x200010(%rbp),%rax
    2668:	48 89 c7             	mov    %rax,%rdi
    266b:	e8 12 94 00 00       	callq  ba82 <_ZN4Heap3popEv>
    2670:	48 8d 85 30 ed df ff 	lea    -0x2012d0(%rbp),%rax
    2677:	48 8d 50 0c          	lea    0xc(%rax),%rdx
    267b:	48 8d 85 f0 ff df ff 	lea    -0x200010(%rbp),%rax
    2682:	48 89 d6             	mov    %rdx,%rsi
    2685:	48 89 c7             	mov    %rax,%rdi
    2688:	e8 9d 92 00 00       	callq  b92a <_ZN4Heap4pushEP4Grid>
    268d:	48 8d 85 f0 ff df ff 	lea    -0x200010(%rbp),%rax
    2694:	48 89 c7             	mov    %rax,%rdi
    2697:	e8 e6 93 00 00       	callq  ba82 <_ZN4Heap3popEv>
    269c:	48 8d 85 30 ed df ff 	lea    -0x2012d0(%rbp),%rax
    26a3:	48 8d 50 0c          	lea    0xc(%rax),%rdx
    26a7:	48 8d 85 f0 ff df ff 	lea    -0x200010(%rbp),%rax
    26ae:	48 89 d6             	mov    %rdx,%rsi
    26b1:	48 89 c7             	mov    %rax,%rdi
    26b4:	e8 71 92 00 00       	callq  b92a <_ZN4Heap4pushEP4Grid>
    26b9:	48 8d 85 f0 ff df ff 	lea    -0x200010(%rbp),%rax
    26c0:	48 89 c7             	mov    %rax,%rdi
    26c3:	e8 ba 93 00 00       	callq  ba82 <_ZN4Heap3popEv>
    26c8:	48 8d 85 30 ed df ff 	lea    -0x2012d0(%rbp),%rax
    26cf:	48 8d 50 0c          	lea    0xc(%rax),%rdx
    26d3:	48 8d 85 f0 ff df ff 	lea    -0x200010(%rbp),%rax
    26da:	48 89 d6             	mov    %rdx,%rsi
    26dd:	48 89 c7             	mov    %rax,%rdi
    26e0:	e8 45 92 00 00       	callq  b92a <_ZN4Heap4pushEP4Grid>
    26e5:	48 8d 85 f0 ff df ff 	lea    -0x200010(%rbp),%rax
    26ec:	48 89 c7             	mov    %rax,%rdi
    26ef:	e8 8e 93 00 00       	callq  ba82 <_ZN4Heap3popEv>
    26f4:	48 8d 85 30 ed df ff 	lea    -0x2012d0(%rbp),%rax
    26fb:	48 8d 50 0c          	lea    0xc(%rax),%rdx
    26ff:	48 8d 85 f0 ff df ff 	lea    -0x200010(%rbp),%rax
    2706:	48 89 d6             	mov    %rdx,%rsi
    2709:	48 89 c7             	mov    %rax,%rdi
    270c:	e8 19 92 00 00       	callq  b92a <_ZN4Heap4pushEP4Grid>
    2711:	48 8d 85 f0 ff df ff 	lea    -0x200010(%rbp),%rax
    2718:	48 89 c7             	mov    %rax,%rdi
    271b:	e8 62 93 00 00       	callq  ba82 <_ZN4Heap3popEv>
    2720:	48 8d 85 30 ed df ff 	lea    -0x2012d0(%rbp),%rax
    2727:	48 8d 50 0c          	lea    0xc(%rax),%rdx
    272b:	48 8d 85 f0 ff df ff 	lea    -0x200010(%rbp),%rax
    2732:	48 89 d6             	mov    %rdx,%rsi
    2735:	48 89 c7             	mov    %rax,%rdi
    2738:	e8 ed 91 00 00       	callq  b92a <_ZN4Heap4pushEP4Grid>
    273d:	48 8d 85 f0 ff df ff 	lea    -0x200010(%rbp),%rax
    2744:	48 89 c7             	mov    %rax,%rdi
    2747:	e8 36 93 00 00       	callq  ba82 <_ZN4Heap3popEv>
    274c:	48 8d 85 30 ed df ff 	lea    -0x2012d0(%rbp),%rax
    2753:	48 8d 50 0c          	lea    0xc(%rax),%rdx
    2757:	48 8d 85 f0 ff df ff 	lea    -0x200010(%rbp),%rax
    275e:	48 89 d6             	mov    %rdx,%rsi
    2761:	48 89 c7             	mov    %rax,%rdi
    2764:	e8 c1 91 00 00       	callq  b92a <_ZN4Heap4pushEP4Grid>
    2769:	48 8d 85 f0 ff df ff 	lea    -0x200010(%rbp),%rax
    2770:	48 89 c7             	mov    %rax,%rdi
    2773:	e8 0a 93 00 00       	callq  ba82 <_ZN4Heap3popEv>
    2778:	48 8d 85 30 ed df ff 	lea    -0x2012d0(%rbp),%rax
    277f:	48 8d 50 0c          	lea    0xc(%rax),%rdx
    2783:	48 8d 85 f0 ff df ff 	lea    -0x200010(%rbp),%rax
    278a:	48 89 d6             	mov    %rdx,%rsi
    278d:	48 89 c7             	mov    %rax,%rdi
    2790:	e8 95 91 00 00       	callq  b92a <_ZN4Heap4pushEP4Grid>
    2795:	48 8d 85 f0 ff df ff 	lea    -0x200010(%rbp),%rax
    279c:	48 89 c7             	mov    %rax,%rdi
    279f:	e8 de 92 00 00       	callq  ba82 <_ZN4Heap3popEv>
    27a4:	48 8d 85 30 ed df ff 	lea    -0x2012d0(%rbp),%rax
    27ab:	48 8d 50 0c          	lea    0xc(%rax),%rdx
    27af:	48 8d 85 f0 ff df ff 	lea    -0x200010(%rbp),%rax
    27b6:	48 89 d6             	mov    %rdx,%rsi
    27b9:	48 89 c7             	mov    %rax,%rdi
    27bc:	e8 69 91 00 00       	callq  b92a <_ZN4Heap4pushEP4Grid>
    27c1:	48 8d 85 f0 ff df ff 	lea    -0x200010(%rbp),%rax
    27c8:	48 89 c7             	mov    %rax,%rdi
    27cb:	e8 b2 92 00 00       	callq  ba82 <_ZN4Heap3popEv>
    27d0:	48 8d 85 30 ed df ff 	lea    -0x2012d0(%rbp),%rax
    27d7:	48 8d 50 0c          	lea    0xc(%rax),%rdx
    27db:	48 8d 85 f0 ff df ff 	lea    -0x200010(%rbp),%rax
    27e2:	48 89 d6             	mov    %rdx,%rsi
    27e5:	48 89 c7             	mov    %rax,%rdi
    27e8:	e8 3d 91 00 00       	callq  b92a <_ZN4Heap4pushEP4Grid>
    27ed:	48 8d 85 f0 ff df ff 	lea    -0x200010(%rbp),%rax
    27f4:	48 89 c7             	mov    %rax,%rdi
    27f7:	e8 86 92 00 00       	callq  ba82 <_ZN4Heap3popEv>
    27fc:	48 8d 85 30 ed df ff 	lea    -0x2012d0(%rbp),%rax
    2803:	48 8d 50 0c          	lea    0xc(%rax),%rdx
    2807:	48 8d 85 f0 ff df ff 	lea    -0x200010(%rbp),%rax
    280e:	48 89 d6             	mov    %rdx,%rsi
    2811:	48 89 c7             	mov    %rax,%rdi
    2814:	e8 11 91 00 00       	callq  b92a <_ZN4Heap4pushEP4Grid>
    2819:	48 8d 85 f0 ff df ff 	lea    -0x200010(%rbp),%rax
    2820:	48 89 c7             	mov    %rax,%rdi
    2823:	e8 5a 92 00 00       	callq  ba82 <_ZN4Heap3popEv>
    2828:	48 8d 85 30 ed df ff 	lea    -0x2012d0(%rbp),%rax
    282f:	48 8d 50 0c          	lea    0xc(%rax),%rdx
    2833:	48 8d 85 f0 ff df ff 	lea    -0x200010(%rbp),%rax
    283a:	48 89 d6             	mov    %rdx,%rsi
    283d:	48 89 c7             	mov    %rax,%rdi
    2840:	e8 e5 90 00 00       	callq  b92a <_ZN4Heap4pushEP4Grid>
    2845:	48 8d 85 f0 ff df ff 	lea    -0x200010(%rbp),%rax
    284c:	48 89 c7             	mov    %rax,%rdi
    284f:	e8 2e 92 00 00       	callq  ba82 <_ZN4Heap3popEv>
    2854:	48 8d 85 30 ed df ff 	lea    -0x2012d0(%rbp),%rax
    285b:	48 8d 50 0c          	lea    0xc(%rax),%rdx
    285f:	48 8d 85 f0 ff df ff 	lea    -0x200010(%rbp),%rax
    2866:	48 89 d6             	mov    %rdx,%rsi
    2869:	48 89 c7             	mov    %rax,%rdi
    286c:	e8 b9 90 00 00       	callq  b92a <_ZN4Heap4pushEP4Grid>
    2871:	48 8d 85 f0 ff df ff 	lea    -0x200010(%rbp),%rax
    2878:	48 89 c7             	mov    %rax,%rdi
    287b:	e8 02 92 00 00       	callq  ba82 <_ZN4Heap3popEv>
    2880:	48 8d 85 30 ed df ff 	lea    -0x2012d0(%rbp),%rax
    2887:	48 8d 50 0c          	lea    0xc(%rax),%rdx
    288b:	48 8d 85 f0 ff df ff 	lea    -0x200010(%rbp),%rax
    2892:	48 89 d6             	mov    %rdx,%rsi
    2895:	48 89 c7             	mov    %rax,%rdi
    2898:	e8 8d 90 00 00       	callq  b92a <_ZN4Heap4pushEP4Grid>
    289d:	48 8d 85 f0 ff df ff 	lea    -0x200010(%rbp),%rax
    28a4:	48 89 c7             	mov    %rax,%rdi
    28a7:	e8 d6 91 00 00       	callq  ba82 <_ZN4Heap3popEv>
    28ac:	48 8d 85 30 ed df ff 	lea    -0x2012d0(%rbp),%rax
    28b3:	48 8d 50 0c          	lea    0xc(%rax),%rdx
    28b7:	48 8d 85 f0 ff df ff 	lea    -0x200010(%rbp),%rax
    28be:	48 89 d6             	mov    %rdx,%rsi
    28c1:	48 89 c7             	mov    %rax,%rdi
    28c4:	e8 61 90 00 00       	callq  b92a <_ZN4Heap4pushEP4Grid>
    28c9:	48 8d 85 f0 ff df ff 	lea    -0x200010(%rbp),%rax
    28d0:	48 89 c7             	mov    %rax,%rdi
    28d3:	e8 aa 91 00 00       	callq  ba82 <_ZN4Heap3popEv>
    28d8:	48 8d 85 30 ed df ff 	lea    -0x2012d0(%rbp),%rax
    28df:	48 8d 50 0c          	lea    0xc(%rax),%rdx
    28e3:	48 8d 85 f0 ff df ff 	lea    -0x200010(%rbp),%rax
    28ea:	48 89 d6             	mov    %rdx,%rsi
    28ed:	48 89 c7             	mov    %rax,%rdi
    28f0:	e8 35 90 00 00       	callq  b92a <_ZN4Heap4pushEP4Grid>
    28f5:	48 8d 85 f0 ff df ff 	lea    -0x200010(%rbp),%rax
    28fc:	48 89 c7             	mov    %rax,%rdi
    28ff:	e8 7e 91 00 00       	callq  ba82 <_ZN4Heap3popEv>
    2904:	48 8d 85 30 ed df ff 	lea    -0x2012d0(%rbp),%rax
    290b:	48 8d 50 0c          	lea    0xc(%rax),%rdx
    290f:	48 8d 85 f0 ff df ff 	lea    -0x200010(%rbp),%rax
    2916:	48 89 d6             	mov    %rdx,%rsi
    2919:	48 89 c7             	mov    %rax,%rdi
    291c:	e8 09 90 00 00       	callq  b92a <_ZN4Heap4pushEP4Grid>
    2921:	48 8d 85 f0 ff df ff 	lea    -0x200010(%rbp),%rax
    2928:	48 89 c7             	mov    %rax,%rdi
    292b:	e8 52 91 00 00       	callq  ba82 <_ZN4Heap3popEv>
    2930:	48 8d 85 30 ed df ff 	lea    -0x2012d0(%rbp),%rax
    2937:	48 8d 50 0c          	lea    0xc(%rax),%rdx
    293b:	48 8d 85 f0 ff df ff 	lea    -0x200010(%rbp),%rax
    2942:	48 89 d6             	mov    %rdx,%rsi
    2945:	48 89 c7             	mov    %rax,%rdi
    2948:	e8 dd 8f 00 00       	callq  b92a <_ZN4Heap4pushEP4Grid>
    294d:	48 8d 85 f0 ff df ff 	lea    -0x200010(%rbp),%rax
    2954:	48 89 c7             	mov    %rax,%rdi
    2957:	e8 26 91 00 00       	callq  ba82 <_ZN4Heap3popEv>
    295c:	48 8d 85 30 ed df ff 	lea    -0x2012d0(%rbp),%rax
    2963:	48 8d 50 0c          	lea    0xc(%rax),%rdx
    2967:	48 8d 85 f0 ff df ff 	lea    -0x200010(%rbp),%rax
    296e:	48 89 d6             	mov    %rdx,%rsi
    2971:	48 89 c7             	mov    %rax,%rdi
    2974:	e8 b1 8f 00 00       	callq  b92a <_ZN4Heap4pushEP4Grid>
    2979:	48 8d 85 f0 ff df ff 	lea    -0x200010(%rbp),%rax
    2980:	48 89 c7             	mov    %rax,%rdi
    2983:	e8 fa 90 00 00       	callq  ba82 <_ZN4Heap3popEv>
    2988:	48 8d 85 30 ed df ff 	lea    -0x2012d0(%rbp),%rax
    298f:	48 8d 50 0c          	lea    0xc(%rax),%rdx
    2993:	48 8d 85 f0 ff df ff 	lea    -0x200010(%rbp),%rax
    299a:	48 89 d6             	mov    %rdx,%rsi
    299d:	48 89 c7             	mov    %rax,%rdi
    29a0:	e8 85 8f 00 00       	callq  b92a <_ZN4Heap4pushEP4Grid>
    29a5:	48 8d 85 f0 ff df ff 	lea    -0x200010(%rbp),%rax
    29ac:	48 89 c7             	mov    %rax,%rdi
    29af:	e8 ce 90 00 00       	callq  ba82 <_ZN4Heap3popEv>
    29b4:	48 8d 85 30 ed df ff 	lea    -0x2012d0(%rbp),%rax
    29bb:	48 8d 50 0c          	lea    0xc(%rax),%rdx
    29bf:	48 8d 85 f0 ff df ff 	lea    -0x200010(%rbp),%rax
    29c6:	48 89 d6             	mov    %rdx,%rsi
    29c9:	48 89 c7             	mov    %rax,%rdi
    29cc:	e8 59 8f 00 00       	callq  b92a <_ZN4Heap4pushEP4Grid>
    29d1:	48 8d 85 f0 ff df ff 	lea    -0x200010(%rbp),%rax
    29d8:	48 89 c7             	mov    %rax,%rdi
    29db:	e8 a2 90 00 00       	callq  ba82 <_ZN4Heap3popEv>
    29e0:	48 8d 85 30 ed df ff 	lea    -0x2012d0(%rbp),%rax
    29e7:	48 8d 50 0c          	lea    0xc(%rax),%rdx
    29eb:	48 8d 85 f0 ff df ff 	lea    -0x200010(%rbp),%rax
    29f2:	48 89 d6             	mov    %rdx,%rsi
    29f5:	48 89 c7             	mov    %rax,%rdi
    29f8:	e8 2d 8f 00 00       	callq  b92a <_ZN4Heap4pushEP4Grid>
    29fd:	48 8d 85 f0 ff df ff 	lea    -0x200010(%rbp),%rax
    2a04:	48 89 c7             	mov    %rax,%rdi
    2a07:	e8 76 90 00 00       	callq  ba82 <_ZN4Heap3popEv>
    2a0c:	48 8d 85 30 ed df ff 	lea    -0x2012d0(%rbp),%rax
    2a13:	48 8d 50 0c          	lea    0xc(%rax),%rdx
    2a17:	48 8d 85 f0 ff df ff 	lea    -0x200010(%rbp),%rax
    2a1e:	48 89 d6             	mov    %rdx,%rsi
    2a21:	48 89 c7             	mov    %rax,%rdi
    2a24:	e8 01 8f 00 00       	callq  b92a <_ZN4Heap4pushEP4Grid>
    2a29:	48 8d 85 f0 ff df ff 	lea    -0x200010(%rbp),%rax
    2a30:	48 89 c7             	mov    %rax,%rdi
    2a33:	e8 4a 90 00 00       	callq  ba82 <_ZN4Heap3popEv>
    2a38:	48 8d 85 30 ed df ff 	lea    -0x2012d0(%rbp),%rax
    2a3f:	48 8d 50 0c          	lea    0xc(%rax),%rdx
    2a43:	48 8d 85 f0 ff df ff 	lea    -0x200010(%rbp),%rax
    2a4a:	48 89 d6             	mov    %rdx,%rsi
    2a4d:	48 89 c7             	mov    %rax,%rdi
    2a50:	e8 d5 8e 00 00       	callq  b92a <_ZN4Heap4pushEP4Grid>
    2a55:	48 8d 85 f0 ff df ff 	lea    -0x200010(%rbp),%rax
    2a5c:	48 89 c7             	mov    %rax,%rdi
    2a5f:	e8 1e 90 00 00       	callq  ba82 <_ZN4Heap3popEv>
    2a64:	48 8d 85 30 ed df ff 	lea    -0x2012d0(%rbp),%rax
    2a6b:	48 8d 50 0c          	lea    0xc(%rax),%rdx
    2a6f:	48 8d 85 f0 ff df ff 	lea    -0x200010(%rbp),%rax
    2a76:	48 89 d6             	mov    %rdx,%rsi
    2a79:	48 89 c7             	mov    %rax,%rdi
    2a7c:	e8 a9 8e 00 00       	callq  b92a <_ZN4Heap4pushEP4Grid>
    2a81:	48 8d 85 f0 ff df ff 	lea    -0x200010(%rbp),%rax
    2a88:	48 89 c7             	mov    %rax,%rdi
    2a8b:	e8 f2 8f 00 00       	callq  ba82 <_ZN4Heap3popEv>
    2a90:	48 8d 85 30 ed df ff 	lea    -0x2012d0(%rbp),%rax
    2a97:	48 8d 50 0c          	lea    0xc(%rax),%rdx
    2a9b:	48 8d 85 f0 ff df ff 	lea    -0x200010(%rbp),%rax
    2aa2:	48 89 d6             	mov    %rdx,%rsi
    2aa5:	48 89 c7             	mov    %rax,%rdi
    2aa8:	e8 7d 8e 00 00       	callq  b92a <_ZN4Heap4pushEP4Grid>
    2aad:	48 8d 85 f0 ff df ff 	lea    -0x200010(%rbp),%rax
    2ab4:	48 89 c7             	mov    %rax,%rdi
    2ab7:	e8 c6 8f 00 00       	callq  ba82 <_ZN4Heap3popEv>
    2abc:	48 8d 85 30 ed df ff 	lea    -0x2012d0(%rbp),%rax
    2ac3:	48 8d 50 0c          	lea    0xc(%rax),%rdx
    2ac7:	48 8d 85 f0 ff df ff 	lea    -0x200010(%rbp),%rax
    2ace:	48 89 d6             	mov    %rdx,%rsi
    2ad1:	48 89 c7             	mov    %rax,%rdi
    2ad4:	e8 51 8e 00 00       	callq  b92a <_ZN4Heap4pushEP4Grid>
    2ad9:	48 8d 85 f0 ff df ff 	lea    -0x200010(%rbp),%rax
    2ae0:	48 89 c7             	mov    %rax,%rdi
    2ae3:	e8 9a 8f 00 00       	callq  ba82 <_ZN4Heap3popEv>
    2ae8:	48 8d 85 30 ed df ff 	lea    -0x2012d0(%rbp),%rax
    2aef:	48 8d 50 0c          	lea    0xc(%rax),%rdx
    2af3:	48 8d 85 f0 ff df ff 	lea    -0x200010(%rbp),%rax
    2afa:	48 89 d6             	mov    %rdx,%rsi
    2afd:	48 89 c7             	mov    %rax,%rdi
    2b00:	e8 25 8e 00 00       	callq  b92a <_ZN4Heap4pushEP4Grid>
    2b05:	48 8d 85 f0 ff df ff 	lea    -0x200010(%rbp),%rax
    2b0c:	48 89 c7             	mov    %rax,%rdi
    2b0f:	e8 6e 8f 00 00       	callq  ba82 <_ZN4Heap3popEv>
    2b14:	48 8d 85 30 ed df ff 	lea    -0x2012d0(%rbp),%rax
    2b1b:	48 8d 50 0c          	lea    0xc(%rax),%rdx
    2b1f:	48 8d 85 f0 ff df ff 	lea    -0x200010(%rbp),%rax
    2b26:	48 89 d6             	mov    %rdx,%rsi
    2b29:	48 89 c7             	mov    %rax,%rdi
    2b2c:	e8 f9 8d 00 00       	callq  b92a <_ZN4Heap4pushEP4Grid>
    2b31:	48 8d 85 f0 ff df ff 	lea    -0x200010(%rbp),%rax
    2b38:	48 89 c7             	mov    %rax,%rdi
    2b3b:	e8 42 8f 00 00       	callq  ba82 <_ZN4Heap3popEv>
    2b40:	48 8d 85 30 ed df ff 	lea    -0x2012d0(%rbp),%rax
    2b47:	48 8d 50 0c          	lea    0xc(%rax),%rdx
    2b4b:	48 8d 85 f0 ff df ff 	lea    -0x200010(%rbp),%rax
    2b52:	48 89 d6             	mov    %rdx,%rsi
    2b55:	48 89 c7             	mov    %rax,%rdi
    2b58:	e8 cd 8d 00 00       	callq  b92a <_ZN4Heap4pushEP4Grid>
    2b5d:	48 8d 85 f0 ff df ff 	lea    -0x200010(%rbp),%rax
    2b64:	48 89 c7             	mov    %rax,%rdi
    2b67:	e8 16 8f 00 00       	callq  ba82 <_ZN4Heap3popEv>
    2b6c:	48 8d 85 30 ed df ff 	lea    -0x2012d0(%rbp),%rax
    2b73:	48 8d 50 0c          	lea    0xc(%rax),%rdx
    2b77:	48 8d 85 f0 ff df ff 	lea    -0x200010(%rbp),%rax
    2b7e:	48 89 d6             	mov    %rdx,%rsi
    2b81:	48 89 c7             	mov    %rax,%rdi
    2b84:	e8 a1 8d 00 00       	callq  b92a <_ZN4Heap4pushEP4Grid>
    2b89:	48 8d 85 f0 ff df ff 	lea    -0x200010(%rbp),%rax
    2b90:	48 89 c7             	mov    %rax,%rdi
    2b93:	e8 ea 8e 00 00       	callq  ba82 <_ZN4Heap3popEv>
    2b98:	48 8d 85 30 ed df ff 	lea    -0x2012d0(%rbp),%rax
    2b9f:	48 8d 50 0c          	lea    0xc(%rax),%rdx
    2ba3:	48 8d 85 f0 ff df ff 	lea    -0x200010(%rbp),%rax
    2baa:	48 89 d6             	mov    %rdx,%rsi
    2bad:	48 89 c7             	mov    %rax,%rdi
    2bb0:	e8 75 8d 00 00       	callq  b92a <_ZN4Heap4pushEP4Grid>
    2bb5:	48 8d 85 f0 ff df ff 	lea    -0x200010(%rbp),%rax
    2bbc:	48 89 c7             	mov    %rax,%rdi
    2bbf:	e8 be 8e 00 00       	callq  ba82 <_ZN4Heap3popEv>
    2bc4:	48 8d 85 30 ed df ff 	lea    -0x2012d0(%rbp),%rax
    2bcb:	48 8d 50 0c          	lea    0xc(%rax),%rdx
    2bcf:	48 8d 85 f0 ff df ff 	lea    -0x200010(%rbp),%rax
    2bd6:	48 89 d6             	mov    %rdx,%rsi
    2bd9:	48 89 c7             	mov    %rax,%rdi
    2bdc:	e8 49 8d 00 00       	callq  b92a <_ZN4Heap4pushEP4Grid>
    2be1:	48 8d 85 f0 ff df ff 	lea    -0x200010(%rbp),%rax
    2be8:	48 89 c7             	mov    %rax,%rdi
    2beb:	e8 92 8e 00 00       	callq  ba82 <_ZN4Heap3popEv>
    2bf0:	48 8d 85 30 ed df ff 	lea    -0x2012d0(%rbp),%rax
    2bf7:	48 8d 50 0c          	lea    0xc(%rax),%rdx
    2bfb:	48 8d 85 f0 ff df ff 	lea    -0x200010(%rbp),%rax
    2c02:	48 89 d6             	mov    %rdx,%rsi
    2c05:	48 89 c7             	mov    %rax,%rdi
    2c08:	e8 1d 8d 00 00       	callq  b92a <_ZN4Heap4pushEP4Grid>
    2c0d:	48 8d 85 f0 ff df ff 	lea    -0x200010(%rbp),%rax
    2c14:	48 89 c7             	mov    %rax,%rdi
    2c17:	e8 66 8e 00 00       	callq  ba82 <_ZN4Heap3popEv>
    2c1c:	48 8d 85 30 ed df ff 	lea    -0x2012d0(%rbp),%rax
    2c23:	48 8d 50 0c          	lea    0xc(%rax),%rdx
    2c27:	48 8d 85 f0 ff df ff 	lea    -0x200010(%rbp),%rax
    2c2e:	48 89 d6             	mov    %rdx,%rsi
    2c31:	48 89 c7             	mov    %rax,%rdi
    2c34:	e8 f1 8c 00 00       	callq  b92a <_ZN4Heap4pushEP4Grid>
    2c39:	48 8d 85 f0 ff df ff 	lea    -0x200010(%rbp),%rax
    2c40:	48 89 c7             	mov    %rax,%rdi
    2c43:	e8 3a 8e 00 00       	callq  ba82 <_ZN4Heap3popEv>
    2c48:	48 8d 85 30 ed df ff 	lea    -0x2012d0(%rbp),%rax
    2c4f:	48 8d 50 0c          	lea    0xc(%rax),%rdx
    2c53:	48 8d 85 f0 ff df ff 	lea    -0x200010(%rbp),%rax
    2c5a:	48 89 d6             	mov    %rdx,%rsi
    2c5d:	48 89 c7             	mov    %rax,%rdi
    2c60:	e8 c5 8c 00 00       	callq  b92a <_ZN4Heap4pushEP4Grid>
    2c65:	48 8d 85 f0 ff df ff 	lea    -0x200010(%rbp),%rax
    2c6c:	48 89 c7             	mov    %rax,%rdi
    2c6f:	e8 0e 8e 00 00       	callq  ba82 <_ZN4Heap3popEv>
    2c74:	48 8d 85 30 ed df ff 	lea    -0x2012d0(%rbp),%rax
    2c7b:	48 8d 50 0c          	lea    0xc(%rax),%rdx
    2c7f:	48 8d 85 f0 ff df ff 	lea    -0x200010(%rbp),%rax
    2c86:	48 89 d6             	mov    %rdx,%rsi
    2c89:	48 89 c7             	mov    %rax,%rdi
    2c8c:	e8 99 8c 00 00       	callq  b92a <_ZN4Heap4pushEP4Grid>
    2c91:	48 8d 85 f0 ff df ff 	lea    -0x200010(%rbp),%rax
    2c98:	48 89 c7             	mov    %rax,%rdi
    2c9b:	e8 e2 8d 00 00       	callq  ba82 <_ZN4Heap3popEv>
    2ca0:	48 8d 85 30 ed df ff 	lea    -0x2012d0(%rbp),%rax
    2ca7:	48 8d 50 0c          	lea    0xc(%rax),%rdx
    2cab:	48 8d 85 f0 ff df ff 	lea    -0x200010(%rbp),%rax
    2cb2:	48 89 d6             	mov    %rdx,%rsi
    2cb5:	48 89 c7             	mov    %rax,%rdi
    2cb8:	e8 6d 8c 00 00       	callq  b92a <_ZN4Heap4pushEP4Grid>
    2cbd:	48 8d 85 f0 ff df ff 	lea    -0x200010(%rbp),%rax
    2cc4:	48 89 c7             	mov    %rax,%rdi
    2cc7:	e8 b6 8d 00 00       	callq  ba82 <_ZN4Heap3popEv>
    2ccc:	48 8d 85 30 ed df ff 	lea    -0x2012d0(%rbp),%rax
    2cd3:	48 8d 50 0c          	lea    0xc(%rax),%rdx
    2cd7:	48 8d 85 f0 ff df ff 	lea    -0x200010(%rbp),%rax
    2cde:	48 89 d6             	mov    %rdx,%rsi
    2ce1:	48 89 c7             	mov    %rax,%rdi
    2ce4:	e8 41 8c 00 00       	callq  b92a <_ZN4Heap4pushEP4Grid>
    2ce9:	48 8d 85 f0 ff df ff 	lea    -0x200010(%rbp),%rax
    2cf0:	48 89 c7             	mov    %rax,%rdi
    2cf3:	e8 8a 8d 00 00       	callq  ba82 <_ZN4Heap3popEv>
    2cf8:	48 8d 85 30 ed df ff 	lea    -0x2012d0(%rbp),%rax
    2cff:	48 8d 50 0c          	lea    0xc(%rax),%rdx
    2d03:	48 8d 85 f0 ff df ff 	lea    -0x200010(%rbp),%rax
    2d0a:	48 89 d6             	mov    %rdx,%rsi
    2d0d:	48 89 c7             	mov    %rax,%rdi
    2d10:	e8 15 8c 00 00       	callq  b92a <_ZN4Heap4pushEP4Grid>
    2d15:	48 8d 85 f0 ff df ff 	lea    -0x200010(%rbp),%rax
    2d1c:	48 89 c7             	mov    %rax,%rdi
    2d1f:	e8 5e 8d 00 00       	callq  ba82 <_ZN4Heap3popEv>
    2d24:	48 8d 85 30 ed df ff 	lea    -0x2012d0(%rbp),%rax
    2d2b:	48 8d 50 0c          	lea    0xc(%rax),%rdx
    2d2f:	48 8d 85 f0 ff df ff 	lea    -0x200010(%rbp),%rax
    2d36:	48 89 d6             	mov    %rdx,%rsi
    2d39:	48 89 c7             	mov    %rax,%rdi
    2d3c:	e8 e9 8b 00 00       	callq  b92a <_ZN4Heap4pushEP4Grid>
    2d41:	48 8d 85 f0 ff df ff 	lea    -0x200010(%rbp),%rax
    2d48:	48 89 c7             	mov    %rax,%rdi
    2d4b:	e8 32 8d 00 00       	callq  ba82 <_ZN4Heap3popEv>
    2d50:	48 8d 85 30 ed df ff 	lea    -0x2012d0(%rbp),%rax
    2d57:	48 8d 50 0c          	lea    0xc(%rax),%rdx
    2d5b:	48 8d 85 f0 ff df ff 	lea    -0x200010(%rbp),%rax
    2d62:	48 89 d6             	mov    %rdx,%rsi
    2d65:	48 89 c7             	mov    %rax,%rdi
    2d68:	e8 bd 8b 00 00       	callq  b92a <_ZN4Heap4pushEP4Grid>
    2d6d:	48 8d 85 f0 ff df ff 	lea    -0x200010(%rbp),%rax
    2d74:	48 89 c7             	mov    %rax,%rdi
    2d77:	e8 06 8d 00 00       	callq  ba82 <_ZN4Heap3popEv>
    2d7c:	48 8d 85 30 ed df ff 	lea    -0x2012d0(%rbp),%rax
    2d83:	48 8d 50 0c          	lea    0xc(%rax),%rdx
    2d87:	48 8d 85 f0 ff df ff 	lea    -0x200010(%rbp),%rax
    2d8e:	48 89 d6             	mov    %rdx,%rsi
    2d91:	48 89 c7             	mov    %rax,%rdi
    2d94:	e8 91 8b 00 00       	callq  b92a <_ZN4Heap4pushEP4Grid>
    2d99:	48 8d 85 f0 ff df ff 	lea    -0x200010(%rbp),%rax
    2da0:	48 89 c7             	mov    %rax,%rdi
    2da3:	e8 da 8c 00 00       	callq  ba82 <_ZN4Heap3popEv>
    2da8:	48 8d 85 30 ed df ff 	lea    -0x2012d0(%rbp),%rax
    2daf:	48 8d 50 0c          	lea    0xc(%rax),%rdx
    2db3:	48 8d 85 f0 ff df ff 	lea    -0x200010(%rbp),%rax
    2dba:	48 89 d6             	mov    %rdx,%rsi
    2dbd:	48 89 c7             	mov    %rax,%rdi
    2dc0:	e8 65 8b 00 00       	callq  b92a <_ZN4Heap4pushEP4Grid>
    2dc5:	48 8d 85 f0 ff df ff 	lea    -0x200010(%rbp),%rax
    2dcc:	48 89 c7             	mov    %rax,%rdi
    2dcf:	e8 ae 8c 00 00       	callq  ba82 <_ZN4Heap3popEv>
    2dd4:	48 8d 85 30 ed df ff 	lea    -0x2012d0(%rbp),%rax
    2ddb:	48 8d 50 0c          	lea    0xc(%rax),%rdx
    2ddf:	48 8d 85 f0 ff df ff 	lea    -0x200010(%rbp),%rax
    2de6:	48 89 d6             	mov    %rdx,%rsi
    2de9:	48 89 c7             	mov    %rax,%rdi
    2dec:	e8 39 8b 00 00       	callq  b92a <_ZN4Heap4pushEP4Grid>
    2df1:	48 8d 85 f0 ff df ff 	lea    -0x200010(%rbp),%rax
    2df8:	48 89 c7             	mov    %rax,%rdi
    2dfb:	e8 82 8c 00 00       	callq  ba82 <_ZN4Heap3popEv>
    2e00:	48 8d 85 30 ed df ff 	lea    -0x2012d0(%rbp),%rax
    2e07:	48 8d 50 0c          	lea    0xc(%rax),%rdx
    2e0b:	48 8d 85 f0 ff df ff 	lea    -0x200010(%rbp),%rax
    2e12:	48 89 d6             	mov    %rdx,%rsi
    2e15:	48 89 c7             	mov    %rax,%rdi
    2e18:	e8 0d 8b 00 00       	callq  b92a <_ZN4Heap4pushEP4Grid>
    2e1d:	48 8d 85 f0 ff df ff 	lea    -0x200010(%rbp),%rax
    2e24:	48 89 c7             	mov    %rax,%rdi
    2e27:	e8 56 8c 00 00       	callq  ba82 <_ZN4Heap3popEv>
    2e2c:	48 8d 85 30 ed df ff 	lea    -0x2012d0(%rbp),%rax
    2e33:	48 8d 50 0c          	lea    0xc(%rax),%rdx
    2e37:	48 8d 85 f0 ff df ff 	lea    -0x200010(%rbp),%rax
    2e3e:	48 89 d6             	mov    %rdx,%rsi
    2e41:	48 89 c7             	mov    %rax,%rdi
    2e44:	e8 e1 8a 00 00       	callq  b92a <_ZN4Heap4pushEP4Grid>
    2e49:	48 8d 85 f0 ff df ff 	lea    -0x200010(%rbp),%rax
    2e50:	48 89 c7             	mov    %rax,%rdi
    2e53:	e8 2a 8c 00 00       	callq  ba82 <_ZN4Heap3popEv>
    2e58:	48 8d 85 30 ed df ff 	lea    -0x2012d0(%rbp),%rax
    2e5f:	48 8d 50 0c          	lea    0xc(%rax),%rdx
    2e63:	48 8d 85 f0 ff df ff 	lea    -0x200010(%rbp),%rax
    2e6a:	48 89 d6             	mov    %rdx,%rsi
    2e6d:	48 89 c7             	mov    %rax,%rdi
    2e70:	e8 b5 8a 00 00       	callq  b92a <_ZN4Heap4pushEP4Grid>
    2e75:	48 8d 85 f0 ff df ff 	lea    -0x200010(%rbp),%rax
    2e7c:	48 89 c7             	mov    %rax,%rdi
    2e7f:	e8 fe 8b 00 00       	callq  ba82 <_ZN4Heap3popEv>
    2e84:	48 8d 85 30 ed df ff 	lea    -0x2012d0(%rbp),%rax
    2e8b:	48 8d 50 0c          	lea    0xc(%rax),%rdx
    2e8f:	48 8d 85 f0 ff df ff 	lea    -0x200010(%rbp),%rax
    2e96:	48 89 d6             	mov    %rdx,%rsi
    2e99:	48 89 c7             	mov    %rax,%rdi
    2e9c:	e8 89 8a 00 00       	callq  b92a <_ZN4Heap4pushEP4Grid>
    2ea1:	48 8d 85 f0 ff df ff 	lea    -0x200010(%rbp),%rax
    2ea8:	48 89 c7             	mov    %rax,%rdi
    2eab:	e8 d2 8b 00 00       	callq  ba82 <_ZN4Heap3popEv>
    2eb0:	48 8d 85 30 ed df ff 	lea    -0x2012d0(%rbp),%rax
    2eb7:	48 8d 50 0c          	lea    0xc(%rax),%rdx
    2ebb:	48 8d 85 f0 ff df ff 	lea    -0x200010(%rbp),%rax
    2ec2:	48 89 d6             	mov    %rdx,%rsi
    2ec5:	48 89 c7             	mov    %rax,%rdi
    2ec8:	e8 5d 8a 00 00       	callq  b92a <_ZN4Heap4pushEP4Grid>
    2ecd:	48 8d 85 f0 ff df ff 	lea    -0x200010(%rbp),%rax
    2ed4:	48 89 c7             	mov    %rax,%rdi
    2ed7:	e8 a6 8b 00 00       	callq  ba82 <_ZN4Heap3popEv>
    2edc:	48 8d 85 30 ed df ff 	lea    -0x2012d0(%rbp),%rax
    2ee3:	48 8d 50 0c          	lea    0xc(%rax),%rdx
    2ee7:	48 8d 85 f0 ff df ff 	lea    -0x200010(%rbp),%rax
    2eee:	48 89 d6             	mov    %rdx,%rsi
    2ef1:	48 89 c7             	mov    %rax,%rdi
    2ef4:	e8 31 8a 00 00       	callq  b92a <_ZN4Heap4pushEP4Grid>
    2ef9:	48 8d 85 f0 ff df ff 	lea    -0x200010(%rbp),%rax
    2f00:	48 89 c7             	mov    %rax,%rdi
    2f03:	e8 7a 8b 00 00       	callq  ba82 <_ZN4Heap3popEv>
    2f08:	48 8d 85 30 ed df ff 	lea    -0x2012d0(%rbp),%rax
    2f0f:	48 8d 50 0c          	lea    0xc(%rax),%rdx
    2f13:	48 8d 85 f0 ff df ff 	lea    -0x200010(%rbp),%rax
    2f1a:	48 89 d6             	mov    %rdx,%rsi
    2f1d:	48 89 c7             	mov    %rax,%rdi
    2f20:	e8 05 8a 00 00       	callq  b92a <_ZN4Heap4pushEP4Grid>
    2f25:	48 8d 85 f0 ff df ff 	lea    -0x200010(%rbp),%rax
    2f2c:	48 89 c7             	mov    %rax,%rdi
    2f2f:	e8 4e 8b 00 00       	callq  ba82 <_ZN4Heap3popEv>
    2f34:	48 8d 85 30 ed df ff 	lea    -0x2012d0(%rbp),%rax
    2f3b:	48 8d 50 0c          	lea    0xc(%rax),%rdx
    2f3f:	48 8d 85 f0 ff df ff 	lea    -0x200010(%rbp),%rax
    2f46:	48 89 d6             	mov    %rdx,%rsi
    2f49:	48 89 c7             	mov    %rax,%rdi
    2f4c:	e8 d9 89 00 00       	callq  b92a <_ZN4Heap4pushEP4Grid>
    2f51:	48 8d 85 f0 ff df ff 	lea    -0x200010(%rbp),%rax
    2f58:	48 89 c7             	mov    %rax,%rdi
    2f5b:	e8 22 8b 00 00       	callq  ba82 <_ZN4Heap3popEv>
    2f60:	48 8d 85 30 ed df ff 	lea    -0x2012d0(%rbp),%rax
    2f67:	48 8d 50 0c          	lea    0xc(%rax),%rdx
    2f6b:	48 8d 85 f0 ff df ff 	lea    -0x200010(%rbp),%rax
    2f72:	48 89 d6             	mov    %rdx,%rsi
    2f75:	48 89 c7             	mov    %rax,%rdi
    2f78:	e8 ad 89 00 00       	callq  b92a <_ZN4Heap4pushEP4Grid>
    2f7d:	48 8d 85 f0 ff df ff 	lea    -0x200010(%rbp),%rax
    2f84:	48 89 c7             	mov    %rax,%rdi
    2f87:	e8 f6 8a 00 00       	callq  ba82 <_ZN4Heap3popEv>
    2f8c:	48 8d 85 30 ed df ff 	lea    -0x2012d0(%rbp),%rax
    2f93:	48 8d 50 0c          	lea    0xc(%rax),%rdx
    2f97:	48 8d 85 f0 ff df ff 	lea    -0x200010(%rbp),%rax
    2f9e:	48 89 d6             	mov    %rdx,%rsi
    2fa1:	48 89 c7             	mov    %rax,%rdi
    2fa4:	e8 81 89 00 00       	callq  b92a <_ZN4Heap4pushEP4Grid>
    2fa9:	48 8d 85 f0 ff df ff 	lea    -0x200010(%rbp),%rax
    2fb0:	48 89 c7             	mov    %rax,%rdi
    2fb3:	e8 ca 8a 00 00       	callq  ba82 <_ZN4Heap3popEv>
    2fb8:	48 8d 85 30 ed df ff 	lea    -0x2012d0(%rbp),%rax
    2fbf:	48 8d 50 0c          	lea    0xc(%rax),%rdx
    2fc3:	48 8d 85 f0 ff df ff 	lea    -0x200010(%rbp),%rax
    2fca:	48 89 d6             	mov    %rdx,%rsi
    2fcd:	48 89 c7             	mov    %rax,%rdi
    2fd0:	e8 55 89 00 00       	callq  b92a <_ZN4Heap4pushEP4Grid>
    2fd5:	48 8d 85 f0 ff df ff 	lea    -0x200010(%rbp),%rax
    2fdc:	48 89 c7             	mov    %rax,%rdi
    2fdf:	e8 9e 8a 00 00       	callq  ba82 <_ZN4Heap3popEv>
    2fe4:	48 8d 85 30 ed df ff 	lea    -0x2012d0(%rbp),%rax
    2feb:	48 8d 50 0c          	lea    0xc(%rax),%rdx
    2fef:	48 8d 85 f0 ff df ff 	lea    -0x200010(%rbp),%rax
    2ff6:	48 89 d6             	mov    %rdx,%rsi
    2ff9:	48 89 c7             	mov    %rax,%rdi
    2ffc:	e8 29 89 00 00       	callq  b92a <_ZN4Heap4pushEP4Grid>
    3001:	48 8d 85 f0 ff df ff 	lea    -0x200010(%rbp),%rax
    3008:	48 89 c7             	mov    %rax,%rdi
    300b:	e8 72 8a 00 00       	callq  ba82 <_ZN4Heap3popEv>
    3010:	48 8d 85 30 ed df ff 	lea    -0x2012d0(%rbp),%rax
    3017:	48 8d 50 0c          	lea    0xc(%rax),%rdx
    301b:	48 8d 85 f0 ff df ff 	lea    -0x200010(%rbp),%rax
    3022:	48 89 d6             	mov    %rdx,%rsi
    3025:	48 89 c7             	mov    %rax,%rdi
    3028:	e8 fd 88 00 00       	callq  b92a <_ZN4Heap4pushEP4Grid>
    302d:	48 8d 85 f0 ff df ff 	lea    -0x200010(%rbp),%rax
    3034:	48 89 c7             	mov    %rax,%rdi
    3037:	e8 46 8a 00 00       	callq  ba82 <_ZN4Heap3popEv>
    303c:	48 8d 85 30 ed df ff 	lea    -0x2012d0(%rbp),%rax
    3043:	48 8d 50 0c          	lea    0xc(%rax),%rdx
    3047:	48 8d 85 f0 ff df ff 	lea    -0x200010(%rbp),%rax
    304e:	48 89 d6             	mov    %rdx,%rsi
    3051:	48 89 c7             	mov    %rax,%rdi
    3054:	e8 d1 88 00 00       	callq  b92a <_ZN4Heap4pushEP4Grid>
    3059:	48 8d 85 f0 ff df ff 	lea    -0x200010(%rbp),%rax
    3060:	48 89 c7             	mov    %rax,%rdi
    3063:	e8 1a 8a 00 00       	callq  ba82 <_ZN4Heap3popEv>
    3068:	48 8d 85 30 ed df ff 	lea    -0x2012d0(%rbp),%rax
    306f:	48 8d 50 0c          	lea    0xc(%rax),%rdx
    3073:	48 8d 85 f0 ff df ff 	lea    -0x200010(%rbp),%rax
    307a:	48 89 d6             	mov    %rdx,%rsi
    307d:	48 89 c7             	mov    %rax,%rdi
    3080:	e8 a5 88 00 00       	callq  b92a <_ZN4Heap4pushEP4Grid>
    3085:	48 8d 85 f0 ff df ff 	lea    -0x200010(%rbp),%rax
    308c:	48 89 c7             	mov    %rax,%rdi
    308f:	e8 ee 89 00 00       	callq  ba82 <_ZN4Heap3popEv>
    3094:	48 8d 85 30 ed df ff 	lea    -0x2012d0(%rbp),%rax
    309b:	48 8d 50 0c          	lea    0xc(%rax),%rdx
    309f:	48 8d 85 f0 ff df ff 	lea    -0x200010(%rbp),%rax
    30a6:	48 89 d6             	mov    %rdx,%rsi
    30a9:	48 89 c7             	mov    %rax,%rdi
    30ac:	e8 79 88 00 00       	callq  b92a <_ZN4Heap4pushEP4Grid>
    30b1:	48 8d 85 f0 ff df ff 	lea    -0x200010(%rbp),%rax
    30b8:	48 89 c7             	mov    %rax,%rdi
    30bb:	e8 c2 89 00 00       	callq  ba82 <_ZN4Heap3popEv>
    30c0:	48 8d 85 30 ed df ff 	lea    -0x2012d0(%rbp),%rax
    30c7:	48 8d 50 0c          	lea    0xc(%rax),%rdx
    30cb:	48 8d 85 f0 ff df ff 	lea    -0x200010(%rbp),%rax
    30d2:	48 89 d6             	mov    %rdx,%rsi
    30d5:	48 89 c7             	mov    %rax,%rdi
    30d8:	e8 4d 88 00 00       	callq  b92a <_ZN4Heap4pushEP4Grid>
    30dd:	48 8d 85 f0 ff df ff 	lea    -0x200010(%rbp),%rax
    30e4:	48 89 c7             	mov    %rax,%rdi
    30e7:	e8 96 89 00 00       	callq  ba82 <_ZN4Heap3popEv>
    30ec:	48 8d 85 30 ed df ff 	lea    -0x2012d0(%rbp),%rax
    30f3:	48 8d 50 0c          	lea    0xc(%rax),%rdx
    30f7:	48 8d 85 f0 ff df ff 	lea    -0x200010(%rbp),%rax
    30fe:	48 89 d6             	mov    %rdx,%rsi
    3101:	48 89 c7             	mov    %rax,%rdi
    3104:	e8 21 88 00 00       	callq  b92a <_ZN4Heap4pushEP4Grid>
    3109:	48 8d 85 f0 ff df ff 	lea    -0x200010(%rbp),%rax
    3110:	48 89 c7             	mov    %rax,%rdi
    3113:	e8 6a 89 00 00       	callq  ba82 <_ZN4Heap3popEv>
    3118:	48 8d 85 30 ed df ff 	lea    -0x2012d0(%rbp),%rax
    311f:	48 8d 50 0c          	lea    0xc(%rax),%rdx
    3123:	48 8d 85 f0 ff df ff 	lea    -0x200010(%rbp),%rax
    312a:	48 89 d6             	mov    %rdx,%rsi
    312d:	48 89 c7             	mov    %rax,%rdi
    3130:	e8 f5 87 00 00       	callq  b92a <_ZN4Heap4pushEP4Grid>
    3135:	48 8d 85 f0 ff df ff 	lea    -0x200010(%rbp),%rax
    313c:	48 89 c7             	mov    %rax,%rdi
    313f:	e8 3e 89 00 00       	callq  ba82 <_ZN4Heap3popEv>
    3144:	48 8d 85 30 ed df ff 	lea    -0x2012d0(%rbp),%rax
    314b:	48 8d 50 0c          	lea    0xc(%rax),%rdx
    314f:	48 8d 85 f0 ff df ff 	lea    -0x200010(%rbp),%rax
    3156:	48 89 d6             	mov    %rdx,%rsi
    3159:	48 89 c7             	mov    %rax,%rdi
    315c:	e8 c9 87 00 00       	callq  b92a <_ZN4Heap4pushEP4Grid>
    3161:	48 8d 85 f0 ff df ff 	lea    -0x200010(%rbp),%rax
    3168:	48 89 c7             	mov    %rax,%rdi
    316b:	e8 12 89 00 00       	callq  ba82 <_ZN4Heap3popEv>
    3170:	48 8d 85 30 ed df ff 	lea    -0x2012d0(%rbp),%rax
    3177:	48 8d 50 0c          	lea    0xc(%rax),%rdx
    317b:	48 8d 85 f0 ff df ff 	lea    -0x200010(%rbp),%rax
    3182:	48 89 d6             	mov    %rdx,%rsi
    3185:	48 89 c7             	mov    %rax,%rdi
    3188:	e8 9d 87 00 00       	callq  b92a <_ZN4Heap4pushEP4Grid>
    318d:	48 8d 85 f0 ff df ff 	lea    -0x200010(%rbp),%rax
    3194:	48 89 c7             	mov    %rax,%rdi
    3197:	e8 e6 88 00 00       	callq  ba82 <_ZN4Heap3popEv>
    319c:	48 8d 85 30 ed df ff 	lea    -0x2012d0(%rbp),%rax
    31a3:	48 8d 50 0c          	lea    0xc(%rax),%rdx
    31a7:	48 8d 85 f0 ff df ff 	lea    -0x200010(%rbp),%rax
    31ae:	48 89 d6             	mov    %rdx,%rsi
    31b1:	48 89 c7             	mov    %rax,%rdi
    31b4:	e8 71 87 00 00       	callq  b92a <_ZN4Heap4pushEP4Grid>
    31b9:	48 8d 85 f0 ff df ff 	lea    -0x200010(%rbp),%rax
    31c0:	48 89 c7             	mov    %rax,%rdi
    31c3:	e8 ba 88 00 00       	callq  ba82 <_ZN4Heap3popEv>
    31c8:	48 8d 85 30 ed df ff 	lea    -0x2012d0(%rbp),%rax
    31cf:	48 8d 50 0c          	lea    0xc(%rax),%rdx
    31d3:	48 8d 85 f0 ff df ff 	lea    -0x200010(%rbp),%rax
    31da:	48 89 d6             	mov    %rdx,%rsi
    31dd:	48 89 c7             	mov    %rax,%rdi
    31e0:	e8 45 87 00 00       	callq  b92a <_ZN4Heap4pushEP4Grid>
    31e5:	48 8d 85 f0 ff df ff 	lea    -0x200010(%rbp),%rax
    31ec:	48 89 c7             	mov    %rax,%rdi
    31ef:	e8 8e 88 00 00       	callq  ba82 <_ZN4Heap3popEv>
    31f4:	48 8d 85 30 ed df ff 	lea    -0x2012d0(%rbp),%rax
    31fb:	48 8d 50 0c          	lea    0xc(%rax),%rdx
    31ff:	48 8d 85 f0 ff df ff 	lea    -0x200010(%rbp),%rax
    3206:	48 89 d6             	mov    %rdx,%rsi
    3209:	48 89 c7             	mov    %rax,%rdi
    320c:	e8 19 87 00 00       	callq  b92a <_ZN4Heap4pushEP4Grid>
    3211:	48 8d 85 f0 ff df ff 	lea    -0x200010(%rbp),%rax
    3218:	48 89 c7             	mov    %rax,%rdi
    321b:	e8 62 88 00 00       	callq  ba82 <_ZN4Heap3popEv>
    3220:	48 8d 85 30 ed df ff 	lea    -0x2012d0(%rbp),%rax
    3227:	48 8d 50 0c          	lea    0xc(%rax),%rdx
    322b:	48 8d 85 f0 ff df ff 	lea    -0x200010(%rbp),%rax
    3232:	48 89 d6             	mov    %rdx,%rsi
    3235:	48 89 c7             	mov    %rax,%rdi
    3238:	e8 ed 86 00 00       	callq  b92a <_ZN4Heap4pushEP4Grid>
    323d:	48 8d 85 f0 ff df ff 	lea    -0x200010(%rbp),%rax
    3244:	48 89 c7             	mov    %rax,%rdi
    3247:	e8 36 88 00 00       	callq  ba82 <_ZN4Heap3popEv>
    324c:	48 8d 85 30 ed df ff 	lea    -0x2012d0(%rbp),%rax
    3253:	48 8d 50 0c          	lea    0xc(%rax),%rdx
    3257:	48 8d 85 f0 ff df ff 	lea    -0x200010(%rbp),%rax
    325e:	48 89 d6             	mov    %rdx,%rsi
    3261:	48 89 c7             	mov    %rax,%rdi
    3264:	e8 c1 86 00 00       	callq  b92a <_ZN4Heap4pushEP4Grid>
    3269:	48 8d 85 f0 ff df ff 	lea    -0x200010(%rbp),%rax
    3270:	48 89 c7             	mov    %rax,%rdi
    3273:	e8 0a 88 00 00       	callq  ba82 <_ZN4Heap3popEv>
    3278:	48 8d 85 30 ed df ff 	lea    -0x2012d0(%rbp),%rax
    327f:	48 8d 50 0c          	lea    0xc(%rax),%rdx
    3283:	48 8d 85 f0 ff df ff 	lea    -0x200010(%rbp),%rax
    328a:	48 89 d6             	mov    %rdx,%rsi
    328d:	48 89 c7             	mov    %rax,%rdi
    3290:	e8 95 86 00 00       	callq  b92a <_ZN4Heap4pushEP4Grid>
    3295:	48 8d 85 f0 ff df ff 	lea    -0x200010(%rbp),%rax
    329c:	48 89 c7             	mov    %rax,%rdi
    329f:	e8 de 87 00 00       	callq  ba82 <_ZN4Heap3popEv>
    32a4:	48 8d 85 30 ed df ff 	lea    -0x2012d0(%rbp),%rax
    32ab:	48 8d 50 0c          	lea    0xc(%rax),%rdx
    32af:	48 8d 85 f0 ff df ff 	lea    -0x200010(%rbp),%rax
    32b6:	48 89 d6             	mov    %rdx,%rsi
    32b9:	48 89 c7             	mov    %rax,%rdi
    32bc:	e8 69 86 00 00       	callq  b92a <_ZN4Heap4pushEP4Grid>
    32c1:	48 8d 85 f0 ff df ff 	lea    -0x200010(%rbp),%rax
    32c8:	48 89 c7             	mov    %rax,%rdi
    32cb:	e8 b2 87 00 00       	callq  ba82 <_ZN4Heap3popEv>
    32d0:	48 8d 85 30 ed df ff 	lea    -0x2012d0(%rbp),%rax
    32d7:	48 8d 50 0c          	lea    0xc(%rax),%rdx
    32db:	48 8d 85 f0 ff df ff 	lea    -0x200010(%rbp),%rax
    32e2:	48 89 d6             	mov    %rdx,%rsi
    32e5:	48 89 c7             	mov    %rax,%rdi
    32e8:	e8 3d 86 00 00       	callq  b92a <_ZN4Heap4pushEP4Grid>
    32ed:	48 8d 85 f0 ff df ff 	lea    -0x200010(%rbp),%rax
    32f4:	48 89 c7             	mov    %rax,%rdi
    32f7:	e8 86 87 00 00       	callq  ba82 <_ZN4Heap3popEv>
    32fc:	48 8d 85 30 ed df ff 	lea    -0x2012d0(%rbp),%rax
    3303:	48 8d 50 0c          	lea    0xc(%rax),%rdx
    3307:	48 8d 85 f0 ff df ff 	lea    -0x200010(%rbp),%rax
    330e:	48 89 d6             	mov    %rdx,%rsi
    3311:	48 89 c7             	mov    %rax,%rdi
    3314:	e8 11 86 00 00       	callq  b92a <_ZN4Heap4pushEP4Grid>
    3319:	48 8d 85 f0 ff df ff 	lea    -0x200010(%rbp),%rax
    3320:	48 89 c7             	mov    %rax,%rdi
    3323:	e8 5a 87 00 00       	callq  ba82 <_ZN4Heap3popEv>
    3328:	48 8d 85 30 ed df ff 	lea    -0x2012d0(%rbp),%rax
    332f:	48 8d 50 0c          	lea    0xc(%rax),%rdx
    3333:	48 8d 85 f0 ff df ff 	lea    -0x200010(%rbp),%rax
    333a:	48 89 d6             	mov    %rdx,%rsi
    333d:	48 89 c7             	mov    %rax,%rdi
    3340:	e8 e5 85 00 00       	callq  b92a <_ZN4Heap4pushEP4Grid>
    3345:	48 8d 85 f0 ff df ff 	lea    -0x200010(%rbp),%rax
    334c:	48 89 c7             	mov    %rax,%rdi
    334f:	e8 2e 87 00 00       	callq  ba82 <_ZN4Heap3popEv>
    3354:	48 8d 85 30 ed df ff 	lea    -0x2012d0(%rbp),%rax
    335b:	48 8d 50 0c          	lea    0xc(%rax),%rdx
    335f:	48 8d 85 f0 ff df ff 	lea    -0x200010(%rbp),%rax
    3366:	48 89 d6             	mov    %rdx,%rsi
    3369:	48 89 c7             	mov    %rax,%rdi
    336c:	e8 b9 85 00 00       	callq  b92a <_ZN4Heap4pushEP4Grid>
    3371:	48 8d 85 f0 ff df ff 	lea    -0x200010(%rbp),%rax
    3378:	48 89 c7             	mov    %rax,%rdi
    337b:	e8 02 87 00 00       	callq  ba82 <_ZN4Heap3popEv>
    3380:	48 8d 85 30 ed df ff 	lea    -0x2012d0(%rbp),%rax
    3387:	48 8d 50 0c          	lea    0xc(%rax),%rdx
    338b:	48 8d 85 f0 ff df ff 	lea    -0x200010(%rbp),%rax
    3392:	48 89 d6             	mov    %rdx,%rsi
    3395:	48 89 c7             	mov    %rax,%rdi
    3398:	e8 8d 85 00 00       	callq  b92a <_ZN4Heap4pushEP4Grid>
    339d:	48 8d 85 f0 ff df ff 	lea    -0x200010(%rbp),%rax
    33a4:	48 89 c7             	mov    %rax,%rdi
    33a7:	e8 d6 86 00 00       	callq  ba82 <_ZN4Heap3popEv>
    33ac:	48 8d 85 30 ed df ff 	lea    -0x2012d0(%rbp),%rax
    33b3:	48 8d 50 0c          	lea    0xc(%rax),%rdx
    33b7:	48 8d 85 f0 ff df ff 	lea    -0x200010(%rbp),%rax
    33be:	48 89 d6             	mov    %rdx,%rsi
    33c1:	48 89 c7             	mov    %rax,%rdi
    33c4:	e8 61 85 00 00       	callq  b92a <_ZN4Heap4pushEP4Grid>
    33c9:	48 8d 85 f0 ff df ff 	lea    -0x200010(%rbp),%rax
    33d0:	48 89 c7             	mov    %rax,%rdi
    33d3:	e8 aa 86 00 00       	callq  ba82 <_ZN4Heap3popEv>
    33d8:	48 8d 85 30 ed df ff 	lea    -0x2012d0(%rbp),%rax
    33df:	48 8d 50 0c          	lea    0xc(%rax),%rdx
    33e3:	48 8d 85 f0 ff df ff 	lea    -0x200010(%rbp),%rax
    33ea:	48 89 d6             	mov    %rdx,%rsi
    33ed:	48 89 c7             	mov    %rax,%rdi
    33f0:	e8 35 85 00 00       	callq  b92a <_ZN4Heap4pushEP4Grid>
    33f5:	48 8d 85 f0 ff df ff 	lea    -0x200010(%rbp),%rax
    33fc:	48 89 c7             	mov    %rax,%rdi
    33ff:	e8 7e 86 00 00       	callq  ba82 <_ZN4Heap3popEv>
    3404:	48 8d 85 30 ed df ff 	lea    -0x2012d0(%rbp),%rax
    340b:	48 8d 50 0c          	lea    0xc(%rax),%rdx
    340f:	48 8d 85 f0 ff df ff 	lea    -0x200010(%rbp),%rax
    3416:	48 89 d6             	mov    %rdx,%rsi
    3419:	48 89 c7             	mov    %rax,%rdi
    341c:	e8 09 85 00 00       	callq  b92a <_ZN4Heap4pushEP4Grid>
    3421:	48 8d 85 f0 ff df ff 	lea    -0x200010(%rbp),%rax
    3428:	48 89 c7             	mov    %rax,%rdi
    342b:	e8 52 86 00 00       	callq  ba82 <_ZN4Heap3popEv>
    3430:	48 8d 85 30 ed df ff 	lea    -0x2012d0(%rbp),%rax
    3437:	48 8d 50 0c          	lea    0xc(%rax),%rdx
    343b:	48 8d 85 f0 ff df ff 	lea    -0x200010(%rbp),%rax
    3442:	48 89 d6             	mov    %rdx,%rsi
    3445:	48 89 c7             	mov    %rax,%rdi
    3448:	e8 dd 84 00 00       	callq  b92a <_ZN4Heap4pushEP4Grid>
    344d:	48 8d 85 f0 ff df ff 	lea    -0x200010(%rbp),%rax
    3454:	48 89 c7             	mov    %rax,%rdi
    3457:	e8 26 86 00 00       	callq  ba82 <_ZN4Heap3popEv>
    345c:	48 8d 85 30 ed df ff 	lea    -0x2012d0(%rbp),%rax
    3463:	48 8d 50 0c          	lea    0xc(%rax),%rdx
    3467:	48 8d 85 f0 ff df ff 	lea    -0x200010(%rbp),%rax
    346e:	48 89 d6             	mov    %rdx,%rsi
    3471:	48 89 c7             	mov    %rax,%rdi
    3474:	e8 b1 84 00 00       	callq  b92a <_ZN4Heap4pushEP4Grid>
    3479:	48 8d 85 f0 ff df ff 	lea    -0x200010(%rbp),%rax
    3480:	48 89 c7             	mov    %rax,%rdi
    3483:	e8 fa 85 00 00       	callq  ba82 <_ZN4Heap3popEv>
    3488:	48 8d 85 30 ed df ff 	lea    -0x2012d0(%rbp),%rax
    348f:	48 8d 50 0c          	lea    0xc(%rax),%rdx
    3493:	48 8d 85 f0 ff df ff 	lea    -0x200010(%rbp),%rax
    349a:	48 89 d6             	mov    %rdx,%rsi
    349d:	48 89 c7             	mov    %rax,%rdi
    34a0:	e8 85 84 00 00       	callq  b92a <_ZN4Heap4pushEP4Grid>
    34a5:	48 8d 85 f0 ff df ff 	lea    -0x200010(%rbp),%rax
    34ac:	48 89 c7             	mov    %rax,%rdi
    34af:	e8 ce 85 00 00       	callq  ba82 <_ZN4Heap3popEv>
    34b4:	48 8d 85 30 ed df ff 	lea    -0x2012d0(%rbp),%rax
    34bb:	48 8d 50 0c          	lea    0xc(%rax),%rdx
    34bf:	48 8d 85 f0 ff df ff 	lea    -0x200010(%rbp),%rax
    34c6:	48 89 d6             	mov    %rdx,%rsi
    34c9:	48 89 c7             	mov    %rax,%rdi
    34cc:	e8 59 84 00 00       	callq  b92a <_ZN4Heap4pushEP4Grid>
    34d1:	48 8d 85 f0 ff df ff 	lea    -0x200010(%rbp),%rax
    34d8:	48 89 c7             	mov    %rax,%rdi
    34db:	e8 a2 85 00 00       	callq  ba82 <_ZN4Heap3popEv>
    34e0:	48 8d 85 30 ed df ff 	lea    -0x2012d0(%rbp),%rax
    34e7:	48 8d 50 0c          	lea    0xc(%rax),%rdx
    34eb:	48 8d 85 f0 ff df ff 	lea    -0x200010(%rbp),%rax
    34f2:	48 89 d6             	mov    %rdx,%rsi
    34f5:	48 89 c7             	mov    %rax,%rdi
    34f8:	e8 2d 84 00 00       	callq  b92a <_ZN4Heap4pushEP4Grid>
    34fd:	48 8d 85 f0 ff df ff 	lea    -0x200010(%rbp),%rax
    3504:	48 89 c7             	mov    %rax,%rdi
    3507:	e8 76 85 00 00       	callq  ba82 <_ZN4Heap3popEv>
    350c:	48 8d 85 30 ed df ff 	lea    -0x2012d0(%rbp),%rax
    3513:	48 8d 50 0c          	lea    0xc(%rax),%rdx
    3517:	48 8d 85 f0 ff df ff 	lea    -0x200010(%rbp),%rax
    351e:	48 89 d6             	mov    %rdx,%rsi
    3521:	48 89 c7             	mov    %rax,%rdi
    3524:	e8 01 84 00 00       	callq  b92a <_ZN4Heap4pushEP4Grid>
    3529:	48 8d 85 f0 ff df ff 	lea    -0x200010(%rbp),%rax
    3530:	48 89 c7             	mov    %rax,%rdi
    3533:	e8 4a 85 00 00       	callq  ba82 <_ZN4Heap3popEv>
    3538:	48 8d 85 30 ed df ff 	lea    -0x2012d0(%rbp),%rax
    353f:	48 8d 50 0c          	lea    0xc(%rax),%rdx
    3543:	48 8d 85 f0 ff df ff 	lea    -0x200010(%rbp),%rax
    354a:	48 89 d6             	mov    %rdx,%rsi
    354d:	48 89 c7             	mov    %rax,%rdi
    3550:	e8 d5 83 00 00       	callq  b92a <_ZN4Heap4pushEP4Grid>
    3555:	48 8d 85 f0 ff df ff 	lea    -0x200010(%rbp),%rax
    355c:	48 89 c7             	mov    %rax,%rdi
    355f:	e8 1e 85 00 00       	callq  ba82 <_ZN4Heap3popEv>
    3564:	48 8d 85 30 ed df ff 	lea    -0x2012d0(%rbp),%rax
    356b:	48 8d 50 0c          	lea    0xc(%rax),%rdx
    356f:	48 8d 85 f0 ff df ff 	lea    -0x200010(%rbp),%rax
    3576:	48 89 d6             	mov    %rdx,%rsi
    3579:	48 89 c7             	mov    %rax,%rdi
    357c:	e8 a9 83 00 00       	callq  b92a <_ZN4Heap4pushEP4Grid>
    3581:	48 8d 85 f0 ff df ff 	lea    -0x200010(%rbp),%rax
    3588:	48 89 c7             	mov    %rax,%rdi
    358b:	e8 f2 84 00 00       	callq  ba82 <_ZN4Heap3popEv>
    3590:	48 8d 85 30 ed df ff 	lea    -0x2012d0(%rbp),%rax
    3597:	48 8d 50 0c          	lea    0xc(%rax),%rdx
    359b:	48 8d 85 f0 ff df ff 	lea    -0x200010(%rbp),%rax
    35a2:	48 89 d6             	mov    %rdx,%rsi
    35a5:	48 89 c7             	mov    %rax,%rdi
    35a8:	e8 7d 83 00 00       	callq  b92a <_ZN4Heap4pushEP4Grid>
    35ad:	48 8d 85 f0 ff df ff 	lea    -0x200010(%rbp),%rax
    35b4:	48 89 c7             	mov    %rax,%rdi
    35b7:	e8 c6 84 00 00       	callq  ba82 <_ZN4Heap3popEv>
    35bc:	48 8d 85 30 ed df ff 	lea    -0x2012d0(%rbp),%rax
    35c3:	48 8d 50 0c          	lea    0xc(%rax),%rdx
    35c7:	48 8d 85 f0 ff df ff 	lea    -0x200010(%rbp),%rax
    35ce:	48 89 d6             	mov    %rdx,%rsi
    35d1:	48 89 c7             	mov    %rax,%rdi
    35d4:	e8 51 83 00 00       	callq  b92a <_ZN4Heap4pushEP4Grid>
    35d9:	48 8d 85 f0 ff df ff 	lea    -0x200010(%rbp),%rax
    35e0:	48 89 c7             	mov    %rax,%rdi
    35e3:	e8 9a 84 00 00       	callq  ba82 <_ZN4Heap3popEv>
    35e8:	48 8d 85 30 ed df ff 	lea    -0x2012d0(%rbp),%rax
    35ef:	48 8d 50 0c          	lea    0xc(%rax),%rdx
    35f3:	48 8d 85 f0 ff df ff 	lea    -0x200010(%rbp),%rax
    35fa:	48 89 d6             	mov    %rdx,%rsi
    35fd:	48 89 c7             	mov    %rax,%rdi
    3600:	e8 25 83 00 00       	callq  b92a <_ZN4Heap4pushEP4Grid>
    3605:	48 8d 85 f0 ff df ff 	lea    -0x200010(%rbp),%rax
    360c:	48 89 c7             	mov    %rax,%rdi
    360f:	e8 6e 84 00 00       	callq  ba82 <_ZN4Heap3popEv>
    3614:	48 8d 85 30 ed df ff 	lea    -0x2012d0(%rbp),%rax
    361b:	48 8d 50 0c          	lea    0xc(%rax),%rdx
    361f:	48 8d 85 f0 ff df ff 	lea    -0x200010(%rbp),%rax
    3626:	48 89 d6             	mov    %rdx,%rsi
    3629:	48 89 c7             	mov    %rax,%rdi
    362c:	e8 f9 82 00 00       	callq  b92a <_ZN4Heap4pushEP4Grid>
    3631:	48 8d 85 f0 ff df ff 	lea    -0x200010(%rbp),%rax
    3638:	48 89 c7             	mov    %rax,%rdi
    363b:	e8 42 84 00 00       	callq  ba82 <_ZN4Heap3popEv>
    3640:	48 8d 85 30 ed df ff 	lea    -0x2012d0(%rbp),%rax
    3647:	48 8d 50 0c          	lea    0xc(%rax),%rdx
    364b:	48 8d 85 f0 ff df ff 	lea    -0x200010(%rbp),%rax
    3652:	48 89 d6             	mov    %rdx,%rsi
    3655:	48 89 c7             	mov    %rax,%rdi
    3658:	e8 cd 82 00 00       	callq  b92a <_ZN4Heap4pushEP4Grid>
    365d:	48 8d 85 f0 ff df ff 	lea    -0x200010(%rbp),%rax
    3664:	48 89 c7             	mov    %rax,%rdi
    3667:	e8 16 84 00 00       	callq  ba82 <_ZN4Heap3popEv>
    366c:	48 8d 85 30 ed df ff 	lea    -0x2012d0(%rbp),%rax
    3673:	48 8d 50 0c          	lea    0xc(%rax),%rdx
    3677:	48 8d 85 f0 ff df ff 	lea    -0x200010(%rbp),%rax
    367e:	48 89 d6             	mov    %rdx,%rsi
    3681:	48 89 c7             	mov    %rax,%rdi
    3684:	e8 a1 82 00 00       	callq  b92a <_ZN4Heap4pushEP4Grid>
    3689:	48 8d 85 f0 ff df ff 	lea    -0x200010(%rbp),%rax
    3690:	48 89 c7             	mov    %rax,%rdi
    3693:	e8 ea 83 00 00       	callq  ba82 <_ZN4Heap3popEv>
    3698:	48 8d 85 30 ed df ff 	lea    -0x2012d0(%rbp),%rax
    369f:	48 8d 50 0c          	lea    0xc(%rax),%rdx
    36a3:	48 8d 85 f0 ff df ff 	lea    -0x200010(%rbp),%rax
    36aa:	48 89 d6             	mov    %rdx,%rsi
    36ad:	48 89 c7             	mov    %rax,%rdi
    36b0:	e8 75 82 00 00       	callq  b92a <_ZN4Heap4pushEP4Grid>
    36b5:	48 8d 85 f0 ff df ff 	lea    -0x200010(%rbp),%rax
    36bc:	48 89 c7             	mov    %rax,%rdi
    36bf:	e8 be 83 00 00       	callq  ba82 <_ZN4Heap3popEv>
    36c4:	48 8d 85 30 ed df ff 	lea    -0x2012d0(%rbp),%rax
    36cb:	48 8d 50 0c          	lea    0xc(%rax),%rdx
    36cf:	48 8d 85 f0 ff df ff 	lea    -0x200010(%rbp),%rax
    36d6:	48 89 d6             	mov    %rdx,%rsi
    36d9:	48 89 c7             	mov    %rax,%rdi
    36dc:	e8 49 82 00 00       	callq  b92a <_ZN4Heap4pushEP4Grid>
    36e1:	48 8d 85 f0 ff df ff 	lea    -0x200010(%rbp),%rax
    36e8:	48 89 c7             	mov    %rax,%rdi
    36eb:	e8 92 83 00 00       	callq  ba82 <_ZN4Heap3popEv>
    36f0:	48 8d 85 30 ed df ff 	lea    -0x2012d0(%rbp),%rax
    36f7:	48 8d 50 0c          	lea    0xc(%rax),%rdx
    36fb:	48 8d 85 f0 ff df ff 	lea    -0x200010(%rbp),%rax
    3702:	48 89 d6             	mov    %rdx,%rsi
    3705:	48 89 c7             	mov    %rax,%rdi
    3708:	e8 1d 82 00 00       	callq  b92a <_ZN4Heap4pushEP4Grid>
    370d:	48 8d 85 f0 ff df ff 	lea    -0x200010(%rbp),%rax
    3714:	48 89 c7             	mov    %rax,%rdi
    3717:	e8 66 83 00 00       	callq  ba82 <_ZN4Heap3popEv>
    371c:	48 8d 85 30 ed df ff 	lea    -0x2012d0(%rbp),%rax
    3723:	48 8d 50 0c          	lea    0xc(%rax),%rdx
    3727:	48 8d 85 f0 ff df ff 	lea    -0x200010(%rbp),%rax
    372e:	48 89 d6             	mov    %rdx,%rsi
    3731:	48 89 c7             	mov    %rax,%rdi
    3734:	e8 f1 81 00 00       	callq  b92a <_ZN4Heap4pushEP4Grid>
    3739:	48 8d 85 f0 ff df ff 	lea    -0x200010(%rbp),%rax
    3740:	48 89 c7             	mov    %rax,%rdi
    3743:	e8 3a 83 00 00       	callq  ba82 <_ZN4Heap3popEv>
    3748:	48 8d 85 30 ed df ff 	lea    -0x2012d0(%rbp),%rax
    374f:	48 8d 50 0c          	lea    0xc(%rax),%rdx
    3753:	48 8d 85 f0 ff df ff 	lea    -0x200010(%rbp),%rax
    375a:	48 89 d6             	mov    %rdx,%rsi
    375d:	48 89 c7             	mov    %rax,%rdi
    3760:	e8 c5 81 00 00       	callq  b92a <_ZN4Heap4pushEP4Grid>
    3765:	48 8d 85 f0 ff df ff 	lea    -0x200010(%rbp),%rax
    376c:	48 89 c7             	mov    %rax,%rdi
    376f:	e8 0e 83 00 00       	callq  ba82 <_ZN4Heap3popEv>
    3774:	48 8d 85 30 ed df ff 	lea    -0x2012d0(%rbp),%rax
    377b:	48 8d 50 0c          	lea    0xc(%rax),%rdx
    377f:	48 8d 85 f0 ff df ff 	lea    -0x200010(%rbp),%rax
    3786:	48 89 d6             	mov    %rdx,%rsi
    3789:	48 89 c7             	mov    %rax,%rdi
    378c:	e8 99 81 00 00       	callq  b92a <_ZN4Heap4pushEP4Grid>
    3791:	48 8d 85 f0 ff df ff 	lea    -0x200010(%rbp),%rax
    3798:	48 89 c7             	mov    %rax,%rdi
    379b:	e8 e2 82 00 00       	callq  ba82 <_ZN4Heap3popEv>
    37a0:	48 8d 85 30 ed df ff 	lea    -0x2012d0(%rbp),%rax
    37a7:	48 8d 50 0c          	lea    0xc(%rax),%rdx
    37ab:	48 8d 85 f0 ff df ff 	lea    -0x200010(%rbp),%rax
    37b2:	48 89 d6             	mov    %rdx,%rsi
    37b5:	48 89 c7             	mov    %rax,%rdi
    37b8:	e8 6d 81 00 00       	callq  b92a <_ZN4Heap4pushEP4Grid>
    37bd:	48 8d 85 f0 ff df ff 	lea    -0x200010(%rbp),%rax
    37c4:	48 89 c7             	mov    %rax,%rdi
    37c7:	e8 b6 82 00 00       	callq  ba82 <_ZN4Heap3popEv>
    37cc:	48 8d 85 30 ed df ff 	lea    -0x2012d0(%rbp),%rax
    37d3:	48 8d 50 0c          	lea    0xc(%rax),%rdx
    37d7:	48 8d 85 f0 ff df ff 	lea    -0x200010(%rbp),%rax
    37de:	48 89 d6             	mov    %rdx,%rsi
    37e1:	48 89 c7             	mov    %rax,%rdi
    37e4:	e8 41 81 00 00       	callq  b92a <_ZN4Heap4pushEP4Grid>
    37e9:	48 8d 85 f0 ff df ff 	lea    -0x200010(%rbp),%rax
    37f0:	48 89 c7             	mov    %rax,%rdi
    37f3:	e8 8a 82 00 00       	callq  ba82 <_ZN4Heap3popEv>
    37f8:	48 8d 85 30 ed df ff 	lea    -0x2012d0(%rbp),%rax
    37ff:	48 8d 50 0c          	lea    0xc(%rax),%rdx
    3803:	48 8d 85 f0 ff df ff 	lea    -0x200010(%rbp),%rax
    380a:	48 89 d6             	mov    %rdx,%rsi
    380d:	48 89 c7             	mov    %rax,%rdi
    3810:	e8 15 81 00 00       	callq  b92a <_ZN4Heap4pushEP4Grid>
    3815:	48 8d 85 f0 ff df ff 	lea    -0x200010(%rbp),%rax
    381c:	48 89 c7             	mov    %rax,%rdi
    381f:	e8 5e 82 00 00       	callq  ba82 <_ZN4Heap3popEv>
    3824:	48 8d 85 30 ed df ff 	lea    -0x2012d0(%rbp),%rax
    382b:	48 8d 50 0c          	lea    0xc(%rax),%rdx
    382f:	48 8d 85 f0 ff df ff 	lea    -0x200010(%rbp),%rax
    3836:	48 89 d6             	mov    %rdx,%rsi
    3839:	48 89 c7             	mov    %rax,%rdi
    383c:	e8 e9 80 00 00       	callq  b92a <_ZN4Heap4pushEP4Grid>
    3841:	48 8d 85 f0 ff df ff 	lea    -0x200010(%rbp),%rax
    3848:	48 89 c7             	mov    %rax,%rdi
    384b:	e8 32 82 00 00       	callq  ba82 <_ZN4Heap3popEv>
    3850:	48 8d 85 30 ed df ff 	lea    -0x2012d0(%rbp),%rax
    3857:	48 8d 50 0c          	lea    0xc(%rax),%rdx
    385b:	48 8d 85 f0 ff df ff 	lea    -0x200010(%rbp),%rax
    3862:	48 89 d6             	mov    %rdx,%rsi
    3865:	48 89 c7             	mov    %rax,%rdi
    3868:	e8 bd 80 00 00       	callq  b92a <_ZN4Heap4pushEP4Grid>
    386d:	48 8d 85 f0 ff df ff 	lea    -0x200010(%rbp),%rax
    3874:	48 89 c7             	mov    %rax,%rdi
    3877:	e8 06 82 00 00       	callq  ba82 <_ZN4Heap3popEv>
    387c:	48 8d 85 30 ed df ff 	lea    -0x2012d0(%rbp),%rax
    3883:	48 8d 50 0c          	lea    0xc(%rax),%rdx
    3887:	48 8d 85 f0 ff df ff 	lea    -0x200010(%rbp),%rax
    388e:	48 89 d6             	mov    %rdx,%rsi
    3891:	48 89 c7             	mov    %rax,%rdi
    3894:	e8 91 80 00 00       	callq  b92a <_ZN4Heap4pushEP4Grid>
    3899:	48 8d 85 f0 ff df ff 	lea    -0x200010(%rbp),%rax
    38a0:	48 89 c7             	mov    %rax,%rdi
    38a3:	e8 da 81 00 00       	callq  ba82 <_ZN4Heap3popEv>
    38a8:	48 8d 85 30 ed df ff 	lea    -0x2012d0(%rbp),%rax
    38af:	48 8d 50 0c          	lea    0xc(%rax),%rdx
    38b3:	48 8d 85 f0 ff df ff 	lea    -0x200010(%rbp),%rax
    38ba:	48 89 d6             	mov    %rdx,%rsi
    38bd:	48 89 c7             	mov    %rax,%rdi
    38c0:	e8 65 80 00 00       	callq  b92a <_ZN4Heap4pushEP4Grid>
    38c5:	48 8d 85 f0 ff df ff 	lea    -0x200010(%rbp),%rax
    38cc:	48 89 c7             	mov    %rax,%rdi
    38cf:	e8 ae 81 00 00       	callq  ba82 <_ZN4Heap3popEv>
    38d4:	48 8d 85 30 ed df ff 	lea    -0x2012d0(%rbp),%rax
    38db:	48 8d 50 0c          	lea    0xc(%rax),%rdx
    38df:	48 8d 85 f0 ff df ff 	lea    -0x200010(%rbp),%rax
    38e6:	48 89 d6             	mov    %rdx,%rsi
    38e9:	48 89 c7             	mov    %rax,%rdi
    38ec:	e8 39 80 00 00       	callq  b92a <_ZN4Heap4pushEP4Grid>
    38f1:	48 8d 85 f0 ff df ff 	lea    -0x200010(%rbp),%rax
    38f8:	48 89 c7             	mov    %rax,%rdi
    38fb:	e8 82 81 00 00       	callq  ba82 <_ZN4Heap3popEv>
    3900:	48 8d 85 30 ed df ff 	lea    -0x2012d0(%rbp),%rax
    3907:	48 8d 50 0c          	lea    0xc(%rax),%rdx
    390b:	48 8d 85 f0 ff df ff 	lea    -0x200010(%rbp),%rax
    3912:	48 89 d6             	mov    %rdx,%rsi
    3915:	48 89 c7             	mov    %rax,%rdi
    3918:	e8 0d 80 00 00       	callq  b92a <_ZN4Heap4pushEP4Grid>
    391d:	48 8d 85 f0 ff df ff 	lea    -0x200010(%rbp),%rax
    3924:	48 89 c7             	mov    %rax,%rdi
    3927:	e8 56 81 00 00       	callq  ba82 <_ZN4Heap3popEv>
    392c:	48 8d 85 30 ed df ff 	lea    -0x2012d0(%rbp),%rax
    3933:	48 8d 50 0c          	lea    0xc(%rax),%rdx
    3937:	48 8d 85 f0 ff df ff 	lea    -0x200010(%rbp),%rax
    393e:	48 89 d6             	mov    %rdx,%rsi
    3941:	48 89 c7             	mov    %rax,%rdi
    3944:	e8 e1 7f 00 00       	callq  b92a <_ZN4Heap4pushEP4Grid>
    3949:	48 8d 85 f0 ff df ff 	lea    -0x200010(%rbp),%rax
    3950:	48 89 c7             	mov    %rax,%rdi
    3953:	e8 2a 81 00 00       	callq  ba82 <_ZN4Heap3popEv>
    3958:	48 8d 85 30 ed df ff 	lea    -0x2012d0(%rbp),%rax
    395f:	48 8d 50 0c          	lea    0xc(%rax),%rdx
    3963:	48 8d 85 f0 ff df ff 	lea    -0x200010(%rbp),%rax
    396a:	48 89 d6             	mov    %rdx,%rsi
    396d:	48 89 c7             	mov    %rax,%rdi
    3970:	e8 b5 7f 00 00       	callq  b92a <_ZN4Heap4pushEP4Grid>
    3975:	48 8d 85 f0 ff df ff 	lea    -0x200010(%rbp),%rax
    397c:	48 89 c7             	mov    %rax,%rdi
    397f:	e8 fe 80 00 00       	callq  ba82 <_ZN4Heap3popEv>
    3984:	48 8d 85 30 ed df ff 	lea    -0x2012d0(%rbp),%rax
    398b:	48 8d 50 0c          	lea    0xc(%rax),%rdx
    398f:	48 8d 85 f0 ff df ff 	lea    -0x200010(%rbp),%rax
    3996:	48 89 d6             	mov    %rdx,%rsi
    3999:	48 89 c7             	mov    %rax,%rdi
    399c:	e8 89 7f 00 00       	callq  b92a <_ZN4Heap4pushEP4Grid>
    39a1:	48 8d 85 f0 ff df ff 	lea    -0x200010(%rbp),%rax
    39a8:	48 89 c7             	mov    %rax,%rdi
    39ab:	e8 d2 80 00 00       	callq  ba82 <_ZN4Heap3popEv>
    39b0:	48 8d 85 30 ed df ff 	lea    -0x2012d0(%rbp),%rax
    39b7:	48 8d 50 0c          	lea    0xc(%rax),%rdx
    39bb:	48 8d 85 f0 ff df ff 	lea    -0x200010(%rbp),%rax
    39c2:	48 89 d6             	mov    %rdx,%rsi
    39c5:	48 89 c7             	mov    %rax,%rdi
    39c8:	e8 5d 7f 00 00       	callq  b92a <_ZN4Heap4pushEP4Grid>
    39cd:	48 8d 85 f0 ff df ff 	lea    -0x200010(%rbp),%rax
    39d4:	48 89 c7             	mov    %rax,%rdi
    39d7:	e8 a6 80 00 00       	callq  ba82 <_ZN4Heap3popEv>
    39dc:	48 8d 85 30 ed df ff 	lea    -0x2012d0(%rbp),%rax
    39e3:	48 8d 50 0c          	lea    0xc(%rax),%rdx
    39e7:	48 8d 85 f0 ff df ff 	lea    -0x200010(%rbp),%rax
    39ee:	48 89 d6             	mov    %rdx,%rsi
    39f1:	48 89 c7             	mov    %rax,%rdi
    39f4:	e8 31 7f 00 00       	callq  b92a <_ZN4Heap4pushEP4Grid>
    39f9:	48 8d 85 f0 ff df ff 	lea    -0x200010(%rbp),%rax
    3a00:	48 89 c7             	mov    %rax,%rdi
    3a03:	e8 7a 80 00 00       	callq  ba82 <_ZN4Heap3popEv>
    3a08:	48 8d 85 30 ed df ff 	lea    -0x2012d0(%rbp),%rax
    3a0f:	48 8d 50 0c          	lea    0xc(%rax),%rdx
    3a13:	48 8d 85 f0 ff df ff 	lea    -0x200010(%rbp),%rax
    3a1a:	48 89 d6             	mov    %rdx,%rsi
    3a1d:	48 89 c7             	mov    %rax,%rdi
    3a20:	e8 05 7f 00 00       	callq  b92a <_ZN4Heap4pushEP4Grid>
    3a25:	48 8d 85 f0 ff df ff 	lea    -0x200010(%rbp),%rax
    3a2c:	48 89 c7             	mov    %rax,%rdi
    3a2f:	e8 4e 80 00 00       	callq  ba82 <_ZN4Heap3popEv>
    3a34:	48 8d 85 30 ed df ff 	lea    -0x2012d0(%rbp),%rax
    3a3b:	48 8d 50 0c          	lea    0xc(%rax),%rdx
    3a3f:	48 8d 85 f0 ff df ff 	lea    -0x200010(%rbp),%rax
    3a46:	48 89 d6             	mov    %rdx,%rsi
    3a49:	48 89 c7             	mov    %rax,%rdi
    3a4c:	e8 d9 7e 00 00       	callq  b92a <_ZN4Heap4pushEP4Grid>
    3a51:	48 8d 85 f0 ff df ff 	lea    -0x200010(%rbp),%rax
    3a58:	48 89 c7             	mov    %rax,%rdi
    3a5b:	e8 22 80 00 00       	callq  ba82 <_ZN4Heap3popEv>
    3a60:	48 8d 85 30 ed df ff 	lea    -0x2012d0(%rbp),%rax
    3a67:	48 8d 50 0c          	lea    0xc(%rax),%rdx
    3a6b:	48 8d 85 f0 ff df ff 	lea    -0x200010(%rbp),%rax
    3a72:	48 89 d6             	mov    %rdx,%rsi
    3a75:	48 89 c7             	mov    %rax,%rdi
    3a78:	e8 ad 7e 00 00       	callq  b92a <_ZN4Heap4pushEP4Grid>
    3a7d:	48 8d 85 f0 ff df ff 	lea    -0x200010(%rbp),%rax
    3a84:	48 89 c7             	mov    %rax,%rdi
    3a87:	e8 f6 7f 00 00       	callq  ba82 <_ZN4Heap3popEv>
    3a8c:	48 8d 85 30 ed df ff 	lea    -0x2012d0(%rbp),%rax
    3a93:	48 8d 50 0c          	lea    0xc(%rax),%rdx
    3a97:	48 8d 85 f0 ff df ff 	lea    -0x200010(%rbp),%rax
    3a9e:	48 89 d6             	mov    %rdx,%rsi
    3aa1:	48 89 c7             	mov    %rax,%rdi
    3aa4:	e8 81 7e 00 00       	callq  b92a <_ZN4Heap4pushEP4Grid>
    3aa9:	48 8d 85 f0 ff df ff 	lea    -0x200010(%rbp),%rax
    3ab0:	48 89 c7             	mov    %rax,%rdi
    3ab3:	e8 ca 7f 00 00       	callq  ba82 <_ZN4Heap3popEv>
    3ab8:	48 8d 85 30 ed df ff 	lea    -0x2012d0(%rbp),%rax
    3abf:	48 8d 50 0c          	lea    0xc(%rax),%rdx
    3ac3:	48 8d 85 f0 ff df ff 	lea    -0x200010(%rbp),%rax
    3aca:	48 89 d6             	mov    %rdx,%rsi
    3acd:	48 89 c7             	mov    %rax,%rdi
    3ad0:	e8 55 7e 00 00       	callq  b92a <_ZN4Heap4pushEP4Grid>
    3ad5:	48 8d 85 f0 ff df ff 	lea    -0x200010(%rbp),%rax
    3adc:	48 89 c7             	mov    %rax,%rdi
    3adf:	e8 9e 7f 00 00       	callq  ba82 <_ZN4Heap3popEv>
    3ae4:	48 8d 85 30 ed df ff 	lea    -0x2012d0(%rbp),%rax
    3aeb:	48 8d 50 0c          	lea    0xc(%rax),%rdx
    3aef:	48 8d 85 f0 ff df ff 	lea    -0x200010(%rbp),%rax
    3af6:	48 89 d6             	mov    %rdx,%rsi
    3af9:	48 89 c7             	mov    %rax,%rdi
    3afc:	e8 29 7e 00 00       	callq  b92a <_ZN4Heap4pushEP4Grid>
    3b01:	48 8d 85 f0 ff df ff 	lea    -0x200010(%rbp),%rax
    3b08:	48 89 c7             	mov    %rax,%rdi
    3b0b:	e8 72 7f 00 00       	callq  ba82 <_ZN4Heap3popEv>
    3b10:	48 8d 85 30 ed df ff 	lea    -0x2012d0(%rbp),%rax
    3b17:	48 8d 50 0c          	lea    0xc(%rax),%rdx
    3b1b:	48 8d 85 f0 ff df ff 	lea    -0x200010(%rbp),%rax
    3b22:	48 89 d6             	mov    %rdx,%rsi
    3b25:	48 89 c7             	mov    %rax,%rdi
    3b28:	e8 fd 7d 00 00       	callq  b92a <_ZN4Heap4pushEP4Grid>
    3b2d:	48 8d 85 f0 ff df ff 	lea    -0x200010(%rbp),%rax
    3b34:	48 89 c7             	mov    %rax,%rdi
    3b37:	e8 46 7f 00 00       	callq  ba82 <_ZN4Heap3popEv>
    3b3c:	48 8d 85 30 ed df ff 	lea    -0x2012d0(%rbp),%rax
    3b43:	48 8d 50 0c          	lea    0xc(%rax),%rdx
    3b47:	48 8d 85 f0 ff df ff 	lea    -0x200010(%rbp),%rax
    3b4e:	48 89 d6             	mov    %rdx,%rsi
    3b51:	48 89 c7             	mov    %rax,%rdi
    3b54:	e8 d1 7d 00 00       	callq  b92a <_ZN4Heap4pushEP4Grid>
    3b59:	48 8d 85 f0 ff df ff 	lea    -0x200010(%rbp),%rax
    3b60:	48 89 c7             	mov    %rax,%rdi
    3b63:	e8 1a 7f 00 00       	callq  ba82 <_ZN4Heap3popEv>
    3b68:	48 8d 85 30 ed df ff 	lea    -0x2012d0(%rbp),%rax
    3b6f:	48 8d 50 0c          	lea    0xc(%rax),%rdx
    3b73:	48 8d 85 f0 ff df ff 	lea    -0x200010(%rbp),%rax
    3b7a:	48 89 d6             	mov    %rdx,%rsi
    3b7d:	48 89 c7             	mov    %rax,%rdi
    3b80:	e8 a5 7d 00 00       	callq  b92a <_ZN4Heap4pushEP4Grid>
    3b85:	48 8d 85 f0 ff df ff 	lea    -0x200010(%rbp),%rax
    3b8c:	48 89 c7             	mov    %rax,%rdi
    3b8f:	e8 ee 7e 00 00       	callq  ba82 <_ZN4Heap3popEv>
    3b94:	48 8d 85 30 ed df ff 	lea    -0x2012d0(%rbp),%rax
    3b9b:	48 8d 50 0c          	lea    0xc(%rax),%rdx
    3b9f:	48 8d 85 f0 ff df ff 	lea    -0x200010(%rbp),%rax
    3ba6:	48 89 d6             	mov    %rdx,%rsi
    3ba9:	48 89 c7             	mov    %rax,%rdi
    3bac:	e8 79 7d 00 00       	callq  b92a <_ZN4Heap4pushEP4Grid>
    3bb1:	48 8d 85 f0 ff df ff 	lea    -0x200010(%rbp),%rax
    3bb8:	48 89 c7             	mov    %rax,%rdi
    3bbb:	e8 c2 7e 00 00       	callq  ba82 <_ZN4Heap3popEv>
    3bc0:	48 8d 85 30 ed df ff 	lea    -0x2012d0(%rbp),%rax
    3bc7:	48 8d 50 0c          	lea    0xc(%rax),%rdx
    3bcb:	48 8d 85 f0 ff df ff 	lea    -0x200010(%rbp),%rax
    3bd2:	48 89 d6             	mov    %rdx,%rsi
    3bd5:	48 89 c7             	mov    %rax,%rdi
    3bd8:	e8 4d 7d 00 00       	callq  b92a <_ZN4Heap4pushEP4Grid>
    3bdd:	48 8d 85 f0 ff df ff 	lea    -0x200010(%rbp),%rax
    3be4:	48 89 c7             	mov    %rax,%rdi
    3be7:	e8 96 7e 00 00       	callq  ba82 <_ZN4Heap3popEv>
    3bec:	48 8d 85 30 ed df ff 	lea    -0x2012d0(%rbp),%rax
    3bf3:	48 8d 50 0c          	lea    0xc(%rax),%rdx
    3bf7:	48 8d 85 f0 ff df ff 	lea    -0x200010(%rbp),%rax
    3bfe:	48 89 d6             	mov    %rdx,%rsi
    3c01:	48 89 c7             	mov    %rax,%rdi
    3c04:	e8 21 7d 00 00       	callq  b92a <_ZN4Heap4pushEP4Grid>
    3c09:	48 8d 85 f0 ff df ff 	lea    -0x200010(%rbp),%rax
    3c10:	48 89 c7             	mov    %rax,%rdi
    3c13:	e8 6a 7e 00 00       	callq  ba82 <_ZN4Heap3popEv>
    3c18:	48 8d 85 30 ed df ff 	lea    -0x2012d0(%rbp),%rax
    3c1f:	48 8d 50 0c          	lea    0xc(%rax),%rdx
    3c23:	48 8d 85 f0 ff df ff 	lea    -0x200010(%rbp),%rax
    3c2a:	48 89 d6             	mov    %rdx,%rsi
    3c2d:	48 89 c7             	mov    %rax,%rdi
    3c30:	e8 f5 7c 00 00       	callq  b92a <_ZN4Heap4pushEP4Grid>
    3c35:	48 8d 85 f0 ff df ff 	lea    -0x200010(%rbp),%rax
    3c3c:	48 89 c7             	mov    %rax,%rdi
    3c3f:	e8 3e 7e 00 00       	callq  ba82 <_ZN4Heap3popEv>
    3c44:	48 8d 85 30 ed df ff 	lea    -0x2012d0(%rbp),%rax
    3c4b:	48 8d 50 0c          	lea    0xc(%rax),%rdx
    3c4f:	48 8d 85 f0 ff df ff 	lea    -0x200010(%rbp),%rax
    3c56:	48 89 d6             	mov    %rdx,%rsi
    3c59:	48 89 c7             	mov    %rax,%rdi
    3c5c:	e8 c9 7c 00 00       	callq  b92a <_ZN4Heap4pushEP4Grid>
    3c61:	48 8d 85 f0 ff df ff 	lea    -0x200010(%rbp),%rax
    3c68:	48 89 c7             	mov    %rax,%rdi
    3c6b:	e8 12 7e 00 00       	callq  ba82 <_ZN4Heap3popEv>
    3c70:	48 8d 85 30 ed df ff 	lea    -0x2012d0(%rbp),%rax
    3c77:	48 8d 50 0c          	lea    0xc(%rax),%rdx
    3c7b:	48 8d 85 f0 ff df ff 	lea    -0x200010(%rbp),%rax
    3c82:	48 89 d6             	mov    %rdx,%rsi
    3c85:	48 89 c7             	mov    %rax,%rdi
    3c88:	e8 9d 7c 00 00       	callq  b92a <_ZN4Heap4pushEP4Grid>
    3c8d:	48 8d 85 f0 ff df ff 	lea    -0x200010(%rbp),%rax
    3c94:	48 89 c7             	mov    %rax,%rdi
    3c97:	e8 e6 7d 00 00       	callq  ba82 <_ZN4Heap3popEv>
    3c9c:	48 8d 85 30 ed df ff 	lea    -0x2012d0(%rbp),%rax
    3ca3:	48 8d 50 0c          	lea    0xc(%rax),%rdx
    3ca7:	48 8d 85 f0 ff df ff 	lea    -0x200010(%rbp),%rax
    3cae:	48 89 d6             	mov    %rdx,%rsi
    3cb1:	48 89 c7             	mov    %rax,%rdi
    3cb4:	e8 71 7c 00 00       	callq  b92a <_ZN4Heap4pushEP4Grid>
    3cb9:	48 8d 85 f0 ff df ff 	lea    -0x200010(%rbp),%rax
    3cc0:	48 89 c7             	mov    %rax,%rdi
    3cc3:	e8 ba 7d 00 00       	callq  ba82 <_ZN4Heap3popEv>
    3cc8:	48 8d 85 30 ed df ff 	lea    -0x2012d0(%rbp),%rax
    3ccf:	48 8d 50 0c          	lea    0xc(%rax),%rdx
    3cd3:	48 8d 85 f0 ff df ff 	lea    -0x200010(%rbp),%rax
    3cda:	48 89 d6             	mov    %rdx,%rsi
    3cdd:	48 89 c7             	mov    %rax,%rdi
    3ce0:	e8 45 7c 00 00       	callq  b92a <_ZN4Heap4pushEP4Grid>
    3ce5:	48 8d 85 f0 ff df ff 	lea    -0x200010(%rbp),%rax
    3cec:	48 89 c7             	mov    %rax,%rdi
    3cef:	e8 8e 7d 00 00       	callq  ba82 <_ZN4Heap3popEv>
    3cf4:	48 8d 85 30 ed df ff 	lea    -0x2012d0(%rbp),%rax
    3cfb:	48 8d 50 0c          	lea    0xc(%rax),%rdx
    3cff:	48 8d 85 f0 ff df ff 	lea    -0x200010(%rbp),%rax
    3d06:	48 89 d6             	mov    %rdx,%rsi
    3d09:	48 89 c7             	mov    %rax,%rdi
    3d0c:	e8 19 7c 00 00       	callq  b92a <_ZN4Heap4pushEP4Grid>
    3d11:	48 8d 85 f0 ff df ff 	lea    -0x200010(%rbp),%rax
    3d18:	48 89 c7             	mov    %rax,%rdi
    3d1b:	e8 62 7d 00 00       	callq  ba82 <_ZN4Heap3popEv>
    3d20:	48 8d 85 30 ed df ff 	lea    -0x2012d0(%rbp),%rax
    3d27:	48 8d 50 0c          	lea    0xc(%rax),%rdx
    3d2b:	48 8d 85 f0 ff df ff 	lea    -0x200010(%rbp),%rax
    3d32:	48 89 d6             	mov    %rdx,%rsi
    3d35:	48 89 c7             	mov    %rax,%rdi
    3d38:	e8 ed 7b 00 00       	callq  b92a <_ZN4Heap4pushEP4Grid>
    3d3d:	48 8d 85 f0 ff df ff 	lea    -0x200010(%rbp),%rax
    3d44:	48 89 c7             	mov    %rax,%rdi
    3d47:	e8 36 7d 00 00       	callq  ba82 <_ZN4Heap3popEv>
    3d4c:	48 8d 85 30 ed df ff 	lea    -0x2012d0(%rbp),%rax
    3d53:	48 8d 50 0c          	lea    0xc(%rax),%rdx
    3d57:	48 8d 85 f0 ff df ff 	lea    -0x200010(%rbp),%rax
    3d5e:	48 89 d6             	mov    %rdx,%rsi
    3d61:	48 89 c7             	mov    %rax,%rdi
    3d64:	e8 c1 7b 00 00       	callq  b92a <_ZN4Heap4pushEP4Grid>
    3d69:	48 8d 85 f0 ff df ff 	lea    -0x200010(%rbp),%rax
    3d70:	48 89 c7             	mov    %rax,%rdi
    3d73:	e8 0a 7d 00 00       	callq  ba82 <_ZN4Heap3popEv>
    3d78:	48 8d 85 30 ed df ff 	lea    -0x2012d0(%rbp),%rax
    3d7f:	48 8d 50 0c          	lea    0xc(%rax),%rdx
    3d83:	48 8d 85 f0 ff df ff 	lea    -0x200010(%rbp),%rax
    3d8a:	48 89 d6             	mov    %rdx,%rsi
    3d8d:	48 89 c7             	mov    %rax,%rdi
    3d90:	e8 95 7b 00 00       	callq  b92a <_ZN4Heap4pushEP4Grid>
    3d95:	48 8d 85 f0 ff df ff 	lea    -0x200010(%rbp),%rax
    3d9c:	48 89 c7             	mov    %rax,%rdi
    3d9f:	e8 de 7c 00 00       	callq  ba82 <_ZN4Heap3popEv>
    3da4:	48 8d 85 30 ed df ff 	lea    -0x2012d0(%rbp),%rax
    3dab:	48 8d 50 0c          	lea    0xc(%rax),%rdx
    3daf:	48 8d 85 f0 ff df ff 	lea    -0x200010(%rbp),%rax
    3db6:	48 89 d6             	mov    %rdx,%rsi
    3db9:	48 89 c7             	mov    %rax,%rdi
    3dbc:	e8 69 7b 00 00       	callq  b92a <_ZN4Heap4pushEP4Grid>
    3dc1:	48 8d 85 f0 ff df ff 	lea    -0x200010(%rbp),%rax
    3dc8:	48 89 c7             	mov    %rax,%rdi
    3dcb:	e8 b2 7c 00 00       	callq  ba82 <_ZN4Heap3popEv>
    3dd0:	48 8d 85 30 ed df ff 	lea    -0x2012d0(%rbp),%rax
    3dd7:	48 8d 50 0c          	lea    0xc(%rax),%rdx
    3ddb:	48 8d 85 f0 ff df ff 	lea    -0x200010(%rbp),%rax
    3de2:	48 89 d6             	mov    %rdx,%rsi
    3de5:	48 89 c7             	mov    %rax,%rdi
    3de8:	e8 3d 7b 00 00       	callq  b92a <_ZN4Heap4pushEP4Grid>
    3ded:	48 8d 85 f0 ff df ff 	lea    -0x200010(%rbp),%rax
    3df4:	48 89 c7             	mov    %rax,%rdi
    3df7:	e8 86 7c 00 00       	callq  ba82 <_ZN4Heap3popEv>
    3dfc:	48 8d 85 30 ed df ff 	lea    -0x2012d0(%rbp),%rax
    3e03:	48 8d 50 0c          	lea    0xc(%rax),%rdx
    3e07:	48 8d 85 f0 ff df ff 	lea    -0x200010(%rbp),%rax
    3e0e:	48 89 d6             	mov    %rdx,%rsi
    3e11:	48 89 c7             	mov    %rax,%rdi
    3e14:	e8 11 7b 00 00       	callq  b92a <_ZN4Heap4pushEP4Grid>
    3e19:	48 8d 85 f0 ff df ff 	lea    -0x200010(%rbp),%rax
    3e20:	48 89 c7             	mov    %rax,%rdi
    3e23:	e8 5a 7c 00 00       	callq  ba82 <_ZN4Heap3popEv>
    3e28:	48 8d 85 30 ed df ff 	lea    -0x2012d0(%rbp),%rax
    3e2f:	48 8d 50 0c          	lea    0xc(%rax),%rdx
    3e33:	48 8d 85 f0 ff df ff 	lea    -0x200010(%rbp),%rax
    3e3a:	48 89 d6             	mov    %rdx,%rsi
    3e3d:	48 89 c7             	mov    %rax,%rdi
    3e40:	e8 e5 7a 00 00       	callq  b92a <_ZN4Heap4pushEP4Grid>
    3e45:	48 8d 85 f0 ff df ff 	lea    -0x200010(%rbp),%rax
    3e4c:	48 89 c7             	mov    %rax,%rdi
    3e4f:	e8 2e 7c 00 00       	callq  ba82 <_ZN4Heap3popEv>
    3e54:	48 8d 85 30 ed df ff 	lea    -0x2012d0(%rbp),%rax
    3e5b:	48 8d 50 0c          	lea    0xc(%rax),%rdx
    3e5f:	48 8d 85 f0 ff df ff 	lea    -0x200010(%rbp),%rax
    3e66:	48 89 d6             	mov    %rdx,%rsi
    3e69:	48 89 c7             	mov    %rax,%rdi
    3e6c:	e8 b9 7a 00 00       	callq  b92a <_ZN4Heap4pushEP4Grid>
    3e71:	48 8d 85 f0 ff df ff 	lea    -0x200010(%rbp),%rax
    3e78:	48 89 c7             	mov    %rax,%rdi
    3e7b:	e8 02 7c 00 00       	callq  ba82 <_ZN4Heap3popEv>
    3e80:	48 8d 85 30 ed df ff 	lea    -0x2012d0(%rbp),%rax
    3e87:	48 8d 50 0c          	lea    0xc(%rax),%rdx
    3e8b:	48 8d 85 f0 ff df ff 	lea    -0x200010(%rbp),%rax
    3e92:	48 89 d6             	mov    %rdx,%rsi
    3e95:	48 89 c7             	mov    %rax,%rdi
    3e98:	e8 8d 7a 00 00       	callq  b92a <_ZN4Heap4pushEP4Grid>
    3e9d:	48 8d 85 f0 ff df ff 	lea    -0x200010(%rbp),%rax
    3ea4:	48 89 c7             	mov    %rax,%rdi
    3ea7:	e8 d6 7b 00 00       	callq  ba82 <_ZN4Heap3popEv>
    3eac:	48 8d 85 30 ed df ff 	lea    -0x2012d0(%rbp),%rax
    3eb3:	48 8d 50 0c          	lea    0xc(%rax),%rdx
    3eb7:	48 8d 85 f0 ff df ff 	lea    -0x200010(%rbp),%rax
    3ebe:	48 89 d6             	mov    %rdx,%rsi
    3ec1:	48 89 c7             	mov    %rax,%rdi
    3ec4:	e8 61 7a 00 00       	callq  b92a <_ZN4Heap4pushEP4Grid>
    3ec9:	48 8d 85 f0 ff df ff 	lea    -0x200010(%rbp),%rax
    3ed0:	48 89 c7             	mov    %rax,%rdi
    3ed3:	e8 aa 7b 00 00       	callq  ba82 <_ZN4Heap3popEv>
    3ed8:	48 8d 85 30 ed df ff 	lea    -0x2012d0(%rbp),%rax
    3edf:	48 8d 50 0c          	lea    0xc(%rax),%rdx
    3ee3:	48 8d 85 f0 ff df ff 	lea    -0x200010(%rbp),%rax
    3eea:	48 89 d6             	mov    %rdx,%rsi
    3eed:	48 89 c7             	mov    %rax,%rdi
    3ef0:	e8 35 7a 00 00       	callq  b92a <_ZN4Heap4pushEP4Grid>
    3ef5:	48 8d 85 f0 ff df ff 	lea    -0x200010(%rbp),%rax
    3efc:	48 89 c7             	mov    %rax,%rdi
    3eff:	e8 7e 7b 00 00       	callq  ba82 <_ZN4Heap3popEv>
    3f04:	48 8d 85 30 ed df ff 	lea    -0x2012d0(%rbp),%rax
    3f0b:	48 8d 50 0c          	lea    0xc(%rax),%rdx
    3f0f:	48 8d 85 f0 ff df ff 	lea    -0x200010(%rbp),%rax
    3f16:	48 89 d6             	mov    %rdx,%rsi
    3f19:	48 89 c7             	mov    %rax,%rdi
    3f1c:	e8 09 7a 00 00       	callq  b92a <_ZN4Heap4pushEP4Grid>
    3f21:	48 8d 85 f0 ff df ff 	lea    -0x200010(%rbp),%rax
    3f28:	48 89 c7             	mov    %rax,%rdi
    3f2b:	e8 52 7b 00 00       	callq  ba82 <_ZN4Heap3popEv>
    3f30:	48 8d 85 30 ed df ff 	lea    -0x2012d0(%rbp),%rax
    3f37:	48 8d 50 0c          	lea    0xc(%rax),%rdx
    3f3b:	48 8d 85 f0 ff df ff 	lea    -0x200010(%rbp),%rax
    3f42:	48 89 d6             	mov    %rdx,%rsi
    3f45:	48 89 c7             	mov    %rax,%rdi
    3f48:	e8 dd 79 00 00       	callq  b92a <_ZN4Heap4pushEP4Grid>
    3f4d:	48 8d 85 f0 ff df ff 	lea    -0x200010(%rbp),%rax
    3f54:	48 89 c7             	mov    %rax,%rdi
    3f57:	e8 26 7b 00 00       	callq  ba82 <_ZN4Heap3popEv>
    3f5c:	48 8d 85 30 ed df ff 	lea    -0x2012d0(%rbp),%rax
    3f63:	48 8d 50 0c          	lea    0xc(%rax),%rdx
    3f67:	48 8d 85 f0 ff df ff 	lea    -0x200010(%rbp),%rax
    3f6e:	48 89 d6             	mov    %rdx,%rsi
    3f71:	48 89 c7             	mov    %rax,%rdi
    3f74:	e8 b1 79 00 00       	callq  b92a <_ZN4Heap4pushEP4Grid>
    3f79:	48 8d 85 f0 ff df ff 	lea    -0x200010(%rbp),%rax
    3f80:	48 89 c7             	mov    %rax,%rdi
    3f83:	e8 fa 7a 00 00       	callq  ba82 <_ZN4Heap3popEv>
    3f88:	48 8d 85 30 ed df ff 	lea    -0x2012d0(%rbp),%rax
    3f8f:	48 8d 50 0c          	lea    0xc(%rax),%rdx
    3f93:	48 8d 85 f0 ff df ff 	lea    -0x200010(%rbp),%rax
    3f9a:	48 89 d6             	mov    %rdx,%rsi
    3f9d:	48 89 c7             	mov    %rax,%rdi
    3fa0:	e8 85 79 00 00       	callq  b92a <_ZN4Heap4pushEP4Grid>
    3fa5:	48 8d 85 f0 ff df ff 	lea    -0x200010(%rbp),%rax
    3fac:	48 89 c7             	mov    %rax,%rdi
    3faf:	e8 ce 7a 00 00       	callq  ba82 <_ZN4Heap3popEv>
    3fb4:	48 8d 85 30 ed df ff 	lea    -0x2012d0(%rbp),%rax
    3fbb:	48 8d 50 0c          	lea    0xc(%rax),%rdx
    3fbf:	48 8d 85 f0 ff df ff 	lea    -0x200010(%rbp),%rax
    3fc6:	48 89 d6             	mov    %rdx,%rsi
    3fc9:	48 89 c7             	mov    %rax,%rdi
    3fcc:	e8 59 79 00 00       	callq  b92a <_ZN4Heap4pushEP4Grid>
    3fd1:	48 8d 85 f0 ff df ff 	lea    -0x200010(%rbp),%rax
    3fd8:	48 89 c7             	mov    %rax,%rdi
    3fdb:	e8 a2 7a 00 00       	callq  ba82 <_ZN4Heap3popEv>
    3fe0:	48 8d 85 30 ed df ff 	lea    -0x2012d0(%rbp),%rax
    3fe7:	48 8d 50 0c          	lea    0xc(%rax),%rdx
    3feb:	48 8d 85 f0 ff df ff 	lea    -0x200010(%rbp),%rax
    3ff2:	48 89 d6             	mov    %rdx,%rsi
    3ff5:	48 89 c7             	mov    %rax,%rdi
    3ff8:	e8 2d 79 00 00       	callq  b92a <_ZN4Heap4pushEP4Grid>
    3ffd:	48 8d 85 f0 ff df ff 	lea    -0x200010(%rbp),%rax
    4004:	48 89 c7             	mov    %rax,%rdi
    4007:	e8 76 7a 00 00       	callq  ba82 <_ZN4Heap3popEv>
    400c:	48 8d 85 30 ed df ff 	lea    -0x2012d0(%rbp),%rax
    4013:	48 8d 50 0c          	lea    0xc(%rax),%rdx
    4017:	48 8d 85 f0 ff df ff 	lea    -0x200010(%rbp),%rax
    401e:	48 89 d6             	mov    %rdx,%rsi
    4021:	48 89 c7             	mov    %rax,%rdi
    4024:	e8 01 79 00 00       	callq  b92a <_ZN4Heap4pushEP4Grid>
    4029:	48 8d 85 f0 ff df ff 	lea    -0x200010(%rbp),%rax
    4030:	48 89 c7             	mov    %rax,%rdi
    4033:	e8 4a 7a 00 00       	callq  ba82 <_ZN4Heap3popEv>
    4038:	48 8d 85 30 ed df ff 	lea    -0x2012d0(%rbp),%rax
    403f:	48 8d 50 0c          	lea    0xc(%rax),%rdx
    4043:	48 8d 85 f0 ff df ff 	lea    -0x200010(%rbp),%rax
    404a:	48 89 d6             	mov    %rdx,%rsi
    404d:	48 89 c7             	mov    %rax,%rdi
    4050:	e8 d5 78 00 00       	callq  b92a <_ZN4Heap4pushEP4Grid>
    4055:	48 8d 85 f0 ff df ff 	lea    -0x200010(%rbp),%rax
    405c:	48 89 c7             	mov    %rax,%rdi
    405f:	e8 1e 7a 00 00       	callq  ba82 <_ZN4Heap3popEv>
    4064:	48 8d 85 30 ed df ff 	lea    -0x2012d0(%rbp),%rax
    406b:	48 8d 50 0c          	lea    0xc(%rax),%rdx
    406f:	48 8d 85 f0 ff df ff 	lea    -0x200010(%rbp),%rax
    4076:	48 89 d6             	mov    %rdx,%rsi
    4079:	48 89 c7             	mov    %rax,%rdi
    407c:	e8 a9 78 00 00       	callq  b92a <_ZN4Heap4pushEP4Grid>
    4081:	48 8d 85 f0 ff df ff 	lea    -0x200010(%rbp),%rax
    4088:	48 89 c7             	mov    %rax,%rdi
    408b:	e8 f2 79 00 00       	callq  ba82 <_ZN4Heap3popEv>
    4090:	48 8d 85 30 ed df ff 	lea    -0x2012d0(%rbp),%rax
    4097:	48 8d 50 0c          	lea    0xc(%rax),%rdx
    409b:	48 8d 85 f0 ff df ff 	lea    -0x200010(%rbp),%rax
    40a2:	48 89 d6             	mov    %rdx,%rsi
    40a5:	48 89 c7             	mov    %rax,%rdi
    40a8:	e8 7d 78 00 00       	callq  b92a <_ZN4Heap4pushEP4Grid>
    40ad:	48 8d 85 f0 ff df ff 	lea    -0x200010(%rbp),%rax
    40b4:	48 89 c7             	mov    %rax,%rdi
    40b7:	e8 c6 79 00 00       	callq  ba82 <_ZN4Heap3popEv>
    40bc:	48 8d 85 30 ed df ff 	lea    -0x2012d0(%rbp),%rax
    40c3:	48 8d 50 0c          	lea    0xc(%rax),%rdx
    40c7:	48 8d 85 f0 ff df ff 	lea    -0x200010(%rbp),%rax
    40ce:	48 89 d6             	mov    %rdx,%rsi
    40d1:	48 89 c7             	mov    %rax,%rdi
    40d4:	e8 51 78 00 00       	callq  b92a <_ZN4Heap4pushEP4Grid>
    40d9:	48 8d 85 f0 ff df ff 	lea    -0x200010(%rbp),%rax
    40e0:	48 89 c7             	mov    %rax,%rdi
    40e3:	e8 9a 79 00 00       	callq  ba82 <_ZN4Heap3popEv>
    40e8:	48 8d 85 30 ed df ff 	lea    -0x2012d0(%rbp),%rax
    40ef:	48 8d 50 0c          	lea    0xc(%rax),%rdx
    40f3:	48 8d 85 f0 ff df ff 	lea    -0x200010(%rbp),%rax
    40fa:	48 89 d6             	mov    %rdx,%rsi
    40fd:	48 89 c7             	mov    %rax,%rdi
    4100:	e8 25 78 00 00       	callq  b92a <_ZN4Heap4pushEP4Grid>
    4105:	48 8d 85 f0 ff df ff 	lea    -0x200010(%rbp),%rax
    410c:	48 89 c7             	mov    %rax,%rdi
    410f:	e8 6e 79 00 00       	callq  ba82 <_ZN4Heap3popEv>
    4114:	48 8d 85 30 ed df ff 	lea    -0x2012d0(%rbp),%rax
    411b:	48 8d 50 0c          	lea    0xc(%rax),%rdx
    411f:	48 8d 85 f0 ff df ff 	lea    -0x200010(%rbp),%rax
    4126:	48 89 d6             	mov    %rdx,%rsi
    4129:	48 89 c7             	mov    %rax,%rdi
    412c:	e8 f9 77 00 00       	callq  b92a <_ZN4Heap4pushEP4Grid>
    4131:	48 8d 85 f0 ff df ff 	lea    -0x200010(%rbp),%rax
    4138:	48 89 c7             	mov    %rax,%rdi
    413b:	e8 42 79 00 00       	callq  ba82 <_ZN4Heap3popEv>
    4140:	48 8d 85 30 ed df ff 	lea    -0x2012d0(%rbp),%rax
    4147:	48 8d 50 0c          	lea    0xc(%rax),%rdx
    414b:	48 8d 85 f0 ff df ff 	lea    -0x200010(%rbp),%rax
    4152:	48 89 d6             	mov    %rdx,%rsi
    4155:	48 89 c7             	mov    %rax,%rdi
    4158:	e8 cd 77 00 00       	callq  b92a <_ZN4Heap4pushEP4Grid>
    415d:	48 8d 85 f0 ff df ff 	lea    -0x200010(%rbp),%rax
    4164:	48 89 c7             	mov    %rax,%rdi
    4167:	e8 16 79 00 00       	callq  ba82 <_ZN4Heap3popEv>
    416c:	48 8d 85 30 ed df ff 	lea    -0x2012d0(%rbp),%rax
    4173:	48 8d 50 0c          	lea    0xc(%rax),%rdx
    4177:	48 8d 85 f0 ff df ff 	lea    -0x200010(%rbp),%rax
    417e:	48 89 d6             	mov    %rdx,%rsi
    4181:	48 89 c7             	mov    %rax,%rdi
    4184:	e8 a1 77 00 00       	callq  b92a <_ZN4Heap4pushEP4Grid>
    4189:	48 8d 85 f0 ff df ff 	lea    -0x200010(%rbp),%rax
    4190:	48 89 c7             	mov    %rax,%rdi
    4193:	e8 ea 78 00 00       	callq  ba82 <_ZN4Heap3popEv>
    4198:	48 8d 85 30 ed df ff 	lea    -0x2012d0(%rbp),%rax
    419f:	48 8d 50 0c          	lea    0xc(%rax),%rdx
    41a3:	48 8d 85 f0 ff df ff 	lea    -0x200010(%rbp),%rax
    41aa:	48 89 d6             	mov    %rdx,%rsi
    41ad:	48 89 c7             	mov    %rax,%rdi
    41b0:	e8 75 77 00 00       	callq  b92a <_ZN4Heap4pushEP4Grid>
    41b5:	48 8d 85 f0 ff df ff 	lea    -0x200010(%rbp),%rax
    41bc:	48 89 c7             	mov    %rax,%rdi
    41bf:	e8 be 78 00 00       	callq  ba82 <_ZN4Heap3popEv>
    41c4:	48 8d 85 30 ed df ff 	lea    -0x2012d0(%rbp),%rax
    41cb:	48 8d 50 0c          	lea    0xc(%rax),%rdx
    41cf:	48 8d 85 f0 ff df ff 	lea    -0x200010(%rbp),%rax
    41d6:	48 89 d6             	mov    %rdx,%rsi
    41d9:	48 89 c7             	mov    %rax,%rdi
    41dc:	e8 49 77 00 00       	callq  b92a <_ZN4Heap4pushEP4Grid>
    41e1:	48 8d 85 f0 ff df ff 	lea    -0x200010(%rbp),%rax
    41e8:	48 89 c7             	mov    %rax,%rdi
    41eb:	e8 92 78 00 00       	callq  ba82 <_ZN4Heap3popEv>
    41f0:	48 8d 85 30 ed df ff 	lea    -0x2012d0(%rbp),%rax
    41f7:	48 8d 50 0c          	lea    0xc(%rax),%rdx
    41fb:	48 8d 85 f0 ff df ff 	lea    -0x200010(%rbp),%rax
    4202:	48 89 d6             	mov    %rdx,%rsi
    4205:	48 89 c7             	mov    %rax,%rdi
    4208:	e8 1d 77 00 00       	callq  b92a <_ZN4Heap4pushEP4Grid>
    420d:	48 8d 85 f0 ff df ff 	lea    -0x200010(%rbp),%rax
    4214:	48 89 c7             	mov    %rax,%rdi
    4217:	e8 66 78 00 00       	callq  ba82 <_ZN4Heap3popEv>
    421c:	48 8d 85 30 ed df ff 	lea    -0x2012d0(%rbp),%rax
    4223:	48 8d 50 0c          	lea    0xc(%rax),%rdx
    4227:	48 8d 85 f0 ff df ff 	lea    -0x200010(%rbp),%rax
    422e:	48 89 d6             	mov    %rdx,%rsi
    4231:	48 89 c7             	mov    %rax,%rdi
    4234:	e8 f1 76 00 00       	callq  b92a <_ZN4Heap4pushEP4Grid>
    4239:	48 8d 85 f0 ff df ff 	lea    -0x200010(%rbp),%rax
    4240:	48 89 c7             	mov    %rax,%rdi
    4243:	e8 3a 78 00 00       	callq  ba82 <_ZN4Heap3popEv>
    4248:	48 8d 85 30 ed df ff 	lea    -0x2012d0(%rbp),%rax
    424f:	48 8d 50 0c          	lea    0xc(%rax),%rdx
    4253:	48 8d 85 f0 ff df ff 	lea    -0x200010(%rbp),%rax
    425a:	48 89 d6             	mov    %rdx,%rsi
    425d:	48 89 c7             	mov    %rax,%rdi
    4260:	e8 c5 76 00 00       	callq  b92a <_ZN4Heap4pushEP4Grid>
    4265:	48 8d 85 f0 ff df ff 	lea    -0x200010(%rbp),%rax
    426c:	48 89 c7             	mov    %rax,%rdi
    426f:	e8 0e 78 00 00       	callq  ba82 <_ZN4Heap3popEv>
    4274:	48 8d 85 30 ed df ff 	lea    -0x2012d0(%rbp),%rax
    427b:	48 8d 50 0c          	lea    0xc(%rax),%rdx
    427f:	48 8d 85 f0 ff df ff 	lea    -0x200010(%rbp),%rax
    4286:	48 89 d6             	mov    %rdx,%rsi
    4289:	48 89 c7             	mov    %rax,%rdi
    428c:	e8 99 76 00 00       	callq  b92a <_ZN4Heap4pushEP4Grid>
    4291:	48 8d 85 f0 ff df ff 	lea    -0x200010(%rbp),%rax
    4298:	48 89 c7             	mov    %rax,%rdi
    429b:	e8 e2 77 00 00       	callq  ba82 <_ZN4Heap3popEv>
    42a0:	48 8d 85 30 ed df ff 	lea    -0x2012d0(%rbp),%rax
    42a7:	48 8d 50 0c          	lea    0xc(%rax),%rdx
    42ab:	48 8d 85 f0 ff df ff 	lea    -0x200010(%rbp),%rax
    42b2:	48 89 d6             	mov    %rdx,%rsi
    42b5:	48 89 c7             	mov    %rax,%rdi
    42b8:	e8 6d 76 00 00       	callq  b92a <_ZN4Heap4pushEP4Grid>
    42bd:	48 8d 85 f0 ff df ff 	lea    -0x200010(%rbp),%rax
    42c4:	48 89 c7             	mov    %rax,%rdi
    42c7:	e8 b6 77 00 00       	callq  ba82 <_ZN4Heap3popEv>
    42cc:	48 8d 85 30 ed df ff 	lea    -0x2012d0(%rbp),%rax
    42d3:	48 8d 50 0c          	lea    0xc(%rax),%rdx
    42d7:	48 8d 85 f0 ff df ff 	lea    -0x200010(%rbp),%rax
    42de:	48 89 d6             	mov    %rdx,%rsi
    42e1:	48 89 c7             	mov    %rax,%rdi
    42e4:	e8 41 76 00 00       	callq  b92a <_ZN4Heap4pushEP4Grid>
    42e9:	48 8d 85 f0 ff df ff 	lea    -0x200010(%rbp),%rax
    42f0:	48 89 c7             	mov    %rax,%rdi
    42f3:	e8 8a 77 00 00       	callq  ba82 <_ZN4Heap3popEv>
    42f8:	48 8d 85 30 ed df ff 	lea    -0x2012d0(%rbp),%rax
    42ff:	48 8d 50 0c          	lea    0xc(%rax),%rdx
    4303:	48 8d 85 f0 ff df ff 	lea    -0x200010(%rbp),%rax
    430a:	48 89 d6             	mov    %rdx,%rsi
    430d:	48 89 c7             	mov    %rax,%rdi
    4310:	e8 15 76 00 00       	callq  b92a <_ZN4Heap4pushEP4Grid>
    4315:	48 8d 85 f0 ff df ff 	lea    -0x200010(%rbp),%rax
    431c:	48 89 c7             	mov    %rax,%rdi
    431f:	e8 5e 77 00 00       	callq  ba82 <_ZN4Heap3popEv>
    4324:	48 8d 85 30 ed df ff 	lea    -0x2012d0(%rbp),%rax
    432b:	48 8d 50 0c          	lea    0xc(%rax),%rdx
    432f:	48 8d 85 f0 ff df ff 	lea    -0x200010(%rbp),%rax
    4336:	48 89 d6             	mov    %rdx,%rsi
    4339:	48 89 c7             	mov    %rax,%rdi
    433c:	e8 e9 75 00 00       	callq  b92a <_ZN4Heap4pushEP4Grid>
    4341:	48 8d 85 f0 ff df ff 	lea    -0x200010(%rbp),%rax
    4348:	48 89 c7             	mov    %rax,%rdi
    434b:	e8 32 77 00 00       	callq  ba82 <_ZN4Heap3popEv>
    4350:	48 8d 85 30 ed df ff 	lea    -0x2012d0(%rbp),%rax
    4357:	48 8d 50 0c          	lea    0xc(%rax),%rdx
    435b:	48 8d 85 f0 ff df ff 	lea    -0x200010(%rbp),%rax
    4362:	48 89 d6             	mov    %rdx,%rsi
    4365:	48 89 c7             	mov    %rax,%rdi
    4368:	e8 bd 75 00 00       	callq  b92a <_ZN4Heap4pushEP4Grid>
    436d:	48 8d 85 f0 ff df ff 	lea    -0x200010(%rbp),%rax
    4374:	48 89 c7             	mov    %rax,%rdi
    4377:	e8 06 77 00 00       	callq  ba82 <_ZN4Heap3popEv>
    437c:	48 8d 85 30 ed df ff 	lea    -0x2012d0(%rbp),%rax
    4383:	48 8d 50 0c          	lea    0xc(%rax),%rdx
    4387:	48 8d 85 f0 ff df ff 	lea    -0x200010(%rbp),%rax
    438e:	48 89 d6             	mov    %rdx,%rsi
    4391:	48 89 c7             	mov    %rax,%rdi
    4394:	e8 91 75 00 00       	callq  b92a <_ZN4Heap4pushEP4Grid>
    4399:	48 8d 85 f0 ff df ff 	lea    -0x200010(%rbp),%rax
    43a0:	48 89 c7             	mov    %rax,%rdi
    43a3:	e8 da 76 00 00       	callq  ba82 <_ZN4Heap3popEv>
    43a8:	48 8d 85 30 ed df ff 	lea    -0x2012d0(%rbp),%rax
    43af:	48 8d 50 0c          	lea    0xc(%rax),%rdx
    43b3:	48 8d 85 f0 ff df ff 	lea    -0x200010(%rbp),%rax
    43ba:	48 89 d6             	mov    %rdx,%rsi
    43bd:	48 89 c7             	mov    %rax,%rdi
    43c0:	e8 65 75 00 00       	callq  b92a <_ZN4Heap4pushEP4Grid>
    43c5:	48 8d 85 f0 ff df ff 	lea    -0x200010(%rbp),%rax
    43cc:	48 89 c7             	mov    %rax,%rdi
    43cf:	e8 ae 76 00 00       	callq  ba82 <_ZN4Heap3popEv>
    43d4:	48 8d 85 30 ed df ff 	lea    -0x2012d0(%rbp),%rax
    43db:	48 8d 50 0c          	lea    0xc(%rax),%rdx
    43df:	48 8d 85 f0 ff df ff 	lea    -0x200010(%rbp),%rax
    43e6:	48 89 d6             	mov    %rdx,%rsi
    43e9:	48 89 c7             	mov    %rax,%rdi
    43ec:	e8 39 75 00 00       	callq  b92a <_ZN4Heap4pushEP4Grid>
    43f1:	48 8d 85 f0 ff df ff 	lea    -0x200010(%rbp),%rax
    43f8:	48 89 c7             	mov    %rax,%rdi
    43fb:	e8 82 76 00 00       	callq  ba82 <_ZN4Heap3popEv>
    4400:	48 8d 85 30 ed df ff 	lea    -0x2012d0(%rbp),%rax
    4407:	48 8d 50 0c          	lea    0xc(%rax),%rdx
    440b:	48 8d 85 f0 ff df ff 	lea    -0x200010(%rbp),%rax
    4412:	48 89 d6             	mov    %rdx,%rsi
    4415:	48 89 c7             	mov    %rax,%rdi
    4418:	e8 0d 75 00 00       	callq  b92a <_ZN4Heap4pushEP4Grid>
    441d:	48 8d 85 f0 ff df ff 	lea    -0x200010(%rbp),%rax
    4424:	48 89 c7             	mov    %rax,%rdi
    4427:	e8 56 76 00 00       	callq  ba82 <_ZN4Heap3popEv>
    442c:	48 8d 85 30 ed df ff 	lea    -0x2012d0(%rbp),%rax
    4433:	48 8d 50 0c          	lea    0xc(%rax),%rdx
    4437:	48 8d 85 f0 ff df ff 	lea    -0x200010(%rbp),%rax
    443e:	48 89 d6             	mov    %rdx,%rsi
    4441:	48 89 c7             	mov    %rax,%rdi
    4444:	e8 e1 74 00 00       	callq  b92a <_ZN4Heap4pushEP4Grid>
    4449:	48 8d 85 f0 ff df ff 	lea    -0x200010(%rbp),%rax
    4450:	48 89 c7             	mov    %rax,%rdi
    4453:	e8 2a 76 00 00       	callq  ba82 <_ZN4Heap3popEv>
    4458:	48 8d 85 30 ed df ff 	lea    -0x2012d0(%rbp),%rax
    445f:	48 8d 50 0c          	lea    0xc(%rax),%rdx
    4463:	48 8d 85 f0 ff df ff 	lea    -0x200010(%rbp),%rax
    446a:	48 89 d6             	mov    %rdx,%rsi
    446d:	48 89 c7             	mov    %rax,%rdi
    4470:	e8 b5 74 00 00       	callq  b92a <_ZN4Heap4pushEP4Grid>
    4475:	48 8d 85 f0 ff df ff 	lea    -0x200010(%rbp),%rax
    447c:	48 89 c7             	mov    %rax,%rdi
    447f:	e8 fe 75 00 00       	callq  ba82 <_ZN4Heap3popEv>
    4484:	48 8d 85 30 ed df ff 	lea    -0x2012d0(%rbp),%rax
    448b:	48 8d 50 0c          	lea    0xc(%rax),%rdx
    448f:	48 8d 85 f0 ff df ff 	lea    -0x200010(%rbp),%rax
    4496:	48 89 d6             	mov    %rdx,%rsi
    4499:	48 89 c7             	mov    %rax,%rdi
    449c:	e8 89 74 00 00       	callq  b92a <_ZN4Heap4pushEP4Grid>
    44a1:	48 8d 85 f0 ff df ff 	lea    -0x200010(%rbp),%rax
    44a8:	48 89 c7             	mov    %rax,%rdi
    44ab:	e8 d2 75 00 00       	callq  ba82 <_ZN4Heap3popEv>
    44b0:	48 8d 85 30 ed df ff 	lea    -0x2012d0(%rbp),%rax
    44b7:	48 8d 50 0c          	lea    0xc(%rax),%rdx
    44bb:	48 8d 85 f0 ff df ff 	lea    -0x200010(%rbp),%rax
    44c2:	48 89 d6             	mov    %rdx,%rsi
    44c5:	48 89 c7             	mov    %rax,%rdi
    44c8:	e8 5d 74 00 00       	callq  b92a <_ZN4Heap4pushEP4Grid>
    44cd:	48 8d 85 f0 ff df ff 	lea    -0x200010(%rbp),%rax
    44d4:	48 89 c7             	mov    %rax,%rdi
    44d7:	e8 a6 75 00 00       	callq  ba82 <_ZN4Heap3popEv>
    44dc:	48 8d 85 30 ed df ff 	lea    -0x2012d0(%rbp),%rax
    44e3:	48 8d 50 0c          	lea    0xc(%rax),%rdx
    44e7:	48 8d 85 f0 ff df ff 	lea    -0x200010(%rbp),%rax
    44ee:	48 89 d6             	mov    %rdx,%rsi
    44f1:	48 89 c7             	mov    %rax,%rdi
    44f4:	e8 31 74 00 00       	callq  b92a <_ZN4Heap4pushEP4Grid>
    44f9:	48 8d 85 f0 ff df ff 	lea    -0x200010(%rbp),%rax
    4500:	48 89 c7             	mov    %rax,%rdi
    4503:	e8 7a 75 00 00       	callq  ba82 <_ZN4Heap3popEv>
    4508:	48 8d 85 30 ed df ff 	lea    -0x2012d0(%rbp),%rax
    450f:	48 8d 50 0c          	lea    0xc(%rax),%rdx
    4513:	48 8d 85 f0 ff df ff 	lea    -0x200010(%rbp),%rax
    451a:	48 89 d6             	mov    %rdx,%rsi
    451d:	48 89 c7             	mov    %rax,%rdi
    4520:	e8 05 74 00 00       	callq  b92a <_ZN4Heap4pushEP4Grid>
    4525:	48 8d 85 f0 ff df ff 	lea    -0x200010(%rbp),%rax
    452c:	48 89 c7             	mov    %rax,%rdi
    452f:	e8 4e 75 00 00       	callq  ba82 <_ZN4Heap3popEv>
    4534:	48 8d 85 30 ed df ff 	lea    -0x2012d0(%rbp),%rax
    453b:	48 8d 50 0c          	lea    0xc(%rax),%rdx
    453f:	48 8d 85 f0 ff df ff 	lea    -0x200010(%rbp),%rax
    4546:	48 89 d6             	mov    %rdx,%rsi
    4549:	48 89 c7             	mov    %rax,%rdi
    454c:	e8 d9 73 00 00       	callq  b92a <_ZN4Heap4pushEP4Grid>
    4551:	48 8d 85 f0 ff df ff 	lea    -0x200010(%rbp),%rax
    4558:	48 89 c7             	mov    %rax,%rdi
    455b:	e8 22 75 00 00       	callq  ba82 <_ZN4Heap3popEv>
    4560:	48 8d 85 30 ed df ff 	lea    -0x2012d0(%rbp),%rax
    4567:	48 8d 50 0c          	lea    0xc(%rax),%rdx
    456b:	48 8d 85 f0 ff df ff 	lea    -0x200010(%rbp),%rax
    4572:	48 89 d6             	mov    %rdx,%rsi
    4575:	48 89 c7             	mov    %rax,%rdi
    4578:	e8 ad 73 00 00       	callq  b92a <_ZN4Heap4pushEP4Grid>
    457d:	48 8d 85 f0 ff df ff 	lea    -0x200010(%rbp),%rax
    4584:	48 89 c7             	mov    %rax,%rdi
    4587:	e8 f6 74 00 00       	callq  ba82 <_ZN4Heap3popEv>
    458c:	48 8d 85 30 ed df ff 	lea    -0x2012d0(%rbp),%rax
    4593:	48 8d 50 0c          	lea    0xc(%rax),%rdx
    4597:	48 8d 85 f0 ff df ff 	lea    -0x200010(%rbp),%rax
    459e:	48 89 d6             	mov    %rdx,%rsi
    45a1:	48 89 c7             	mov    %rax,%rdi
    45a4:	e8 81 73 00 00       	callq  b92a <_ZN4Heap4pushEP4Grid>
    45a9:	48 8d 85 f0 ff df ff 	lea    -0x200010(%rbp),%rax
    45b0:	48 89 c7             	mov    %rax,%rdi
    45b3:	e8 ca 74 00 00       	callq  ba82 <_ZN4Heap3popEv>
    45b8:	48 8d 85 30 ed df ff 	lea    -0x2012d0(%rbp),%rax
    45bf:	48 8d 50 0c          	lea    0xc(%rax),%rdx
    45c3:	48 8d 85 f0 ff df ff 	lea    -0x200010(%rbp),%rax
    45ca:	48 89 d6             	mov    %rdx,%rsi
    45cd:	48 89 c7             	mov    %rax,%rdi
    45d0:	e8 55 73 00 00       	callq  b92a <_ZN4Heap4pushEP4Grid>
    45d5:	48 8d 85 f0 ff df ff 	lea    -0x200010(%rbp),%rax
    45dc:	48 89 c7             	mov    %rax,%rdi
    45df:	e8 9e 74 00 00       	callq  ba82 <_ZN4Heap3popEv>
    45e4:	48 8d 85 30 ed df ff 	lea    -0x2012d0(%rbp),%rax
    45eb:	48 8d 50 0c          	lea    0xc(%rax),%rdx
    45ef:	48 8d 85 f0 ff df ff 	lea    -0x200010(%rbp),%rax
    45f6:	48 89 d6             	mov    %rdx,%rsi
    45f9:	48 89 c7             	mov    %rax,%rdi
    45fc:	e8 29 73 00 00       	callq  b92a <_ZN4Heap4pushEP4Grid>
    4601:	48 8d 85 f0 ff df ff 	lea    -0x200010(%rbp),%rax
    4608:	48 89 c7             	mov    %rax,%rdi
    460b:	e8 72 74 00 00       	callq  ba82 <_ZN4Heap3popEv>
    4610:	48 8d 85 30 ed df ff 	lea    -0x2012d0(%rbp),%rax
    4617:	48 8d 50 0c          	lea    0xc(%rax),%rdx
    461b:	48 8d 85 f0 ff df ff 	lea    -0x200010(%rbp),%rax
    4622:	48 89 d6             	mov    %rdx,%rsi
    4625:	48 89 c7             	mov    %rax,%rdi
    4628:	e8 fd 72 00 00       	callq  b92a <_ZN4Heap4pushEP4Grid>
    462d:	48 8d 85 f0 ff df ff 	lea    -0x200010(%rbp),%rax
    4634:	48 89 c7             	mov    %rax,%rdi
    4637:	e8 46 74 00 00       	callq  ba82 <_ZN4Heap3popEv>
    463c:	48 8d 85 30 ed df ff 	lea    -0x2012d0(%rbp),%rax
    4643:	48 8d 50 0c          	lea    0xc(%rax),%rdx
    4647:	48 8d 85 f0 ff df ff 	lea    -0x200010(%rbp),%rax
    464e:	48 89 d6             	mov    %rdx,%rsi
    4651:	48 89 c7             	mov    %rax,%rdi
    4654:	e8 d1 72 00 00       	callq  b92a <_ZN4Heap4pushEP4Grid>
    4659:	48 8d 85 f0 ff df ff 	lea    -0x200010(%rbp),%rax
    4660:	48 89 c7             	mov    %rax,%rdi
    4663:	e8 1a 74 00 00       	callq  ba82 <_ZN4Heap3popEv>
    4668:	48 8d 85 30 ed df ff 	lea    -0x2012d0(%rbp),%rax
    466f:	48 8d 50 0c          	lea    0xc(%rax),%rdx
    4673:	48 8d 85 f0 ff df ff 	lea    -0x200010(%rbp),%rax
    467a:	48 89 d6             	mov    %rdx,%rsi
    467d:	48 89 c7             	mov    %rax,%rdi
    4680:	e8 a5 72 00 00       	callq  b92a <_ZN4Heap4pushEP4Grid>
    4685:	48 8d 85 f0 ff df ff 	lea    -0x200010(%rbp),%rax
    468c:	48 89 c7             	mov    %rax,%rdi
    468f:	e8 ee 73 00 00       	callq  ba82 <_ZN4Heap3popEv>
    4694:	48 8d 85 30 ed df ff 	lea    -0x2012d0(%rbp),%rax
    469b:	48 8d 50 0c          	lea    0xc(%rax),%rdx
    469f:	48 8d 85 f0 ff df ff 	lea    -0x200010(%rbp),%rax
    46a6:	48 89 d6             	mov    %rdx,%rsi
    46a9:	48 89 c7             	mov    %rax,%rdi
    46ac:	e8 79 72 00 00       	callq  b92a <_ZN4Heap4pushEP4Grid>
    46b1:	48 8d 85 f0 ff df ff 	lea    -0x200010(%rbp),%rax
    46b8:	48 89 c7             	mov    %rax,%rdi
    46bb:	e8 c2 73 00 00       	callq  ba82 <_ZN4Heap3popEv>
    46c0:	48 8d 85 30 ed df ff 	lea    -0x2012d0(%rbp),%rax
    46c7:	48 8d 50 0c          	lea    0xc(%rax),%rdx
    46cb:	48 8d 85 f0 ff df ff 	lea    -0x200010(%rbp),%rax
    46d2:	48 89 d6             	mov    %rdx,%rsi
    46d5:	48 89 c7             	mov    %rax,%rdi
    46d8:	e8 4d 72 00 00       	callq  b92a <_ZN4Heap4pushEP4Grid>
    46dd:	48 8d 85 f0 ff df ff 	lea    -0x200010(%rbp),%rax
    46e4:	48 89 c7             	mov    %rax,%rdi
    46e7:	e8 96 73 00 00       	callq  ba82 <_ZN4Heap3popEv>
    46ec:	48 8d 85 30 ed df ff 	lea    -0x2012d0(%rbp),%rax
    46f3:	48 8d 50 0c          	lea    0xc(%rax),%rdx
    46f7:	48 8d 85 f0 ff df ff 	lea    -0x200010(%rbp),%rax
    46fe:	48 89 d6             	mov    %rdx,%rsi
    4701:	48 89 c7             	mov    %rax,%rdi
    4704:	e8 21 72 00 00       	callq  b92a <_ZN4Heap4pushEP4Grid>
    4709:	48 8d 85 f0 ff df ff 	lea    -0x200010(%rbp),%rax
    4710:	48 89 c7             	mov    %rax,%rdi
    4713:	e8 6a 73 00 00       	callq  ba82 <_ZN4Heap3popEv>
    4718:	48 8d 85 30 ed df ff 	lea    -0x2012d0(%rbp),%rax
    471f:	48 8d 50 0c          	lea    0xc(%rax),%rdx
    4723:	48 8d 85 f0 ff df ff 	lea    -0x200010(%rbp),%rax
    472a:	48 89 d6             	mov    %rdx,%rsi
    472d:	48 89 c7             	mov    %rax,%rdi
    4730:	e8 f5 71 00 00       	callq  b92a <_ZN4Heap4pushEP4Grid>
    4735:	48 8d 85 f0 ff df ff 	lea    -0x200010(%rbp),%rax
    473c:	48 89 c7             	mov    %rax,%rdi
    473f:	e8 3e 73 00 00       	callq  ba82 <_ZN4Heap3popEv>
    4744:	48 8d 85 30 ed df ff 	lea    -0x2012d0(%rbp),%rax
    474b:	48 8d 50 0c          	lea    0xc(%rax),%rdx
    474f:	48 8d 85 f0 ff df ff 	lea    -0x200010(%rbp),%rax
    4756:	48 89 d6             	mov    %rdx,%rsi
    4759:	48 89 c7             	mov    %rax,%rdi
    475c:	e8 c9 71 00 00       	callq  b92a <_ZN4Heap4pushEP4Grid>
    4761:	48 8d 85 f0 ff df ff 	lea    -0x200010(%rbp),%rax
    4768:	48 89 c7             	mov    %rax,%rdi
    476b:	e8 12 73 00 00       	callq  ba82 <_ZN4Heap3popEv>
    4770:	48 8d 85 30 ed df ff 	lea    -0x2012d0(%rbp),%rax
    4777:	48 8d 50 0c          	lea    0xc(%rax),%rdx
    477b:	48 8d 85 f0 ff df ff 	lea    -0x200010(%rbp),%rax
    4782:	48 89 d6             	mov    %rdx,%rsi
    4785:	48 89 c7             	mov    %rax,%rdi
    4788:	e8 9d 71 00 00       	callq  b92a <_ZN4Heap4pushEP4Grid>
    478d:	48 8d 85 f0 ff df ff 	lea    -0x200010(%rbp),%rax
    4794:	48 89 c7             	mov    %rax,%rdi
    4797:	e8 e6 72 00 00       	callq  ba82 <_ZN4Heap3popEv>
    479c:	48 8d 85 30 ed df ff 	lea    -0x2012d0(%rbp),%rax
    47a3:	48 8d 50 0c          	lea    0xc(%rax),%rdx
    47a7:	48 8d 85 f0 ff df ff 	lea    -0x200010(%rbp),%rax
    47ae:	48 89 d6             	mov    %rdx,%rsi
    47b1:	48 89 c7             	mov    %rax,%rdi
    47b4:	e8 71 71 00 00       	callq  b92a <_ZN4Heap4pushEP4Grid>
    47b9:	48 8d 85 f0 ff df ff 	lea    -0x200010(%rbp),%rax
    47c0:	48 89 c7             	mov    %rax,%rdi
    47c3:	e8 ba 72 00 00       	callq  ba82 <_ZN4Heap3popEv>
    47c8:	48 8d 85 30 ed df ff 	lea    -0x2012d0(%rbp),%rax
    47cf:	48 8d 50 0c          	lea    0xc(%rax),%rdx
    47d3:	48 8d 85 f0 ff df ff 	lea    -0x200010(%rbp),%rax
    47da:	48 89 d6             	mov    %rdx,%rsi
    47dd:	48 89 c7             	mov    %rax,%rdi
    47e0:	e8 45 71 00 00       	callq  b92a <_ZN4Heap4pushEP4Grid>
    47e5:	48 8d 85 f0 ff df ff 	lea    -0x200010(%rbp),%rax
    47ec:	48 89 c7             	mov    %rax,%rdi
    47ef:	e8 8e 72 00 00       	callq  ba82 <_ZN4Heap3popEv>
    47f4:	48 8d 85 30 ed df ff 	lea    -0x2012d0(%rbp),%rax
    47fb:	48 8d 50 0c          	lea    0xc(%rax),%rdx
    47ff:	48 8d 85 f0 ff df ff 	lea    -0x200010(%rbp),%rax
    4806:	48 89 d6             	mov    %rdx,%rsi
    4809:	48 89 c7             	mov    %rax,%rdi
    480c:	e8 19 71 00 00       	callq  b92a <_ZN4Heap4pushEP4Grid>
    4811:	48 8d 85 f0 ff df ff 	lea    -0x200010(%rbp),%rax
    4818:	48 89 c7             	mov    %rax,%rdi
    481b:	e8 62 72 00 00       	callq  ba82 <_ZN4Heap3popEv>
    4820:	48 8d 85 30 ed df ff 	lea    -0x2012d0(%rbp),%rax
    4827:	48 8d 50 0c          	lea    0xc(%rax),%rdx
    482b:	48 8d 85 f0 ff df ff 	lea    -0x200010(%rbp),%rax
    4832:	48 89 d6             	mov    %rdx,%rsi
    4835:	48 89 c7             	mov    %rax,%rdi
    4838:	e8 ed 70 00 00       	callq  b92a <_ZN4Heap4pushEP4Grid>
    483d:	48 8d 85 f0 ff df ff 	lea    -0x200010(%rbp),%rax
    4844:	48 89 c7             	mov    %rax,%rdi
    4847:	e8 36 72 00 00       	callq  ba82 <_ZN4Heap3popEv>
    484c:	48 8d 85 30 ed df ff 	lea    -0x2012d0(%rbp),%rax
    4853:	48 8d 50 0c          	lea    0xc(%rax),%rdx
    4857:	48 8d 85 f0 ff df ff 	lea    -0x200010(%rbp),%rax
    485e:	48 89 d6             	mov    %rdx,%rsi
    4861:	48 89 c7             	mov    %rax,%rdi
    4864:	e8 c1 70 00 00       	callq  b92a <_ZN4Heap4pushEP4Grid>
    4869:	48 8d 85 f0 ff df ff 	lea    -0x200010(%rbp),%rax
    4870:	48 89 c7             	mov    %rax,%rdi
    4873:	e8 0a 72 00 00       	callq  ba82 <_ZN4Heap3popEv>
    4878:	48 8d 85 30 ed df ff 	lea    -0x2012d0(%rbp),%rax
    487f:	48 8d 50 0c          	lea    0xc(%rax),%rdx
    4883:	48 8d 85 f0 ff df ff 	lea    -0x200010(%rbp),%rax
    488a:	48 89 d6             	mov    %rdx,%rsi
    488d:	48 89 c7             	mov    %rax,%rdi
    4890:	e8 95 70 00 00       	callq  b92a <_ZN4Heap4pushEP4Grid>
    4895:	48 8d 85 f0 ff df ff 	lea    -0x200010(%rbp),%rax
    489c:	48 89 c7             	mov    %rax,%rdi
    489f:	e8 de 71 00 00       	callq  ba82 <_ZN4Heap3popEv>
    48a4:	48 8d 85 30 ed df ff 	lea    -0x2012d0(%rbp),%rax
    48ab:	48 8d 50 0c          	lea    0xc(%rax),%rdx
    48af:	48 8d 85 f0 ff df ff 	lea    -0x200010(%rbp),%rax
    48b6:	48 89 d6             	mov    %rdx,%rsi
    48b9:	48 89 c7             	mov    %rax,%rdi
    48bc:	e8 69 70 00 00       	callq  b92a <_ZN4Heap4pushEP4Grid>
    48c1:	48 8d 85 f0 ff df ff 	lea    -0x200010(%rbp),%rax
    48c8:	48 89 c7             	mov    %rax,%rdi
    48cb:	e8 b2 71 00 00       	callq  ba82 <_ZN4Heap3popEv>
    48d0:	48 8d 85 30 ed df ff 	lea    -0x2012d0(%rbp),%rax
    48d7:	48 8d 50 0c          	lea    0xc(%rax),%rdx
    48db:	48 8d 85 f0 ff df ff 	lea    -0x200010(%rbp),%rax
    48e2:	48 89 d6             	mov    %rdx,%rsi
    48e5:	48 89 c7             	mov    %rax,%rdi
    48e8:	e8 3d 70 00 00       	callq  b92a <_ZN4Heap4pushEP4Grid>
    48ed:	48 8d 85 f0 ff df ff 	lea    -0x200010(%rbp),%rax
    48f4:	48 89 c7             	mov    %rax,%rdi
    48f7:	e8 86 71 00 00       	callq  ba82 <_ZN4Heap3popEv>
    48fc:	48 8d 85 30 ed df ff 	lea    -0x2012d0(%rbp),%rax
    4903:	48 8d 50 0c          	lea    0xc(%rax),%rdx
    4907:	48 8d 85 f0 ff df ff 	lea    -0x200010(%rbp),%rax
    490e:	48 89 d6             	mov    %rdx,%rsi
    4911:	48 89 c7             	mov    %rax,%rdi
    4914:	e8 11 70 00 00       	callq  b92a <_ZN4Heap4pushEP4Grid>
    4919:	48 8d 85 f0 ff df ff 	lea    -0x200010(%rbp),%rax
    4920:	48 89 c7             	mov    %rax,%rdi
    4923:	e8 5a 71 00 00       	callq  ba82 <_ZN4Heap3popEv>
    4928:	48 8d 85 30 ed df ff 	lea    -0x2012d0(%rbp),%rax
    492f:	48 8d 50 0c          	lea    0xc(%rax),%rdx
    4933:	48 8d 85 f0 ff df ff 	lea    -0x200010(%rbp),%rax
    493a:	48 89 d6             	mov    %rdx,%rsi
    493d:	48 89 c7             	mov    %rax,%rdi
    4940:	e8 e5 6f 00 00       	callq  b92a <_ZN4Heap4pushEP4Grid>
    4945:	48 8d 85 f0 ff df ff 	lea    -0x200010(%rbp),%rax
    494c:	48 89 c7             	mov    %rax,%rdi
    494f:	e8 2e 71 00 00       	callq  ba82 <_ZN4Heap3popEv>
    4954:	48 8d 85 30 ed df ff 	lea    -0x2012d0(%rbp),%rax
    495b:	48 8d 50 0c          	lea    0xc(%rax),%rdx
    495f:	48 8d 85 f0 ff df ff 	lea    -0x200010(%rbp),%rax
    4966:	48 89 d6             	mov    %rdx,%rsi
    4969:	48 89 c7             	mov    %rax,%rdi
    496c:	e8 b9 6f 00 00       	callq  b92a <_ZN4Heap4pushEP4Grid>
    4971:	48 8d 85 f0 ff df ff 	lea    -0x200010(%rbp),%rax
    4978:	48 89 c7             	mov    %rax,%rdi
    497b:	e8 02 71 00 00       	callq  ba82 <_ZN4Heap3popEv>
    4980:	48 8d 85 30 ed df ff 	lea    -0x2012d0(%rbp),%rax
    4987:	48 8d 50 0c          	lea    0xc(%rax),%rdx
    498b:	48 8d 85 f0 ff df ff 	lea    -0x200010(%rbp),%rax
    4992:	48 89 d6             	mov    %rdx,%rsi
    4995:	48 89 c7             	mov    %rax,%rdi
    4998:	e8 8d 6f 00 00       	callq  b92a <_ZN4Heap4pushEP4Grid>
    499d:	48 8d 85 f0 ff df ff 	lea    -0x200010(%rbp),%rax
    49a4:	48 89 c7             	mov    %rax,%rdi
    49a7:	e8 d6 70 00 00       	callq  ba82 <_ZN4Heap3popEv>
    49ac:	48 8d 85 30 ed df ff 	lea    -0x2012d0(%rbp),%rax
    49b3:	48 8d 50 0c          	lea    0xc(%rax),%rdx
    49b7:	48 8d 85 f0 ff df ff 	lea    -0x200010(%rbp),%rax
    49be:	48 89 d6             	mov    %rdx,%rsi
    49c1:	48 89 c7             	mov    %rax,%rdi
    49c4:	e8 61 6f 00 00       	callq  b92a <_ZN4Heap4pushEP4Grid>
    49c9:	48 8d 85 f0 ff df ff 	lea    -0x200010(%rbp),%rax
    49d0:	48 89 c7             	mov    %rax,%rdi
    49d3:	e8 aa 70 00 00       	callq  ba82 <_ZN4Heap3popEv>
    49d8:	48 8d 85 30 ed df ff 	lea    -0x2012d0(%rbp),%rax
    49df:	48 8d 50 0c          	lea    0xc(%rax),%rdx
    49e3:	48 8d 85 f0 ff df ff 	lea    -0x200010(%rbp),%rax
    49ea:	48 89 d6             	mov    %rdx,%rsi
    49ed:	48 89 c7             	mov    %rax,%rdi
    49f0:	e8 35 6f 00 00       	callq  b92a <_ZN4Heap4pushEP4Grid>
    49f5:	48 8d 85 f0 ff df ff 	lea    -0x200010(%rbp),%rax
    49fc:	48 89 c7             	mov    %rax,%rdi
    49ff:	e8 7e 70 00 00       	callq  ba82 <_ZN4Heap3popEv>
    4a04:	48 8d 85 30 ed df ff 	lea    -0x2012d0(%rbp),%rax
    4a0b:	48 8d 50 0c          	lea    0xc(%rax),%rdx
    4a0f:	48 8d 85 f0 ff df ff 	lea    -0x200010(%rbp),%rax
    4a16:	48 89 d6             	mov    %rdx,%rsi
    4a19:	48 89 c7             	mov    %rax,%rdi
    4a1c:	e8 09 6f 00 00       	callq  b92a <_ZN4Heap4pushEP4Grid>
    4a21:	48 8d 85 f0 ff df ff 	lea    -0x200010(%rbp),%rax
    4a28:	48 89 c7             	mov    %rax,%rdi
    4a2b:	e8 52 70 00 00       	callq  ba82 <_ZN4Heap3popEv>
    4a30:	48 8d 85 30 ed df ff 	lea    -0x2012d0(%rbp),%rax
    4a37:	48 8d 50 0c          	lea    0xc(%rax),%rdx
    4a3b:	48 8d 85 f0 ff df ff 	lea    -0x200010(%rbp),%rax
    4a42:	48 89 d6             	mov    %rdx,%rsi
    4a45:	48 89 c7             	mov    %rax,%rdi
    4a48:	e8 dd 6e 00 00       	callq  b92a <_ZN4Heap4pushEP4Grid>
    4a4d:	48 8d 85 f0 ff df ff 	lea    -0x200010(%rbp),%rax
    4a54:	48 89 c7             	mov    %rax,%rdi
    4a57:	e8 26 70 00 00       	callq  ba82 <_ZN4Heap3popEv>
    4a5c:	48 8d 85 30 ed df ff 	lea    -0x2012d0(%rbp),%rax
    4a63:	48 8d 50 0c          	lea    0xc(%rax),%rdx
    4a67:	48 8d 85 f0 ff df ff 	lea    -0x200010(%rbp),%rax
    4a6e:	48 89 d6             	mov    %rdx,%rsi
    4a71:	48 89 c7             	mov    %rax,%rdi
    4a74:	e8 b1 6e 00 00       	callq  b92a <_ZN4Heap4pushEP4Grid>
    4a79:	48 8d 85 f0 ff df ff 	lea    -0x200010(%rbp),%rax
    4a80:	48 89 c7             	mov    %rax,%rdi
    4a83:	e8 fa 6f 00 00       	callq  ba82 <_ZN4Heap3popEv>
    4a88:	48 8d 85 30 ed df ff 	lea    -0x2012d0(%rbp),%rax
    4a8f:	48 8d 50 0c          	lea    0xc(%rax),%rdx
    4a93:	48 8d 85 f0 ff df ff 	lea    -0x200010(%rbp),%rax
    4a9a:	48 89 d6             	mov    %rdx,%rsi
    4a9d:	48 89 c7             	mov    %rax,%rdi
    4aa0:	e8 85 6e 00 00       	callq  b92a <_ZN4Heap4pushEP4Grid>
    4aa5:	48 8d 85 f0 ff df ff 	lea    -0x200010(%rbp),%rax
    4aac:	48 89 c7             	mov    %rax,%rdi
    4aaf:	e8 ce 6f 00 00       	callq  ba82 <_ZN4Heap3popEv>
    4ab4:	48 8d 85 30 ed df ff 	lea    -0x2012d0(%rbp),%rax
    4abb:	48 8d 50 0c          	lea    0xc(%rax),%rdx
    4abf:	48 8d 85 f0 ff df ff 	lea    -0x200010(%rbp),%rax
    4ac6:	48 89 d6             	mov    %rdx,%rsi
    4ac9:	48 89 c7             	mov    %rax,%rdi
    4acc:	e8 59 6e 00 00       	callq  b92a <_ZN4Heap4pushEP4Grid>
    4ad1:	48 8d 85 f0 ff df ff 	lea    -0x200010(%rbp),%rax
    4ad8:	48 89 c7             	mov    %rax,%rdi
    4adb:	e8 a2 6f 00 00       	callq  ba82 <_ZN4Heap3popEv>
    4ae0:	48 8d 85 30 ed df ff 	lea    -0x2012d0(%rbp),%rax
    4ae7:	48 8d 50 0c          	lea    0xc(%rax),%rdx
    4aeb:	48 8d 85 f0 ff df ff 	lea    -0x200010(%rbp),%rax
    4af2:	48 89 d6             	mov    %rdx,%rsi
    4af5:	48 89 c7             	mov    %rax,%rdi
    4af8:	e8 2d 6e 00 00       	callq  b92a <_ZN4Heap4pushEP4Grid>
    4afd:	48 8d 85 f0 ff df ff 	lea    -0x200010(%rbp),%rax
    4b04:	48 89 c7             	mov    %rax,%rdi
    4b07:	e8 76 6f 00 00       	callq  ba82 <_ZN4Heap3popEv>
    4b0c:	48 8d 85 30 ed df ff 	lea    -0x2012d0(%rbp),%rax
    4b13:	48 8d 50 0c          	lea    0xc(%rax),%rdx
    4b17:	48 8d 85 f0 ff df ff 	lea    -0x200010(%rbp),%rax
    4b1e:	48 89 d6             	mov    %rdx,%rsi
    4b21:	48 89 c7             	mov    %rax,%rdi
    4b24:	e8 01 6e 00 00       	callq  b92a <_ZN4Heap4pushEP4Grid>
    4b29:	48 8d 85 f0 ff df ff 	lea    -0x200010(%rbp),%rax
    4b30:	48 89 c7             	mov    %rax,%rdi
    4b33:	e8 4a 6f 00 00       	callq  ba82 <_ZN4Heap3popEv>
    4b38:	48 8d 85 30 ed df ff 	lea    -0x2012d0(%rbp),%rax
    4b3f:	48 8d 50 0c          	lea    0xc(%rax),%rdx
    4b43:	48 8d 85 f0 ff df ff 	lea    -0x200010(%rbp),%rax
    4b4a:	48 89 d6             	mov    %rdx,%rsi
    4b4d:	48 89 c7             	mov    %rax,%rdi
    4b50:	e8 d5 6d 00 00       	callq  b92a <_ZN4Heap4pushEP4Grid>
    4b55:	48 8d 85 f0 ff df ff 	lea    -0x200010(%rbp),%rax
    4b5c:	48 89 c7             	mov    %rax,%rdi
    4b5f:	e8 1e 6f 00 00       	callq  ba82 <_ZN4Heap3popEv>
    4b64:	48 8d 85 30 ed df ff 	lea    -0x2012d0(%rbp),%rax
    4b6b:	48 8d 50 0c          	lea    0xc(%rax),%rdx
    4b6f:	48 8d 85 f0 ff df ff 	lea    -0x200010(%rbp),%rax
    4b76:	48 89 d6             	mov    %rdx,%rsi
    4b79:	48 89 c7             	mov    %rax,%rdi
    4b7c:	e8 a9 6d 00 00       	callq  b92a <_ZN4Heap4pushEP4Grid>
    4b81:	48 8d 85 f0 ff df ff 	lea    -0x200010(%rbp),%rax
    4b88:	48 89 c7             	mov    %rax,%rdi
    4b8b:	e8 f2 6e 00 00       	callq  ba82 <_ZN4Heap3popEv>
    4b90:	48 8d 85 30 ed df ff 	lea    -0x2012d0(%rbp),%rax
    4b97:	48 8d 50 0c          	lea    0xc(%rax),%rdx
    4b9b:	48 8d 85 f0 ff df ff 	lea    -0x200010(%rbp),%rax
    4ba2:	48 89 d6             	mov    %rdx,%rsi
    4ba5:	48 89 c7             	mov    %rax,%rdi
    4ba8:	e8 7d 6d 00 00       	callq  b92a <_ZN4Heap4pushEP4Grid>
    4bad:	48 8d 85 f0 ff df ff 	lea    -0x200010(%rbp),%rax
    4bb4:	48 89 c7             	mov    %rax,%rdi
    4bb7:	e8 c6 6e 00 00       	callq  ba82 <_ZN4Heap3popEv>
    4bbc:	48 8d 85 30 ed df ff 	lea    -0x2012d0(%rbp),%rax
    4bc3:	48 8d 50 0c          	lea    0xc(%rax),%rdx
    4bc7:	48 8d 85 f0 ff df ff 	lea    -0x200010(%rbp),%rax
    4bce:	48 89 d6             	mov    %rdx,%rsi
    4bd1:	48 89 c7             	mov    %rax,%rdi
    4bd4:	e8 51 6d 00 00       	callq  b92a <_ZN4Heap4pushEP4Grid>
    4bd9:	48 8d 85 f0 ff df ff 	lea    -0x200010(%rbp),%rax
    4be0:	48 89 c7             	mov    %rax,%rdi
    4be3:	e8 9a 6e 00 00       	callq  ba82 <_ZN4Heap3popEv>
    4be8:	48 8d 85 30 ed df ff 	lea    -0x2012d0(%rbp),%rax
    4bef:	48 8d 50 0c          	lea    0xc(%rax),%rdx
    4bf3:	48 8d 85 f0 ff df ff 	lea    -0x200010(%rbp),%rax
    4bfa:	48 89 d6             	mov    %rdx,%rsi
    4bfd:	48 89 c7             	mov    %rax,%rdi
    4c00:	e8 25 6d 00 00       	callq  b92a <_ZN4Heap4pushEP4Grid>
    4c05:	48 8d 85 f0 ff df ff 	lea    -0x200010(%rbp),%rax
    4c0c:	48 89 c7             	mov    %rax,%rdi
    4c0f:	e8 6e 6e 00 00       	callq  ba82 <_ZN4Heap3popEv>
    4c14:	48 8d 85 30 ed df ff 	lea    -0x2012d0(%rbp),%rax
    4c1b:	48 8d 50 0c          	lea    0xc(%rax),%rdx
    4c1f:	48 8d 85 f0 ff df ff 	lea    -0x200010(%rbp),%rax
    4c26:	48 89 d6             	mov    %rdx,%rsi
    4c29:	48 89 c7             	mov    %rax,%rdi
    4c2c:	e8 f9 6c 00 00       	callq  b92a <_ZN4Heap4pushEP4Grid>
    4c31:	48 8d 85 f0 ff df ff 	lea    -0x200010(%rbp),%rax
    4c38:	48 89 c7             	mov    %rax,%rdi
    4c3b:	e8 42 6e 00 00       	callq  ba82 <_ZN4Heap3popEv>
    4c40:	48 8d 85 30 ed df ff 	lea    -0x2012d0(%rbp),%rax
    4c47:	48 8d 50 0c          	lea    0xc(%rax),%rdx
    4c4b:	48 8d 85 f0 ff df ff 	lea    -0x200010(%rbp),%rax
    4c52:	48 89 d6             	mov    %rdx,%rsi
    4c55:	48 89 c7             	mov    %rax,%rdi
    4c58:	e8 cd 6c 00 00       	callq  b92a <_ZN4Heap4pushEP4Grid>
    4c5d:	48 8d 85 f0 ff df ff 	lea    -0x200010(%rbp),%rax
    4c64:	48 89 c7             	mov    %rax,%rdi
    4c67:	e8 16 6e 00 00       	callq  ba82 <_ZN4Heap3popEv>
    4c6c:	48 8d 85 30 ed df ff 	lea    -0x2012d0(%rbp),%rax
    4c73:	48 8d 50 0c          	lea    0xc(%rax),%rdx
    4c77:	48 8d 85 f0 ff df ff 	lea    -0x200010(%rbp),%rax
    4c7e:	48 89 d6             	mov    %rdx,%rsi
    4c81:	48 89 c7             	mov    %rax,%rdi
    4c84:	e8 a1 6c 00 00       	callq  b92a <_ZN4Heap4pushEP4Grid>
    4c89:	48 8d 85 f0 ff df ff 	lea    -0x200010(%rbp),%rax
    4c90:	48 89 c7             	mov    %rax,%rdi
    4c93:	e8 ea 6d 00 00       	callq  ba82 <_ZN4Heap3popEv>
    4c98:	48 8d 85 30 ed df ff 	lea    -0x2012d0(%rbp),%rax
    4c9f:	48 8d 50 0c          	lea    0xc(%rax),%rdx
    4ca3:	48 8d 85 f0 ff df ff 	lea    -0x200010(%rbp),%rax
    4caa:	48 89 d6             	mov    %rdx,%rsi
    4cad:	48 89 c7             	mov    %rax,%rdi
    4cb0:	e8 75 6c 00 00       	callq  b92a <_ZN4Heap4pushEP4Grid>
    4cb5:	48 8d 85 f0 ff df ff 	lea    -0x200010(%rbp),%rax
    4cbc:	48 89 c7             	mov    %rax,%rdi
    4cbf:	e8 be 6d 00 00       	callq  ba82 <_ZN4Heap3popEv>
    4cc4:	48 8d 85 30 ed df ff 	lea    -0x2012d0(%rbp),%rax
    4ccb:	48 8d 50 0c          	lea    0xc(%rax),%rdx
    4ccf:	48 8d 85 f0 ff df ff 	lea    -0x200010(%rbp),%rax
    4cd6:	48 89 d6             	mov    %rdx,%rsi
    4cd9:	48 89 c7             	mov    %rax,%rdi
    4cdc:	e8 49 6c 00 00       	callq  b92a <_ZN4Heap4pushEP4Grid>
    4ce1:	48 8d 85 f0 ff df ff 	lea    -0x200010(%rbp),%rax
    4ce8:	48 89 c7             	mov    %rax,%rdi
    4ceb:	e8 92 6d 00 00       	callq  ba82 <_ZN4Heap3popEv>
    4cf0:	48 8d 85 30 ed df ff 	lea    -0x2012d0(%rbp),%rax
    4cf7:	48 8d 50 0c          	lea    0xc(%rax),%rdx
    4cfb:	48 8d 85 f0 ff df ff 	lea    -0x200010(%rbp),%rax
    4d02:	48 89 d6             	mov    %rdx,%rsi
    4d05:	48 89 c7             	mov    %rax,%rdi
    4d08:	e8 1d 6c 00 00       	callq  b92a <_ZN4Heap4pushEP4Grid>
    4d0d:	48 8d 85 f0 ff df ff 	lea    -0x200010(%rbp),%rax
    4d14:	48 89 c7             	mov    %rax,%rdi
    4d17:	e8 66 6d 00 00       	callq  ba82 <_ZN4Heap3popEv>
    4d1c:	48 8d 85 30 ed df ff 	lea    -0x2012d0(%rbp),%rax
    4d23:	48 8d 50 0c          	lea    0xc(%rax),%rdx
    4d27:	48 8d 85 f0 ff df ff 	lea    -0x200010(%rbp),%rax
    4d2e:	48 89 d6             	mov    %rdx,%rsi
    4d31:	48 89 c7             	mov    %rax,%rdi
    4d34:	e8 f1 6b 00 00       	callq  b92a <_ZN4Heap4pushEP4Grid>
    4d39:	48 8d 85 f0 ff df ff 	lea    -0x200010(%rbp),%rax
    4d40:	48 89 c7             	mov    %rax,%rdi
    4d43:	e8 3a 6d 00 00       	callq  ba82 <_ZN4Heap3popEv>
    4d48:	48 8d 85 30 ed df ff 	lea    -0x2012d0(%rbp),%rax
    4d4f:	48 8d 50 0c          	lea    0xc(%rax),%rdx
    4d53:	48 8d 85 f0 ff df ff 	lea    -0x200010(%rbp),%rax
    4d5a:	48 89 d6             	mov    %rdx,%rsi
    4d5d:	48 89 c7             	mov    %rax,%rdi
    4d60:	e8 c5 6b 00 00       	callq  b92a <_ZN4Heap4pushEP4Grid>
    4d65:	48 8d 85 f0 ff df ff 	lea    -0x200010(%rbp),%rax
    4d6c:	48 89 c7             	mov    %rax,%rdi
    4d6f:	e8 0e 6d 00 00       	callq  ba82 <_ZN4Heap3popEv>
    4d74:	48 8d 85 30 ed df ff 	lea    -0x2012d0(%rbp),%rax
    4d7b:	48 8d 50 0c          	lea    0xc(%rax),%rdx
    4d7f:	48 8d 85 f0 ff df ff 	lea    -0x200010(%rbp),%rax
    4d86:	48 89 d6             	mov    %rdx,%rsi
    4d89:	48 89 c7             	mov    %rax,%rdi
    4d8c:	e8 99 6b 00 00       	callq  b92a <_ZN4Heap4pushEP4Grid>
    4d91:	48 8d 85 f0 ff df ff 	lea    -0x200010(%rbp),%rax
    4d98:	48 89 c7             	mov    %rax,%rdi
    4d9b:	e8 e2 6c 00 00       	callq  ba82 <_ZN4Heap3popEv>
    4da0:	48 8d 85 30 ed df ff 	lea    -0x2012d0(%rbp),%rax
    4da7:	48 8d 50 0c          	lea    0xc(%rax),%rdx
    4dab:	48 8d 85 f0 ff df ff 	lea    -0x200010(%rbp),%rax
    4db2:	48 89 d6             	mov    %rdx,%rsi
    4db5:	48 89 c7             	mov    %rax,%rdi
    4db8:	e8 6d 6b 00 00       	callq  b92a <_ZN4Heap4pushEP4Grid>
    4dbd:	48 8d 85 f0 ff df ff 	lea    -0x200010(%rbp),%rax
    4dc4:	48 89 c7             	mov    %rax,%rdi
    4dc7:	e8 b6 6c 00 00       	callq  ba82 <_ZN4Heap3popEv>
    4dcc:	48 8d 85 30 ed df ff 	lea    -0x2012d0(%rbp),%rax
    4dd3:	48 8d 50 0c          	lea    0xc(%rax),%rdx
    4dd7:	48 8d 85 f0 ff df ff 	lea    -0x200010(%rbp),%rax
    4dde:	48 89 d6             	mov    %rdx,%rsi
    4de1:	48 89 c7             	mov    %rax,%rdi
    4de4:	e8 41 6b 00 00       	callq  b92a <_ZN4Heap4pushEP4Grid>
    4de9:	48 8d 85 f0 ff df ff 	lea    -0x200010(%rbp),%rax
    4df0:	48 89 c7             	mov    %rax,%rdi
    4df3:	e8 8a 6c 00 00       	callq  ba82 <_ZN4Heap3popEv>
    4df8:	48 8d 85 30 ed df ff 	lea    -0x2012d0(%rbp),%rax
    4dff:	48 8d 50 0c          	lea    0xc(%rax),%rdx
    4e03:	48 8d 85 f0 ff df ff 	lea    -0x200010(%rbp),%rax
    4e0a:	48 89 d6             	mov    %rdx,%rsi
    4e0d:	48 89 c7             	mov    %rax,%rdi
    4e10:	e8 15 6b 00 00       	callq  b92a <_ZN4Heap4pushEP4Grid>
    4e15:	48 8d 85 f0 ff df ff 	lea    -0x200010(%rbp),%rax
    4e1c:	48 89 c7             	mov    %rax,%rdi
    4e1f:	e8 5e 6c 00 00       	callq  ba82 <_ZN4Heap3popEv>
    4e24:	48 8d 85 30 ed df ff 	lea    -0x2012d0(%rbp),%rax
    4e2b:	48 8d 50 0c          	lea    0xc(%rax),%rdx
    4e2f:	48 8d 85 f0 ff df ff 	lea    -0x200010(%rbp),%rax
    4e36:	48 89 d6             	mov    %rdx,%rsi
    4e39:	48 89 c7             	mov    %rax,%rdi
    4e3c:	e8 e9 6a 00 00       	callq  b92a <_ZN4Heap4pushEP4Grid>
    4e41:	48 8d 85 f0 ff df ff 	lea    -0x200010(%rbp),%rax
    4e48:	48 89 c7             	mov    %rax,%rdi
    4e4b:	e8 32 6c 00 00       	callq  ba82 <_ZN4Heap3popEv>
    4e50:	48 8d 85 30 ed df ff 	lea    -0x2012d0(%rbp),%rax
    4e57:	48 8d 50 0c          	lea    0xc(%rax),%rdx
    4e5b:	48 8d 85 f0 ff df ff 	lea    -0x200010(%rbp),%rax
    4e62:	48 89 d6             	mov    %rdx,%rsi
    4e65:	48 89 c7             	mov    %rax,%rdi
    4e68:	e8 bd 6a 00 00       	callq  b92a <_ZN4Heap4pushEP4Grid>
    4e6d:	48 8d 85 f0 ff df ff 	lea    -0x200010(%rbp),%rax
    4e74:	48 89 c7             	mov    %rax,%rdi
    4e77:	e8 06 6c 00 00       	callq  ba82 <_ZN4Heap3popEv>
    4e7c:	48 8d 85 30 ed df ff 	lea    -0x2012d0(%rbp),%rax
    4e83:	48 8d 50 0c          	lea    0xc(%rax),%rdx
    4e87:	48 8d 85 f0 ff df ff 	lea    -0x200010(%rbp),%rax
    4e8e:	48 89 d6             	mov    %rdx,%rsi
    4e91:	48 89 c7             	mov    %rax,%rdi
    4e94:	e8 91 6a 00 00       	callq  b92a <_ZN4Heap4pushEP4Grid>
    4e99:	48 8d 85 f0 ff df ff 	lea    -0x200010(%rbp),%rax
    4ea0:	48 89 c7             	mov    %rax,%rdi
    4ea3:	e8 da 6b 00 00       	callq  ba82 <_ZN4Heap3popEv>
    4ea8:	48 8d 85 30 ed df ff 	lea    -0x2012d0(%rbp),%rax
    4eaf:	48 8d 50 0c          	lea    0xc(%rax),%rdx
    4eb3:	48 8d 85 f0 ff df ff 	lea    -0x200010(%rbp),%rax
    4eba:	48 89 d6             	mov    %rdx,%rsi
    4ebd:	48 89 c7             	mov    %rax,%rdi
    4ec0:	e8 65 6a 00 00       	callq  b92a <_ZN4Heap4pushEP4Grid>
    4ec5:	48 8d 85 f0 ff df ff 	lea    -0x200010(%rbp),%rax
    4ecc:	48 89 c7             	mov    %rax,%rdi
    4ecf:	e8 ae 6b 00 00       	callq  ba82 <_ZN4Heap3popEv>
    4ed4:	48 8d 85 30 ed df ff 	lea    -0x2012d0(%rbp),%rax
    4edb:	48 8d 50 0c          	lea    0xc(%rax),%rdx
    4edf:	48 8d 85 f0 ff df ff 	lea    -0x200010(%rbp),%rax
    4ee6:	48 89 d6             	mov    %rdx,%rsi
    4ee9:	48 89 c7             	mov    %rax,%rdi
    4eec:	e8 39 6a 00 00       	callq  b92a <_ZN4Heap4pushEP4Grid>
    4ef1:	48 8d 85 f0 ff df ff 	lea    -0x200010(%rbp),%rax
    4ef8:	48 89 c7             	mov    %rax,%rdi
    4efb:	e8 82 6b 00 00       	callq  ba82 <_ZN4Heap3popEv>
    4f00:	48 8d 85 30 ed df ff 	lea    -0x2012d0(%rbp),%rax
    4f07:	48 8d 50 0c          	lea    0xc(%rax),%rdx
    4f0b:	48 8d 85 f0 ff df ff 	lea    -0x200010(%rbp),%rax
    4f12:	48 89 d6             	mov    %rdx,%rsi
    4f15:	48 89 c7             	mov    %rax,%rdi
    4f18:	e8 0d 6a 00 00       	callq  b92a <_ZN4Heap4pushEP4Grid>
    4f1d:	48 8d 85 f0 ff df ff 	lea    -0x200010(%rbp),%rax
    4f24:	48 89 c7             	mov    %rax,%rdi
    4f27:	e8 56 6b 00 00       	callq  ba82 <_ZN4Heap3popEv>
    4f2c:	48 8d 85 30 ed df ff 	lea    -0x2012d0(%rbp),%rax
    4f33:	48 8d 50 0c          	lea    0xc(%rax),%rdx
    4f37:	48 8d 85 f0 ff df ff 	lea    -0x200010(%rbp),%rax
    4f3e:	48 89 d6             	mov    %rdx,%rsi
    4f41:	48 89 c7             	mov    %rax,%rdi
    4f44:	e8 e1 69 00 00       	callq  b92a <_ZN4Heap4pushEP4Grid>
    4f49:	48 8d 85 f0 ff df ff 	lea    -0x200010(%rbp),%rax
    4f50:	48 89 c7             	mov    %rax,%rdi
    4f53:	e8 2a 6b 00 00       	callq  ba82 <_ZN4Heap3popEv>
    4f58:	48 8d 85 30 ed df ff 	lea    -0x2012d0(%rbp),%rax
    4f5f:	48 8d 50 0c          	lea    0xc(%rax),%rdx
    4f63:	48 8d 85 f0 ff df ff 	lea    -0x200010(%rbp),%rax
    4f6a:	48 89 d6             	mov    %rdx,%rsi
    4f6d:	48 89 c7             	mov    %rax,%rdi
    4f70:	e8 b5 69 00 00       	callq  b92a <_ZN4Heap4pushEP4Grid>
    4f75:	48 8d 85 f0 ff df ff 	lea    -0x200010(%rbp),%rax
    4f7c:	48 89 c7             	mov    %rax,%rdi
    4f7f:	e8 fe 6a 00 00       	callq  ba82 <_ZN4Heap3popEv>
    4f84:	48 8d 85 30 ed df ff 	lea    -0x2012d0(%rbp),%rax
    4f8b:	48 8d 50 0c          	lea    0xc(%rax),%rdx
    4f8f:	48 8d 85 f0 ff df ff 	lea    -0x200010(%rbp),%rax
    4f96:	48 89 d6             	mov    %rdx,%rsi
    4f99:	48 89 c7             	mov    %rax,%rdi
    4f9c:	e8 89 69 00 00       	callq  b92a <_ZN4Heap4pushEP4Grid>
    4fa1:	48 8d 85 f0 ff df ff 	lea    -0x200010(%rbp),%rax
    4fa8:	48 89 c7             	mov    %rax,%rdi
    4fab:	e8 d2 6a 00 00       	callq  ba82 <_ZN4Heap3popEv>
    4fb0:	48 8d 85 30 ed df ff 	lea    -0x2012d0(%rbp),%rax
    4fb7:	48 8d 50 0c          	lea    0xc(%rax),%rdx
    4fbb:	48 8d 85 f0 ff df ff 	lea    -0x200010(%rbp),%rax
    4fc2:	48 89 d6             	mov    %rdx,%rsi
    4fc5:	48 89 c7             	mov    %rax,%rdi
    4fc8:	e8 5d 69 00 00       	callq  b92a <_ZN4Heap4pushEP4Grid>
    4fcd:	48 8d 85 f0 ff df ff 	lea    -0x200010(%rbp),%rax
    4fd4:	48 89 c7             	mov    %rax,%rdi
    4fd7:	e8 a6 6a 00 00       	callq  ba82 <_ZN4Heap3popEv>
    4fdc:	48 8d 85 30 ed df ff 	lea    -0x2012d0(%rbp),%rax
    4fe3:	48 8d 50 0c          	lea    0xc(%rax),%rdx
    4fe7:	48 8d 85 f0 ff df ff 	lea    -0x200010(%rbp),%rax
    4fee:	48 89 d6             	mov    %rdx,%rsi
    4ff1:	48 89 c7             	mov    %rax,%rdi
    4ff4:	e8 31 69 00 00       	callq  b92a <_ZN4Heap4pushEP4Grid>
    4ff9:	48 8d 85 f0 ff df ff 	lea    -0x200010(%rbp),%rax
    5000:	48 89 c7             	mov    %rax,%rdi
    5003:	e8 7a 6a 00 00       	callq  ba82 <_ZN4Heap3popEv>
    5008:	48 8d 85 30 ed df ff 	lea    -0x2012d0(%rbp),%rax
    500f:	48 8d 50 0c          	lea    0xc(%rax),%rdx
    5013:	48 8d 85 f0 ff df ff 	lea    -0x200010(%rbp),%rax
    501a:	48 89 d6             	mov    %rdx,%rsi
    501d:	48 89 c7             	mov    %rax,%rdi
    5020:	e8 05 69 00 00       	callq  b92a <_ZN4Heap4pushEP4Grid>
    5025:	48 8d 85 f0 ff df ff 	lea    -0x200010(%rbp),%rax
    502c:	48 89 c7             	mov    %rax,%rdi
    502f:	e8 4e 6a 00 00       	callq  ba82 <_ZN4Heap3popEv>
    5034:	48 8d 85 30 ed df ff 	lea    -0x2012d0(%rbp),%rax
    503b:	48 8d 50 0c          	lea    0xc(%rax),%rdx
    503f:	48 8d 85 f0 ff df ff 	lea    -0x200010(%rbp),%rax
    5046:	48 89 d6             	mov    %rdx,%rsi
    5049:	48 89 c7             	mov    %rax,%rdi
    504c:	e8 d9 68 00 00       	callq  b92a <_ZN4Heap4pushEP4Grid>
    5051:	48 8d 85 f0 ff df ff 	lea    -0x200010(%rbp),%rax
    5058:	48 89 c7             	mov    %rax,%rdi
    505b:	e8 22 6a 00 00       	callq  ba82 <_ZN4Heap3popEv>
    5060:	48 8d 85 30 ed df ff 	lea    -0x2012d0(%rbp),%rax
    5067:	48 8d 50 0c          	lea    0xc(%rax),%rdx
    506b:	48 8d 85 f0 ff df ff 	lea    -0x200010(%rbp),%rax
    5072:	48 89 d6             	mov    %rdx,%rsi
    5075:	48 89 c7             	mov    %rax,%rdi
    5078:	e8 ad 68 00 00       	callq  b92a <_ZN4Heap4pushEP4Grid>
    507d:	48 8d 85 f0 ff df ff 	lea    -0x200010(%rbp),%rax
    5084:	48 89 c7             	mov    %rax,%rdi
    5087:	e8 f6 69 00 00       	callq  ba82 <_ZN4Heap3popEv>
    508c:	48 8d 85 30 ed df ff 	lea    -0x2012d0(%rbp),%rax
    5093:	48 8d 50 0c          	lea    0xc(%rax),%rdx
    5097:	48 8d 85 f0 ff df ff 	lea    -0x200010(%rbp),%rax
    509e:	48 89 d6             	mov    %rdx,%rsi
    50a1:	48 89 c7             	mov    %rax,%rdi
    50a4:	e8 81 68 00 00       	callq  b92a <_ZN4Heap4pushEP4Grid>
    50a9:	48 8d 85 f0 ff df ff 	lea    -0x200010(%rbp),%rax
    50b0:	48 89 c7             	mov    %rax,%rdi
    50b3:	e8 ca 69 00 00       	callq  ba82 <_ZN4Heap3popEv>
    50b8:	48 8d 85 30 ed df ff 	lea    -0x2012d0(%rbp),%rax
    50bf:	48 8d 50 0c          	lea    0xc(%rax),%rdx
    50c3:	48 8d 85 f0 ff df ff 	lea    -0x200010(%rbp),%rax
    50ca:	48 89 d6             	mov    %rdx,%rsi
    50cd:	48 89 c7             	mov    %rax,%rdi
    50d0:	e8 55 68 00 00       	callq  b92a <_ZN4Heap4pushEP4Grid>
    50d5:	48 8d 85 f0 ff df ff 	lea    -0x200010(%rbp),%rax
    50dc:	48 89 c7             	mov    %rax,%rdi
    50df:	e8 9e 69 00 00       	callq  ba82 <_ZN4Heap3popEv>
    50e4:	48 8d 85 30 ed df ff 	lea    -0x2012d0(%rbp),%rax
    50eb:	48 8d 50 0c          	lea    0xc(%rax),%rdx
    50ef:	48 8d 85 f0 ff df ff 	lea    -0x200010(%rbp),%rax
    50f6:	48 89 d6             	mov    %rdx,%rsi
    50f9:	48 89 c7             	mov    %rax,%rdi
    50fc:	e8 29 68 00 00       	callq  b92a <_ZN4Heap4pushEP4Grid>
    5101:	48 8d 85 f0 ff df ff 	lea    -0x200010(%rbp),%rax
    5108:	48 89 c7             	mov    %rax,%rdi
    510b:	e8 72 69 00 00       	callq  ba82 <_ZN4Heap3popEv>
    5110:	48 8d 85 30 ed df ff 	lea    -0x2012d0(%rbp),%rax
    5117:	48 8d 50 0c          	lea    0xc(%rax),%rdx
    511b:	48 8d 85 f0 ff df ff 	lea    -0x200010(%rbp),%rax
    5122:	48 89 d6             	mov    %rdx,%rsi
    5125:	48 89 c7             	mov    %rax,%rdi
    5128:	e8 fd 67 00 00       	callq  b92a <_ZN4Heap4pushEP4Grid>
    512d:	48 8d 85 f0 ff df ff 	lea    -0x200010(%rbp),%rax
    5134:	48 89 c7             	mov    %rax,%rdi
    5137:	e8 46 69 00 00       	callq  ba82 <_ZN4Heap3popEv>
    513c:	48 8d 85 30 ed df ff 	lea    -0x2012d0(%rbp),%rax
    5143:	48 8d 50 0c          	lea    0xc(%rax),%rdx
    5147:	48 8d 85 f0 ff df ff 	lea    -0x200010(%rbp),%rax
    514e:	48 89 d6             	mov    %rdx,%rsi
    5151:	48 89 c7             	mov    %rax,%rdi
    5154:	e8 d1 67 00 00       	callq  b92a <_ZN4Heap4pushEP4Grid>
    5159:	48 8d 85 f0 ff df ff 	lea    -0x200010(%rbp),%rax
    5160:	48 89 c7             	mov    %rax,%rdi
    5163:	e8 1a 69 00 00       	callq  ba82 <_ZN4Heap3popEv>
    5168:	48 8d 85 30 ed df ff 	lea    -0x2012d0(%rbp),%rax
    516f:	48 8d 50 0c          	lea    0xc(%rax),%rdx
    5173:	48 8d 85 f0 ff df ff 	lea    -0x200010(%rbp),%rax
    517a:	48 89 d6             	mov    %rdx,%rsi
    517d:	48 89 c7             	mov    %rax,%rdi
    5180:	e8 a5 67 00 00       	callq  b92a <_ZN4Heap4pushEP4Grid>
    5185:	48 8d 85 f0 ff df ff 	lea    -0x200010(%rbp),%rax
    518c:	48 89 c7             	mov    %rax,%rdi
    518f:	e8 ee 68 00 00       	callq  ba82 <_ZN4Heap3popEv>
    5194:	48 8d 85 30 ed df ff 	lea    -0x2012d0(%rbp),%rax
    519b:	48 8d 50 0c          	lea    0xc(%rax),%rdx
    519f:	48 8d 85 f0 ff df ff 	lea    -0x200010(%rbp),%rax
    51a6:	48 89 d6             	mov    %rdx,%rsi
    51a9:	48 89 c7             	mov    %rax,%rdi
    51ac:	e8 79 67 00 00       	callq  b92a <_ZN4Heap4pushEP4Grid>
    51b1:	48 8d 85 f0 ff df ff 	lea    -0x200010(%rbp),%rax
    51b8:	48 89 c7             	mov    %rax,%rdi
    51bb:	e8 c2 68 00 00       	callq  ba82 <_ZN4Heap3popEv>
    51c0:	48 8d 85 30 ed df ff 	lea    -0x2012d0(%rbp),%rax
    51c7:	48 8d 50 0c          	lea    0xc(%rax),%rdx
    51cb:	48 8d 85 f0 ff df ff 	lea    -0x200010(%rbp),%rax
    51d2:	48 89 d6             	mov    %rdx,%rsi
    51d5:	48 89 c7             	mov    %rax,%rdi
    51d8:	e8 4d 67 00 00       	callq  b92a <_ZN4Heap4pushEP4Grid>
    51dd:	48 8d 85 f0 ff df ff 	lea    -0x200010(%rbp),%rax
    51e4:	48 89 c7             	mov    %rax,%rdi
    51e7:	e8 96 68 00 00       	callq  ba82 <_ZN4Heap3popEv>
    51ec:	48 8d 85 30 ed df ff 	lea    -0x2012d0(%rbp),%rax
    51f3:	48 8d 50 0c          	lea    0xc(%rax),%rdx
    51f7:	48 8d 85 f0 ff df ff 	lea    -0x200010(%rbp),%rax
    51fe:	48 89 d6             	mov    %rdx,%rsi
    5201:	48 89 c7             	mov    %rax,%rdi
    5204:	e8 21 67 00 00       	callq  b92a <_ZN4Heap4pushEP4Grid>
    5209:	48 8d 85 f0 ff df ff 	lea    -0x200010(%rbp),%rax
    5210:	48 89 c7             	mov    %rax,%rdi
    5213:	e8 6a 68 00 00       	callq  ba82 <_ZN4Heap3popEv>
    5218:	48 8d 85 30 ed df ff 	lea    -0x2012d0(%rbp),%rax
    521f:	48 8d 50 0c          	lea    0xc(%rax),%rdx
    5223:	48 8d 85 f0 ff df ff 	lea    -0x200010(%rbp),%rax
    522a:	48 89 d6             	mov    %rdx,%rsi
    522d:	48 89 c7             	mov    %rax,%rdi
    5230:	e8 f5 66 00 00       	callq  b92a <_ZN4Heap4pushEP4Grid>
    5235:	48 8d 85 f0 ff df ff 	lea    -0x200010(%rbp),%rax
    523c:	48 89 c7             	mov    %rax,%rdi
    523f:	e8 3e 68 00 00       	callq  ba82 <_ZN4Heap3popEv>
    5244:	48 8d 85 30 ed df ff 	lea    -0x2012d0(%rbp),%rax
    524b:	48 8d 50 0c          	lea    0xc(%rax),%rdx
    524f:	48 8d 85 f0 ff df ff 	lea    -0x200010(%rbp),%rax
    5256:	48 89 d6             	mov    %rdx,%rsi
    5259:	48 89 c7             	mov    %rax,%rdi
    525c:	e8 c9 66 00 00       	callq  b92a <_ZN4Heap4pushEP4Grid>
    5261:	48 8d 85 f0 ff df ff 	lea    -0x200010(%rbp),%rax
    5268:	48 89 c7             	mov    %rax,%rdi
    526b:	e8 12 68 00 00       	callq  ba82 <_ZN4Heap3popEv>
    5270:	48 8d 85 30 ed df ff 	lea    -0x2012d0(%rbp),%rax
    5277:	48 8d 50 0c          	lea    0xc(%rax),%rdx
    527b:	48 8d 85 f0 ff df ff 	lea    -0x200010(%rbp),%rax
    5282:	48 89 d6             	mov    %rdx,%rsi
    5285:	48 89 c7             	mov    %rax,%rdi
    5288:	e8 9d 66 00 00       	callq  b92a <_ZN4Heap4pushEP4Grid>
    528d:	48 8d 85 f0 ff df ff 	lea    -0x200010(%rbp),%rax
    5294:	48 89 c7             	mov    %rax,%rdi
    5297:	e8 e6 67 00 00       	callq  ba82 <_ZN4Heap3popEv>
    529c:	48 8d 85 30 ed df ff 	lea    -0x2012d0(%rbp),%rax
    52a3:	48 8d 50 0c          	lea    0xc(%rax),%rdx
    52a7:	48 8d 85 f0 ff df ff 	lea    -0x200010(%rbp),%rax
    52ae:	48 89 d6             	mov    %rdx,%rsi
    52b1:	48 89 c7             	mov    %rax,%rdi
    52b4:	e8 71 66 00 00       	callq  b92a <_ZN4Heap4pushEP4Grid>
    52b9:	48 8d 85 f0 ff df ff 	lea    -0x200010(%rbp),%rax
    52c0:	48 89 c7             	mov    %rax,%rdi
    52c3:	e8 ba 67 00 00       	callq  ba82 <_ZN4Heap3popEv>
    52c8:	48 8d 85 30 ed df ff 	lea    -0x2012d0(%rbp),%rax
    52cf:	48 8d 50 0c          	lea    0xc(%rax),%rdx
    52d3:	48 8d 85 f0 ff df ff 	lea    -0x200010(%rbp),%rax
    52da:	48 89 d6             	mov    %rdx,%rsi
    52dd:	48 89 c7             	mov    %rax,%rdi
    52e0:	e8 45 66 00 00       	callq  b92a <_ZN4Heap4pushEP4Grid>
    52e5:	48 8d 85 f0 ff df ff 	lea    -0x200010(%rbp),%rax
    52ec:	48 89 c7             	mov    %rax,%rdi
    52ef:	e8 8e 67 00 00       	callq  ba82 <_ZN4Heap3popEv>
    52f4:	48 8d 85 30 ed df ff 	lea    -0x2012d0(%rbp),%rax
    52fb:	48 8d 50 0c          	lea    0xc(%rax),%rdx
    52ff:	48 8d 85 f0 ff df ff 	lea    -0x200010(%rbp),%rax
    5306:	48 89 d6             	mov    %rdx,%rsi
    5309:	48 89 c7             	mov    %rax,%rdi
    530c:	e8 19 66 00 00       	callq  b92a <_ZN4Heap4pushEP4Grid>
    5311:	48 8d 85 f0 ff df ff 	lea    -0x200010(%rbp),%rax
    5318:	48 89 c7             	mov    %rax,%rdi
    531b:	e8 62 67 00 00       	callq  ba82 <_ZN4Heap3popEv>
    5320:	48 8d 85 30 ed df ff 	lea    -0x2012d0(%rbp),%rax
    5327:	48 8d 50 0c          	lea    0xc(%rax),%rdx
    532b:	48 8d 85 f0 ff df ff 	lea    -0x200010(%rbp),%rax
    5332:	48 89 d6             	mov    %rdx,%rsi
    5335:	48 89 c7             	mov    %rax,%rdi
    5338:	e8 ed 65 00 00       	callq  b92a <_ZN4Heap4pushEP4Grid>
    533d:	48 8d 85 f0 ff df ff 	lea    -0x200010(%rbp),%rax
    5344:	48 89 c7             	mov    %rax,%rdi
    5347:	e8 36 67 00 00       	callq  ba82 <_ZN4Heap3popEv>
    534c:	48 8d 85 30 ed df ff 	lea    -0x2012d0(%rbp),%rax
    5353:	48 8d 50 0c          	lea    0xc(%rax),%rdx
    5357:	48 8d 85 f0 ff df ff 	lea    -0x200010(%rbp),%rax
    535e:	48 89 d6             	mov    %rdx,%rsi
    5361:	48 89 c7             	mov    %rax,%rdi
    5364:	e8 c1 65 00 00       	callq  b92a <_ZN4Heap4pushEP4Grid>
    5369:	48 8d 85 f0 ff df ff 	lea    -0x200010(%rbp),%rax
    5370:	48 89 c7             	mov    %rax,%rdi
    5373:	e8 0a 67 00 00       	callq  ba82 <_ZN4Heap3popEv>
    5378:	48 8d 85 30 ed df ff 	lea    -0x2012d0(%rbp),%rax
    537f:	48 8d 50 0c          	lea    0xc(%rax),%rdx
    5383:	48 8d 85 f0 ff df ff 	lea    -0x200010(%rbp),%rax
    538a:	48 89 d6             	mov    %rdx,%rsi
    538d:	48 89 c7             	mov    %rax,%rdi
    5390:	e8 95 65 00 00       	callq  b92a <_ZN4Heap4pushEP4Grid>
    5395:	48 8d 85 f0 ff df ff 	lea    -0x200010(%rbp),%rax
    539c:	48 89 c7             	mov    %rax,%rdi
    539f:	e8 de 66 00 00       	callq  ba82 <_ZN4Heap3popEv>
    53a4:	48 8d 85 30 ed df ff 	lea    -0x2012d0(%rbp),%rax
    53ab:	48 8d 50 0c          	lea    0xc(%rax),%rdx
    53af:	48 8d 85 f0 ff df ff 	lea    -0x200010(%rbp),%rax
    53b6:	48 89 d6             	mov    %rdx,%rsi
    53b9:	48 89 c7             	mov    %rax,%rdi
    53bc:	e8 69 65 00 00       	callq  b92a <_ZN4Heap4pushEP4Grid>
    53c1:	48 8d 85 f0 ff df ff 	lea    -0x200010(%rbp),%rax
    53c8:	48 89 c7             	mov    %rax,%rdi
    53cb:	e8 b2 66 00 00       	callq  ba82 <_ZN4Heap3popEv>
    53d0:	48 8d 85 30 ed df ff 	lea    -0x2012d0(%rbp),%rax
    53d7:	48 8d 50 0c          	lea    0xc(%rax),%rdx
    53db:	48 8d 85 f0 ff df ff 	lea    -0x200010(%rbp),%rax
    53e2:	48 89 d6             	mov    %rdx,%rsi
    53e5:	48 89 c7             	mov    %rax,%rdi
    53e8:	e8 3d 65 00 00       	callq  b92a <_ZN4Heap4pushEP4Grid>
    53ed:	48 8d 85 f0 ff df ff 	lea    -0x200010(%rbp),%rax
    53f4:	48 89 c7             	mov    %rax,%rdi
    53f7:	e8 86 66 00 00       	callq  ba82 <_ZN4Heap3popEv>
    53fc:	48 8d 85 30 ed df ff 	lea    -0x2012d0(%rbp),%rax
    5403:	48 8d 50 0c          	lea    0xc(%rax),%rdx
    5407:	48 8d 85 f0 ff df ff 	lea    -0x200010(%rbp),%rax
    540e:	48 89 d6             	mov    %rdx,%rsi
    5411:	48 89 c7             	mov    %rax,%rdi
    5414:	e8 11 65 00 00       	callq  b92a <_ZN4Heap4pushEP4Grid>
    5419:	48 8d 85 f0 ff df ff 	lea    -0x200010(%rbp),%rax
    5420:	48 89 c7             	mov    %rax,%rdi
    5423:	e8 5a 66 00 00       	callq  ba82 <_ZN4Heap3popEv>
    5428:	48 8d 85 30 ed df ff 	lea    -0x2012d0(%rbp),%rax
    542f:	48 8d 50 0c          	lea    0xc(%rax),%rdx
    5433:	48 8d 85 f0 ff df ff 	lea    -0x200010(%rbp),%rax
    543a:	48 89 d6             	mov    %rdx,%rsi
    543d:	48 89 c7             	mov    %rax,%rdi
    5440:	e8 e5 64 00 00       	callq  b92a <_ZN4Heap4pushEP4Grid>
    5445:	48 8d 85 f0 ff df ff 	lea    -0x200010(%rbp),%rax
    544c:	48 89 c7             	mov    %rax,%rdi
    544f:	e8 2e 66 00 00       	callq  ba82 <_ZN4Heap3popEv>
    5454:	48 8d 85 30 ed df ff 	lea    -0x2012d0(%rbp),%rax
    545b:	48 8d 50 0c          	lea    0xc(%rax),%rdx
    545f:	48 8d 85 f0 ff df ff 	lea    -0x200010(%rbp),%rax
    5466:	48 89 d6             	mov    %rdx,%rsi
    5469:	48 89 c7             	mov    %rax,%rdi
    546c:	e8 b9 64 00 00       	callq  b92a <_ZN4Heap4pushEP4Grid>
    5471:	48 8d 85 f0 ff df ff 	lea    -0x200010(%rbp),%rax
    5478:	48 89 c7             	mov    %rax,%rdi
    547b:	e8 02 66 00 00       	callq  ba82 <_ZN4Heap3popEv>
    5480:	48 8d 85 30 ed df ff 	lea    -0x2012d0(%rbp),%rax
    5487:	48 8d 50 0c          	lea    0xc(%rax),%rdx
    548b:	48 8d 85 f0 ff df ff 	lea    -0x200010(%rbp),%rax
    5492:	48 89 d6             	mov    %rdx,%rsi
    5495:	48 89 c7             	mov    %rax,%rdi
    5498:	e8 8d 64 00 00       	callq  b92a <_ZN4Heap4pushEP4Grid>
    549d:	48 8d 85 f0 ff df ff 	lea    -0x200010(%rbp),%rax
    54a4:	48 89 c7             	mov    %rax,%rdi
    54a7:	e8 d6 65 00 00       	callq  ba82 <_ZN4Heap3popEv>
    54ac:	48 8d 85 30 ed df ff 	lea    -0x2012d0(%rbp),%rax
    54b3:	48 8d 50 0c          	lea    0xc(%rax),%rdx
    54b7:	48 8d 85 f0 ff df ff 	lea    -0x200010(%rbp),%rax
    54be:	48 89 d6             	mov    %rdx,%rsi
    54c1:	48 89 c7             	mov    %rax,%rdi
    54c4:	e8 61 64 00 00       	callq  b92a <_ZN4Heap4pushEP4Grid>
    54c9:	48 8d 85 f0 ff df ff 	lea    -0x200010(%rbp),%rax
    54d0:	48 89 c7             	mov    %rax,%rdi
    54d3:	e8 aa 65 00 00       	callq  ba82 <_ZN4Heap3popEv>
    54d8:	48 8d 85 30 ed df ff 	lea    -0x2012d0(%rbp),%rax
    54df:	48 8d 50 0c          	lea    0xc(%rax),%rdx
    54e3:	48 8d 85 f0 ff df ff 	lea    -0x200010(%rbp),%rax
    54ea:	48 89 d6             	mov    %rdx,%rsi
    54ed:	48 89 c7             	mov    %rax,%rdi
    54f0:	e8 35 64 00 00       	callq  b92a <_ZN4Heap4pushEP4Grid>
    54f5:	48 8d 85 f0 ff df ff 	lea    -0x200010(%rbp),%rax
    54fc:	48 89 c7             	mov    %rax,%rdi
    54ff:	e8 7e 65 00 00       	callq  ba82 <_ZN4Heap3popEv>
    5504:	48 8d 85 30 ed df ff 	lea    -0x2012d0(%rbp),%rax
    550b:	48 8d 50 0c          	lea    0xc(%rax),%rdx
    550f:	48 8d 85 f0 ff df ff 	lea    -0x200010(%rbp),%rax
    5516:	48 89 d6             	mov    %rdx,%rsi
    5519:	48 89 c7             	mov    %rax,%rdi
    551c:	e8 09 64 00 00       	callq  b92a <_ZN4Heap4pushEP4Grid>
    5521:	48 8d 85 f0 ff df ff 	lea    -0x200010(%rbp),%rax
    5528:	48 89 c7             	mov    %rax,%rdi
    552b:	e8 52 65 00 00       	callq  ba82 <_ZN4Heap3popEv>
    5530:	48 8d 85 30 ed df ff 	lea    -0x2012d0(%rbp),%rax
    5537:	48 8d 50 0c          	lea    0xc(%rax),%rdx
    553b:	48 8d 85 f0 ff df ff 	lea    -0x200010(%rbp),%rax
    5542:	48 89 d6             	mov    %rdx,%rsi
    5545:	48 89 c7             	mov    %rax,%rdi
    5548:	e8 dd 63 00 00       	callq  b92a <_ZN4Heap4pushEP4Grid>
    554d:	48 8d 85 f0 ff df ff 	lea    -0x200010(%rbp),%rax
    5554:	48 89 c7             	mov    %rax,%rdi
    5557:	e8 26 65 00 00       	callq  ba82 <_ZN4Heap3popEv>
    555c:	48 8d 85 30 ed df ff 	lea    -0x2012d0(%rbp),%rax
    5563:	48 8d 50 0c          	lea    0xc(%rax),%rdx
    5567:	48 8d 85 f0 ff df ff 	lea    -0x200010(%rbp),%rax
    556e:	48 89 d6             	mov    %rdx,%rsi
    5571:	48 89 c7             	mov    %rax,%rdi
    5574:	e8 b1 63 00 00       	callq  b92a <_ZN4Heap4pushEP4Grid>
    5579:	48 8d 85 f0 ff df ff 	lea    -0x200010(%rbp),%rax
    5580:	48 89 c7             	mov    %rax,%rdi
    5583:	e8 fa 64 00 00       	callq  ba82 <_ZN4Heap3popEv>
    5588:	48 8d 85 30 ed df ff 	lea    -0x2012d0(%rbp),%rax
    558f:	48 8d 50 0c          	lea    0xc(%rax),%rdx
    5593:	48 8d 85 f0 ff df ff 	lea    -0x200010(%rbp),%rax
    559a:	48 89 d6             	mov    %rdx,%rsi
    559d:	48 89 c7             	mov    %rax,%rdi
    55a0:	e8 85 63 00 00       	callq  b92a <_ZN4Heap4pushEP4Grid>
    55a5:	48 8d 85 f0 ff df ff 	lea    -0x200010(%rbp),%rax
    55ac:	48 89 c7             	mov    %rax,%rdi
    55af:	e8 ce 64 00 00       	callq  ba82 <_ZN4Heap3popEv>
    55b4:	48 8d 85 30 ed df ff 	lea    -0x2012d0(%rbp),%rax
    55bb:	48 8d 50 0c          	lea    0xc(%rax),%rdx
    55bf:	48 8d 85 f0 ff df ff 	lea    -0x200010(%rbp),%rax
    55c6:	48 89 d6             	mov    %rdx,%rsi
    55c9:	48 89 c7             	mov    %rax,%rdi
    55cc:	e8 59 63 00 00       	callq  b92a <_ZN4Heap4pushEP4Grid>
    55d1:	48 8d 85 f0 ff df ff 	lea    -0x200010(%rbp),%rax
    55d8:	48 89 c7             	mov    %rax,%rdi
    55db:	e8 a2 64 00 00       	callq  ba82 <_ZN4Heap3popEv>
    55e0:	48 8d 85 30 ed df ff 	lea    -0x2012d0(%rbp),%rax
    55e7:	48 8d 50 0c          	lea    0xc(%rax),%rdx
    55eb:	48 8d 85 f0 ff df ff 	lea    -0x200010(%rbp),%rax
    55f2:	48 89 d6             	mov    %rdx,%rsi
    55f5:	48 89 c7             	mov    %rax,%rdi
    55f8:	e8 2d 63 00 00       	callq  b92a <_ZN4Heap4pushEP4Grid>
    55fd:	48 8d 85 f0 ff df ff 	lea    -0x200010(%rbp),%rax
    5604:	48 89 c7             	mov    %rax,%rdi
    5607:	e8 76 64 00 00       	callq  ba82 <_ZN4Heap3popEv>
    560c:	48 8d 85 30 ed df ff 	lea    -0x2012d0(%rbp),%rax
    5613:	48 8d 50 0c          	lea    0xc(%rax),%rdx
    5617:	48 8d 85 f0 ff df ff 	lea    -0x200010(%rbp),%rax
    561e:	48 89 d6             	mov    %rdx,%rsi
    5621:	48 89 c7             	mov    %rax,%rdi
    5624:	e8 01 63 00 00       	callq  b92a <_ZN4Heap4pushEP4Grid>
    5629:	48 8d 85 f0 ff df ff 	lea    -0x200010(%rbp),%rax
    5630:	48 89 c7             	mov    %rax,%rdi
    5633:	e8 4a 64 00 00       	callq  ba82 <_ZN4Heap3popEv>
    5638:	48 8d 85 30 ed df ff 	lea    -0x2012d0(%rbp),%rax
    563f:	48 8d 50 0c          	lea    0xc(%rax),%rdx
    5643:	48 8d 85 f0 ff df ff 	lea    -0x200010(%rbp),%rax
    564a:	48 89 d6             	mov    %rdx,%rsi
    564d:	48 89 c7             	mov    %rax,%rdi
    5650:	e8 d5 62 00 00       	callq  b92a <_ZN4Heap4pushEP4Grid>
    5655:	48 8d 85 f0 ff df ff 	lea    -0x200010(%rbp),%rax
    565c:	48 89 c7             	mov    %rax,%rdi
    565f:	e8 1e 64 00 00       	callq  ba82 <_ZN4Heap3popEv>
    5664:	48 8d 85 30 ed df ff 	lea    -0x2012d0(%rbp),%rax
    566b:	48 8d 50 0c          	lea    0xc(%rax),%rdx
    566f:	48 8d 85 f0 ff df ff 	lea    -0x200010(%rbp),%rax
    5676:	48 89 d6             	mov    %rdx,%rsi
    5679:	48 89 c7             	mov    %rax,%rdi
    567c:	e8 a9 62 00 00       	callq  b92a <_ZN4Heap4pushEP4Grid>
    5681:	48 8d 85 f0 ff df ff 	lea    -0x200010(%rbp),%rax
    5688:	48 89 c7             	mov    %rax,%rdi
    568b:	e8 f2 63 00 00       	callq  ba82 <_ZN4Heap3popEv>
    5690:	48 8d 85 30 ed df ff 	lea    -0x2012d0(%rbp),%rax
    5697:	48 8d 50 0c          	lea    0xc(%rax),%rdx
    569b:	48 8d 85 f0 ff df ff 	lea    -0x200010(%rbp),%rax
    56a2:	48 89 d6             	mov    %rdx,%rsi
    56a5:	48 89 c7             	mov    %rax,%rdi
    56a8:	e8 7d 62 00 00       	callq  b92a <_ZN4Heap4pushEP4Grid>
    56ad:	48 8d 85 f0 ff df ff 	lea    -0x200010(%rbp),%rax
    56b4:	48 89 c7             	mov    %rax,%rdi
    56b7:	e8 c6 63 00 00       	callq  ba82 <_ZN4Heap3popEv>
    56bc:	48 8d 85 30 ed df ff 	lea    -0x2012d0(%rbp),%rax
    56c3:	48 8d 50 0c          	lea    0xc(%rax),%rdx
    56c7:	48 8d 85 f0 ff df ff 	lea    -0x200010(%rbp),%rax
    56ce:	48 89 d6             	mov    %rdx,%rsi
    56d1:	48 89 c7             	mov    %rax,%rdi
    56d4:	e8 51 62 00 00       	callq  b92a <_ZN4Heap4pushEP4Grid>
    56d9:	48 8d 85 f0 ff df ff 	lea    -0x200010(%rbp),%rax
    56e0:	48 89 c7             	mov    %rax,%rdi
    56e3:	e8 9a 63 00 00       	callq  ba82 <_ZN4Heap3popEv>
    56e8:	48 8d 85 30 ed df ff 	lea    -0x2012d0(%rbp),%rax
    56ef:	48 8d 50 0c          	lea    0xc(%rax),%rdx
    56f3:	48 8d 85 f0 ff df ff 	lea    -0x200010(%rbp),%rax
    56fa:	48 89 d6             	mov    %rdx,%rsi
    56fd:	48 89 c7             	mov    %rax,%rdi
    5700:	e8 25 62 00 00       	callq  b92a <_ZN4Heap4pushEP4Grid>
    5705:	48 8d 85 f0 ff df ff 	lea    -0x200010(%rbp),%rax
    570c:	48 89 c7             	mov    %rax,%rdi
    570f:	e8 6e 63 00 00       	callq  ba82 <_ZN4Heap3popEv>
    5714:	48 8d 85 30 ed df ff 	lea    -0x2012d0(%rbp),%rax
    571b:	48 8d 50 0c          	lea    0xc(%rax),%rdx
    571f:	48 8d 85 f0 ff df ff 	lea    -0x200010(%rbp),%rax
    5726:	48 89 d6             	mov    %rdx,%rsi
    5729:	48 89 c7             	mov    %rax,%rdi
    572c:	e8 f9 61 00 00       	callq  b92a <_ZN4Heap4pushEP4Grid>
    5731:	48 8d 85 f0 ff df ff 	lea    -0x200010(%rbp),%rax
    5738:	48 89 c7             	mov    %rax,%rdi
    573b:	e8 42 63 00 00       	callq  ba82 <_ZN4Heap3popEv>
    5740:	48 8d 85 30 ed df ff 	lea    -0x2012d0(%rbp),%rax
    5747:	48 8d 50 0c          	lea    0xc(%rax),%rdx
    574b:	48 8d 85 f0 ff df ff 	lea    -0x200010(%rbp),%rax
    5752:	48 89 d6             	mov    %rdx,%rsi
    5755:	48 89 c7             	mov    %rax,%rdi
    5758:	e8 cd 61 00 00       	callq  b92a <_ZN4Heap4pushEP4Grid>
    575d:	48 8d 85 f0 ff df ff 	lea    -0x200010(%rbp),%rax
    5764:	48 89 c7             	mov    %rax,%rdi
    5767:	e8 16 63 00 00       	callq  ba82 <_ZN4Heap3popEv>
    576c:	48 8d 85 30 ed df ff 	lea    -0x2012d0(%rbp),%rax
    5773:	48 8d 50 0c          	lea    0xc(%rax),%rdx
    5777:	48 8d 85 f0 ff df ff 	lea    -0x200010(%rbp),%rax
    577e:	48 89 d6             	mov    %rdx,%rsi
    5781:	48 89 c7             	mov    %rax,%rdi
    5784:	e8 a1 61 00 00       	callq  b92a <_ZN4Heap4pushEP4Grid>
    5789:	48 8d 85 f0 ff df ff 	lea    -0x200010(%rbp),%rax
    5790:	48 89 c7             	mov    %rax,%rdi
    5793:	e8 ea 62 00 00       	callq  ba82 <_ZN4Heap3popEv>
    5798:	48 8d 85 30 ed df ff 	lea    -0x2012d0(%rbp),%rax
    579f:	48 8d 50 0c          	lea    0xc(%rax),%rdx
    57a3:	48 8d 85 f0 ff df ff 	lea    -0x200010(%rbp),%rax
    57aa:	48 89 d6             	mov    %rdx,%rsi
    57ad:	48 89 c7             	mov    %rax,%rdi
    57b0:	e8 75 61 00 00       	callq  b92a <_ZN4Heap4pushEP4Grid>
    57b5:	48 8d 85 f0 ff df ff 	lea    -0x200010(%rbp),%rax
    57bc:	48 89 c7             	mov    %rax,%rdi
    57bf:	e8 be 62 00 00       	callq  ba82 <_ZN4Heap3popEv>
    57c4:	48 8d 85 30 ed df ff 	lea    -0x2012d0(%rbp),%rax
    57cb:	48 8d 50 0c          	lea    0xc(%rax),%rdx
    57cf:	48 8d 85 f0 ff df ff 	lea    -0x200010(%rbp),%rax
    57d6:	48 89 d6             	mov    %rdx,%rsi
    57d9:	48 89 c7             	mov    %rax,%rdi
    57dc:	e8 49 61 00 00       	callq  b92a <_ZN4Heap4pushEP4Grid>
    57e1:	48 8d 85 f0 ff df ff 	lea    -0x200010(%rbp),%rax
    57e8:	48 89 c7             	mov    %rax,%rdi
    57eb:	e8 92 62 00 00       	callq  ba82 <_ZN4Heap3popEv>
    57f0:	48 8d 85 30 ed df ff 	lea    -0x2012d0(%rbp),%rax
    57f7:	48 8d 50 0c          	lea    0xc(%rax),%rdx
    57fb:	48 8d 85 f0 ff df ff 	lea    -0x200010(%rbp),%rax
    5802:	48 89 d6             	mov    %rdx,%rsi
    5805:	48 89 c7             	mov    %rax,%rdi
    5808:	e8 1d 61 00 00       	callq  b92a <_ZN4Heap4pushEP4Grid>
    580d:	48 8d 85 f0 ff df ff 	lea    -0x200010(%rbp),%rax
    5814:	48 89 c7             	mov    %rax,%rdi
    5817:	e8 66 62 00 00       	callq  ba82 <_ZN4Heap3popEv>
    581c:	48 8d 85 30 ed df ff 	lea    -0x2012d0(%rbp),%rax
    5823:	48 8d 50 0c          	lea    0xc(%rax),%rdx
    5827:	48 8d 85 f0 ff df ff 	lea    -0x200010(%rbp),%rax
    582e:	48 89 d6             	mov    %rdx,%rsi
    5831:	48 89 c7             	mov    %rax,%rdi
    5834:	e8 f1 60 00 00       	callq  b92a <_ZN4Heap4pushEP4Grid>
    5839:	48 8d 85 f0 ff df ff 	lea    -0x200010(%rbp),%rax
    5840:	48 89 c7             	mov    %rax,%rdi
    5843:	e8 3a 62 00 00       	callq  ba82 <_ZN4Heap3popEv>
    5848:	48 8d 85 30 ed df ff 	lea    -0x2012d0(%rbp),%rax
    584f:	48 8d 50 0c          	lea    0xc(%rax),%rdx
    5853:	48 8d 85 f0 ff df ff 	lea    -0x200010(%rbp),%rax
    585a:	48 89 d6             	mov    %rdx,%rsi
    585d:	48 89 c7             	mov    %rax,%rdi
    5860:	e8 c5 60 00 00       	callq  b92a <_ZN4Heap4pushEP4Grid>
    5865:	48 8d 85 f0 ff df ff 	lea    -0x200010(%rbp),%rax
    586c:	48 89 c7             	mov    %rax,%rdi
    586f:	e8 0e 62 00 00       	callq  ba82 <_ZN4Heap3popEv>
    5874:	48 8d 85 30 ed df ff 	lea    -0x2012d0(%rbp),%rax
    587b:	48 8d 50 0c          	lea    0xc(%rax),%rdx
    587f:	48 8d 85 f0 ff df ff 	lea    -0x200010(%rbp),%rax
    5886:	48 89 d6             	mov    %rdx,%rsi
    5889:	48 89 c7             	mov    %rax,%rdi
    588c:	e8 99 60 00 00       	callq  b92a <_ZN4Heap4pushEP4Grid>
    5891:	48 8d 85 f0 ff df ff 	lea    -0x200010(%rbp),%rax
    5898:	48 89 c7             	mov    %rax,%rdi
    589b:	e8 e2 61 00 00       	callq  ba82 <_ZN4Heap3popEv>
    58a0:	48 8d 85 30 ed df ff 	lea    -0x2012d0(%rbp),%rax
    58a7:	48 8d 50 0c          	lea    0xc(%rax),%rdx
    58ab:	48 8d 85 f0 ff df ff 	lea    -0x200010(%rbp),%rax
    58b2:	48 89 d6             	mov    %rdx,%rsi
    58b5:	48 89 c7             	mov    %rax,%rdi
    58b8:	e8 6d 60 00 00       	callq  b92a <_ZN4Heap4pushEP4Grid>
    58bd:	48 8d 85 f0 ff df ff 	lea    -0x200010(%rbp),%rax
    58c4:	48 89 c7             	mov    %rax,%rdi
    58c7:	e8 b6 61 00 00       	callq  ba82 <_ZN4Heap3popEv>
    58cc:	48 8d 85 30 ed df ff 	lea    -0x2012d0(%rbp),%rax
    58d3:	48 8d 50 0c          	lea    0xc(%rax),%rdx
    58d7:	48 8d 85 f0 ff df ff 	lea    -0x200010(%rbp),%rax
    58de:	48 89 d6             	mov    %rdx,%rsi
    58e1:	48 89 c7             	mov    %rax,%rdi
    58e4:	e8 41 60 00 00       	callq  b92a <_ZN4Heap4pushEP4Grid>
    58e9:	48 8d 85 f0 ff df ff 	lea    -0x200010(%rbp),%rax
    58f0:	48 89 c7             	mov    %rax,%rdi
    58f3:	e8 8a 61 00 00       	callq  ba82 <_ZN4Heap3popEv>
    58f8:	48 8d 85 30 ed df ff 	lea    -0x2012d0(%rbp),%rax
    58ff:	48 8d 50 0c          	lea    0xc(%rax),%rdx
    5903:	48 8d 85 f0 ff df ff 	lea    -0x200010(%rbp),%rax
    590a:	48 89 d6             	mov    %rdx,%rsi
    590d:	48 89 c7             	mov    %rax,%rdi
    5910:	e8 15 60 00 00       	callq  b92a <_ZN4Heap4pushEP4Grid>
    5915:	48 8d 85 f0 ff df ff 	lea    -0x200010(%rbp),%rax
    591c:	48 89 c7             	mov    %rax,%rdi
    591f:	e8 5e 61 00 00       	callq  ba82 <_ZN4Heap3popEv>
    5924:	48 8d 85 30 ed df ff 	lea    -0x2012d0(%rbp),%rax
    592b:	48 8d 50 0c          	lea    0xc(%rax),%rdx
    592f:	48 8d 85 f0 ff df ff 	lea    -0x200010(%rbp),%rax
    5936:	48 89 d6             	mov    %rdx,%rsi
    5939:	48 89 c7             	mov    %rax,%rdi
    593c:	e8 e9 5f 00 00       	callq  b92a <_ZN4Heap4pushEP4Grid>
    5941:	48 8d 85 f0 ff df ff 	lea    -0x200010(%rbp),%rax
    5948:	48 89 c7             	mov    %rax,%rdi
    594b:	e8 32 61 00 00       	callq  ba82 <_ZN4Heap3popEv>
    5950:	48 8d 85 30 ed df ff 	lea    -0x2012d0(%rbp),%rax
    5957:	48 8d 50 0c          	lea    0xc(%rax),%rdx
    595b:	48 8d 85 f0 ff df ff 	lea    -0x200010(%rbp),%rax
    5962:	48 89 d6             	mov    %rdx,%rsi
    5965:	48 89 c7             	mov    %rax,%rdi
    5968:	e8 bd 5f 00 00       	callq  b92a <_ZN4Heap4pushEP4Grid>
    596d:	48 8d 85 f0 ff df ff 	lea    -0x200010(%rbp),%rax
    5974:	48 89 c7             	mov    %rax,%rdi
    5977:	e8 06 61 00 00       	callq  ba82 <_ZN4Heap3popEv>
    597c:	48 8d 85 30 ed df ff 	lea    -0x2012d0(%rbp),%rax
    5983:	48 8d 50 0c          	lea    0xc(%rax),%rdx
    5987:	48 8d 85 f0 ff df ff 	lea    -0x200010(%rbp),%rax
    598e:	48 89 d6             	mov    %rdx,%rsi
    5991:	48 89 c7             	mov    %rax,%rdi
    5994:	e8 91 5f 00 00       	callq  b92a <_ZN4Heap4pushEP4Grid>
    5999:	48 8d 85 f0 ff df ff 	lea    -0x200010(%rbp),%rax
    59a0:	48 89 c7             	mov    %rax,%rdi
    59a3:	e8 da 60 00 00       	callq  ba82 <_ZN4Heap3popEv>
    59a8:	48 8d 85 30 ed df ff 	lea    -0x2012d0(%rbp),%rax
    59af:	48 8d 50 0c          	lea    0xc(%rax),%rdx
    59b3:	48 8d 85 f0 ff df ff 	lea    -0x200010(%rbp),%rax
    59ba:	48 89 d6             	mov    %rdx,%rsi
    59bd:	48 89 c7             	mov    %rax,%rdi
    59c0:	e8 65 5f 00 00       	callq  b92a <_ZN4Heap4pushEP4Grid>
    59c5:	48 8d 85 f0 ff df ff 	lea    -0x200010(%rbp),%rax
    59cc:	48 89 c7             	mov    %rax,%rdi
    59cf:	e8 ae 60 00 00       	callq  ba82 <_ZN4Heap3popEv>
    59d4:	48 8d 85 30 ed df ff 	lea    -0x2012d0(%rbp),%rax
    59db:	48 8d 50 0c          	lea    0xc(%rax),%rdx
    59df:	48 8d 85 f0 ff df ff 	lea    -0x200010(%rbp),%rax
    59e6:	48 89 d6             	mov    %rdx,%rsi
    59e9:	48 89 c7             	mov    %rax,%rdi
    59ec:	e8 39 5f 00 00       	callq  b92a <_ZN4Heap4pushEP4Grid>
    59f1:	48 8d 85 f0 ff df ff 	lea    -0x200010(%rbp),%rax
    59f8:	48 89 c7             	mov    %rax,%rdi
    59fb:	e8 82 60 00 00       	callq  ba82 <_ZN4Heap3popEv>
    5a00:	48 8d 85 30 ed df ff 	lea    -0x2012d0(%rbp),%rax
    5a07:	48 8d 50 0c          	lea    0xc(%rax),%rdx
    5a0b:	48 8d 85 f0 ff df ff 	lea    -0x200010(%rbp),%rax
    5a12:	48 89 d6             	mov    %rdx,%rsi
    5a15:	48 89 c7             	mov    %rax,%rdi
    5a18:	e8 0d 5f 00 00       	callq  b92a <_ZN4Heap4pushEP4Grid>
    5a1d:	48 8d 85 f0 ff df ff 	lea    -0x200010(%rbp),%rax
    5a24:	48 89 c7             	mov    %rax,%rdi
    5a27:	e8 56 60 00 00       	callq  ba82 <_ZN4Heap3popEv>
    5a2c:	48 8d 85 30 ed df ff 	lea    -0x2012d0(%rbp),%rax
    5a33:	48 8d 50 0c          	lea    0xc(%rax),%rdx
    5a37:	48 8d 85 f0 ff df ff 	lea    -0x200010(%rbp),%rax
    5a3e:	48 89 d6             	mov    %rdx,%rsi
    5a41:	48 89 c7             	mov    %rax,%rdi
    5a44:	e8 e1 5e 00 00       	callq  b92a <_ZN4Heap4pushEP4Grid>
    5a49:	48 8d 85 f0 ff df ff 	lea    -0x200010(%rbp),%rax
    5a50:	48 89 c7             	mov    %rax,%rdi
    5a53:	e8 2a 60 00 00       	callq  ba82 <_ZN4Heap3popEv>
    5a58:	48 8d 85 30 ed df ff 	lea    -0x2012d0(%rbp),%rax
    5a5f:	48 8d 50 0c          	lea    0xc(%rax),%rdx
    5a63:	48 8d 85 f0 ff df ff 	lea    -0x200010(%rbp),%rax
    5a6a:	48 89 d6             	mov    %rdx,%rsi
    5a6d:	48 89 c7             	mov    %rax,%rdi
    5a70:	e8 b5 5e 00 00       	callq  b92a <_ZN4Heap4pushEP4Grid>
    5a75:	48 8d 85 f0 ff df ff 	lea    -0x200010(%rbp),%rax
    5a7c:	48 89 c7             	mov    %rax,%rdi
    5a7f:	e8 fe 5f 00 00       	callq  ba82 <_ZN4Heap3popEv>
    5a84:	48 8d 85 30 ed df ff 	lea    -0x2012d0(%rbp),%rax
    5a8b:	48 8d 50 0c          	lea    0xc(%rax),%rdx
    5a8f:	48 8d 85 f0 ff df ff 	lea    -0x200010(%rbp),%rax
    5a96:	48 89 d6             	mov    %rdx,%rsi
    5a99:	48 89 c7             	mov    %rax,%rdi
    5a9c:	e8 89 5e 00 00       	callq  b92a <_ZN4Heap4pushEP4Grid>
    5aa1:	48 8d 85 f0 ff df ff 	lea    -0x200010(%rbp),%rax
    5aa8:	48 89 c7             	mov    %rax,%rdi
    5aab:	e8 d2 5f 00 00       	callq  ba82 <_ZN4Heap3popEv>
    5ab0:	48 8d 85 30 ed df ff 	lea    -0x2012d0(%rbp),%rax
    5ab7:	48 8d 50 0c          	lea    0xc(%rax),%rdx
    5abb:	48 8d 85 f0 ff df ff 	lea    -0x200010(%rbp),%rax
    5ac2:	48 89 d6             	mov    %rdx,%rsi
    5ac5:	48 89 c7             	mov    %rax,%rdi
    5ac8:	e8 5d 5e 00 00       	callq  b92a <_ZN4Heap4pushEP4Grid>
    5acd:	48 8d 85 f0 ff df ff 	lea    -0x200010(%rbp),%rax
    5ad4:	48 89 c7             	mov    %rax,%rdi
    5ad7:	e8 a6 5f 00 00       	callq  ba82 <_ZN4Heap3popEv>
    5adc:	48 8d 85 30 ed df ff 	lea    -0x2012d0(%rbp),%rax
    5ae3:	48 8d 50 0c          	lea    0xc(%rax),%rdx
    5ae7:	48 8d 85 f0 ff df ff 	lea    -0x200010(%rbp),%rax
    5aee:	48 89 d6             	mov    %rdx,%rsi
    5af1:	48 89 c7             	mov    %rax,%rdi
    5af4:	e8 31 5e 00 00       	callq  b92a <_ZN4Heap4pushEP4Grid>
    5af9:	48 8d 85 f0 ff df ff 	lea    -0x200010(%rbp),%rax
    5b00:	48 89 c7             	mov    %rax,%rdi
    5b03:	e8 7a 5f 00 00       	callq  ba82 <_ZN4Heap3popEv>
    5b08:	48 8d 85 30 ed df ff 	lea    -0x2012d0(%rbp),%rax
    5b0f:	48 8d 50 0c          	lea    0xc(%rax),%rdx
    5b13:	48 8d 85 f0 ff df ff 	lea    -0x200010(%rbp),%rax
    5b1a:	48 89 d6             	mov    %rdx,%rsi
    5b1d:	48 89 c7             	mov    %rax,%rdi
    5b20:	e8 05 5e 00 00       	callq  b92a <_ZN4Heap4pushEP4Grid>
    5b25:	48 8d 85 f0 ff df ff 	lea    -0x200010(%rbp),%rax
    5b2c:	48 89 c7             	mov    %rax,%rdi
    5b2f:	e8 4e 5f 00 00       	callq  ba82 <_ZN4Heap3popEv>
    5b34:	48 8d 85 30 ed df ff 	lea    -0x2012d0(%rbp),%rax
    5b3b:	48 8d 50 0c          	lea    0xc(%rax),%rdx
    5b3f:	48 8d 85 f0 ff df ff 	lea    -0x200010(%rbp),%rax
    5b46:	48 89 d6             	mov    %rdx,%rsi
    5b49:	48 89 c7             	mov    %rax,%rdi
    5b4c:	e8 d9 5d 00 00       	callq  b92a <_ZN4Heap4pushEP4Grid>
    5b51:	48 8d 85 f0 ff df ff 	lea    -0x200010(%rbp),%rax
    5b58:	48 89 c7             	mov    %rax,%rdi
    5b5b:	e8 22 5f 00 00       	callq  ba82 <_ZN4Heap3popEv>
    5b60:	48 8d 85 30 ed df ff 	lea    -0x2012d0(%rbp),%rax
    5b67:	48 8d 50 0c          	lea    0xc(%rax),%rdx
    5b6b:	48 8d 85 f0 ff df ff 	lea    -0x200010(%rbp),%rax
    5b72:	48 89 d6             	mov    %rdx,%rsi
    5b75:	48 89 c7             	mov    %rax,%rdi
    5b78:	e8 ad 5d 00 00       	callq  b92a <_ZN4Heap4pushEP4Grid>
    5b7d:	48 8d 85 f0 ff df ff 	lea    -0x200010(%rbp),%rax
    5b84:	48 89 c7             	mov    %rax,%rdi
    5b87:	e8 f6 5e 00 00       	callq  ba82 <_ZN4Heap3popEv>
    5b8c:	48 8d 85 30 ed df ff 	lea    -0x2012d0(%rbp),%rax
    5b93:	48 8d 50 0c          	lea    0xc(%rax),%rdx
    5b97:	48 8d 85 f0 ff df ff 	lea    -0x200010(%rbp),%rax
    5b9e:	48 89 d6             	mov    %rdx,%rsi
    5ba1:	48 89 c7             	mov    %rax,%rdi
    5ba4:	e8 81 5d 00 00       	callq  b92a <_ZN4Heap4pushEP4Grid>
    5ba9:	48 8d 85 f0 ff df ff 	lea    -0x200010(%rbp),%rax
    5bb0:	48 89 c7             	mov    %rax,%rdi
    5bb3:	e8 ca 5e 00 00       	callq  ba82 <_ZN4Heap3popEv>
    5bb8:	48 8d 85 30 ed df ff 	lea    -0x2012d0(%rbp),%rax
    5bbf:	48 8d 50 0c          	lea    0xc(%rax),%rdx
    5bc3:	48 8d 85 f0 ff df ff 	lea    -0x200010(%rbp),%rax
    5bca:	48 89 d6             	mov    %rdx,%rsi
    5bcd:	48 89 c7             	mov    %rax,%rdi
    5bd0:	e8 55 5d 00 00       	callq  b92a <_ZN4Heap4pushEP4Grid>
    5bd5:	48 8d 85 f0 ff df ff 	lea    -0x200010(%rbp),%rax
    5bdc:	48 89 c7             	mov    %rax,%rdi
    5bdf:	e8 9e 5e 00 00       	callq  ba82 <_ZN4Heap3popEv>
    5be4:	48 8d 85 30 ed df ff 	lea    -0x2012d0(%rbp),%rax
    5beb:	48 8d 50 0c          	lea    0xc(%rax),%rdx
    5bef:	48 8d 85 f0 ff df ff 	lea    -0x200010(%rbp),%rax
    5bf6:	48 89 d6             	mov    %rdx,%rsi
    5bf9:	48 89 c7             	mov    %rax,%rdi
